   1              		.syntax unified
   2              		.cpu cortex-m3
   3              		.fpu softvfp
   4              		.eabi_attribute 20, 1
   5              		.eabi_attribute 21, 1
   6              		.eabi_attribute 23, 3
   7              		.eabi_attribute 24, 1
   8              		.eabi_attribute 25, 1
   9              		.eabi_attribute 26, 1
  10              		.eabi_attribute 30, 4
  11              		.eabi_attribute 18, 4
  12              		.thumb
  13              		.file	"cr_startup_lpc175x.cpp"
  14              		.section	.after_vectors,"ax",%progbits
  15              		.align	1
  16              		.weak	HardFault_Handler
  17              		.thumb
  18              		.thumb_func
  20              	HardFault_Handler:
  21              		@ args = 0, pretend = 0, frame = 0
  22              		@ frame_needed = 0, uses_anonymous_args = 0
  23              		@ link register save eliminated.
  24              	@ 439 "../L0_LowLevel/source/cr_startup_lpc175x.cpp" 1
  25 0000 0420     		MOVS   R0, #4  
  26 0002 7146     	MOV    R1, LR  
  27 0004 0842     	TST    R0, R1  
  28 0006 03D0     	BEQ    _MSP    
  29 0008 EFF30980 	MRS    R0, PSP 
  30 000c FFF7FEBF 	B      HardFault_HandlerC      
  31              	_MSP:  
  32 0010 EFF30880 	MRS    R0, MSP 
  33 0014 FFF7FEBF 	B      HardFault_HandlerC      
  34              	
  35              	@ 0 "" 2
  36              		.thumb
  37 0018 7047     		bx	lr
  39              		.align	1
  40              		.weak	DebugMon_Handler
  41              		.thumb
  42              		.thumb_func
  44              	DebugMon_Handler:
  45              		@ args = 0, pretend = 0, frame = 0
  46              		@ frame_needed = 0, uses_anonymous_args = 0
  47 001a 08B5     		push	{r3, lr}
  48 001c 0148     		ldr	r0, .L4
  49 001e FFF7FEFF 		bl	printMessageUponCriticalSystemError
  50              	.L3:
  51 0022 FEE7     		b	.L3
  52              	.L5:
  53              		.align	2
  54              	.L4:
  55 0024 00000000 		.word	.LC0
  57              		.align	1
  58              		.weak	UsageFault_Handler
  59              		.thumb
  60              		.thumb_func
  62              	UsageFault_Handler:
  63              		@ args = 0, pretend = 0, frame = 0
  64              		@ frame_needed = 0, uses_anonymous_args = 0
  65 0028 08B5     		push	{r3, lr}
  66 002a 0248     		ldr	r0, .L8
  67 002c FFF7FEFF 		bl	printMessageUponCriticalSystemError
  68              	.L7:
  69 0030 FEE7     		b	.L7
  70              	.L9:
  71 0032 00BF     		.align	2
  72              	.L8:
  73 0034 10000000 		.word	.LC1
  75              		.align	1
  76              		.weak	BusFault_Handler
  77              		.thumb
  78              		.thumb_func
  80              	BusFault_Handler:
  81              		@ args = 0, pretend = 0, frame = 0
  82              		@ frame_needed = 0, uses_anonymous_args = 0
  83 0038 08B5     		push	{r3, lr}
  84 003a 0248     		ldr	r0, .L12
  85 003c FFF7FEFF 		bl	printMessageUponCriticalSystemError
  86              	.L11:
  87 0040 FEE7     		b	.L11
  88              	.L13:
  89 0042 00BF     		.align	2
  90              	.L12:
  91 0044 1D000000 		.word	.LC2
  93              		.align	1
  94              		.weak	MemManage_Handler
  95              		.thumb
  96              		.thumb_func
  98              	MemManage_Handler:
  99              		@ args = 0, pretend = 0, frame = 0
 100              		@ frame_needed = 0, uses_anonymous_args = 0
 101 0048 08B5     		push	{r3, lr}
 102 004a 0248     		ldr	r0, .L16
 103 004c FFF7FEFF 		bl	printMessageUponCriticalSystemError
 104              	.L15:
 105 0050 FEE7     		b	.L15
 106              	.L17:
 107 0052 00BF     		.align	2
 108              	.L16:
 109 0054 28000000 		.word	.LC3
 111              		.align	1
 112              		.weak	NMI_Handler
 113              		.thumb
 114              		.thumb_func
 116              	NMI_Handler:
 117              		@ args = 0, pretend = 0, frame = 0
 118              		@ frame_needed = 0, uses_anonymous_args = 0
 119 0058 08B5     		push	{r3, lr}
 120 005a 0248     		ldr	r0, .L20
 121 005c FFF7FEFF 		bl	printMessageUponCriticalSystemError
 122              	.L19:
 123 0060 FEE7     		b	.L19
 124              	.L21:
 125 0062 00BF     		.align	2
 126              	.L20:
 127 0064 33000000 		.word	.LC4
 129              		.text
 130              		.align	1
 131              		.global	HardFault_HandlerC
 132              		.thumb
 133              		.thumb_func
 135              	HardFault_HandlerC:
 136              		@ args = 0, pretend = 0, frame = 32
 137              		@ frame_needed = 0, uses_anonymous_args = 0
 138 0000 10B5     		push	{r4, lr}
 139 0002 0368     		ldr	r3, [r0, #0]
 140 0004 8AB0     		sub	sp, sp, #40
 141 0006 0293     		str	r3, [sp, #8]
 142 0008 4368     		ldr	r3, [r0, #4]
 143 000a 0393     		str	r3, [sp, #12]
 144 000c 8368     		ldr	r3, [r0, #8]
 145 000e 0493     		str	r3, [sp, #16]
 146 0010 C368     		ldr	r3, [r0, #12]
 147 0012 0593     		str	r3, [sp, #20]
 148 0014 0369     		ldr	r3, [r0, #16]
 149 0016 0693     		str	r3, [sp, #24]
 150 0018 4369     		ldr	r3, [r0, #20]
 151 001a 0793     		str	r3, [sp, #28]
 152 001c 8369     		ldr	r3, [r0, #24]
 153 001e 0893     		str	r3, [sp, #32]
 154 0020 C369     		ldr	r3, [r0, #28]
 155 0022 1548     		ldr	r0, .L24
 156 0024 0993     		str	r3, [sp, #36]
 157 0026 FFF7FEFF 		bl	stdio_SetOutputCharFunction
 158 002a 1448     		ldr	r0, .L24+4
 159 002c FFF7FEFF 		bl	puts
 160 0030 0299     		ldr	r1, [sp, #8]
 161 0032 039A     		ldr	r2, [sp, #12]
 162 0034 049B     		ldr	r3, [sp, #16]
 163 0036 059C     		ldr	r4, [sp, #20]
 164 0038 0698     		ldr	r0, [sp, #24]
 165 003a 0094     		str	r4, [sp, #0]
 166 003c 0190     		str	r0, [sp, #4]
 167 003e 1048     		ldr	r0, .L24+8
 168 0040 FFF7FEFF 		bl	printf
 169 0044 0799     		ldr	r1, [sp, #28]
 170 0046 0F48     		ldr	r0, .L24+12
 171 0048 089A     		ldr	r2, [sp, #32]
 172 004a 099B     		ldr	r3, [sp, #36]
 173 004c FFF7FEFF 		bl	printf
 174 0050 0D4B     		ldr	r3, .L24+16
 175 0052 0E4A     		ldr	r2, .L24+20
 176 0054 0E48     		ldr	r0, .L24+24
 177 0056 9A64     		str	r2, [r3, #72]
 178 0058 089A     		ldr	r2, [sp, #32]
 179 005a DA64     		str	r2, [r3, #76]
 180 005c 079A     		ldr	r2, [sp, #28]
 181 005e 1A65     		str	r2, [r3, #80]
 182 0060 099A     		ldr	r2, [sp, #36]
 183 0062 5A65     		str	r2, [r3, #84]
 184 0064 FFF7FEFF 		bl	delay_us
 185 0068 4FF08043 		mov	r3, #1073741824
 186 006c AA22     		movs	r2, #170
 187 006e 1A72     		strb	r2, [r3, #8]
 188 0070 0022     		movs	r2, #0
 189 0072 1A70     		strb	r2, [r3, #0]
 190              	.L23:
 191 0074 FEE7     		b	.L23
 192              	.L25:
 193 0076 00BF     		.align	2
 194              	.L24:
 195 0078 00000000 		.word	uart0Putchar
 196 007c 3E000000 		.word	.LC5
 197 0080 4D000000 		.word	.LC6
 198 0084 80000000 		.word	.LC7
 199 0088 00400240 		.word	1073889280
 200 008c EFBEADDE 		.word	-559038737
 201 0090 80969800 		.word	10000000
 203              		.section	.after_vectors
 204              		.align	1
 205              		.global	_Z9data_initjjj
 206              		.thumb
 207              		.thumb_func
 209              	_Z9data_initjjj:
 210              		@ args = 0, pretend = 0, frame = 0
 211              		@ frame_needed = 0, uses_anonymous_args = 0
 212 0068 10B5     		push	{r4, lr}
 213 006a 0023     		movs	r3, #0
 214 006c 02E0     		b	.L27
 215              	.L28:
 216 006e 1C58     		ldr	r4, [r3, r0]
 217 0070 5C50     		str	r4, [r3, r1]
 218 0072 0433     		adds	r3, r3, #4
 219              	.L27:
 220 0074 9342     		cmp	r3, r2
 221 0076 FAD3     		bcc	.L28
 222 0078 10BD     		pop	{r4, pc}
 224              		.align	1
 225              		.global	_Z8bss_initjj
 226              		.thumb
 227              		.thumb_func
 229              	_Z8bss_initjj:
 230              		@ args = 0, pretend = 0, frame = 0
 231              		@ frame_needed = 0, uses_anonymous_args = 0
 232              		@ link register save eliminated.
 233 007a 0023     		movs	r3, #0
 234 007c 1A46     		mov	r2, r3
 235 007e 01E0     		b	.L30
 236              	.L31:
 237 0080 1A50     		str	r2, [r3, r0]
 238 0082 0433     		adds	r3, r3, #4
 239              	.L30:
 240 0084 8B42     		cmp	r3, r1
 241 0086 FBD3     		bcc	.L31
 242 0088 7047     		bx	lr
 244              		.align	1
 245              		.global	ResetISR
 246              		.thumb
 247              		.thumb_func
 249              	ResetISR:
 250              		@ args = 0, pretend = 0, frame = 0
 251              		@ frame_needed = 0, uses_anonymous_args = 0
 252 008a 38B5     		push	{r3, r4, r5, lr}
 253 008c 184C     		ldr	r4, .L41
 254 008e 194D     		ldr	r5, .L41+4
 255 0090 04E0     		b	.L33
 256              	.L34:
 257 0092 94E80700 		ldmia	r4, {r0, r1, r2}
 258 0096 0C34     		adds	r4, r4, #12
 259 0098 FFF7FEFF 		bl	_Z9data_initjjj
 260              	.L33:
 261 009c AC42     		cmp	r4, r5
 262 009e F8D3     		bcc	.L34
 263 00a0 05E0     		b	.L40
 264              	.L36:
 265 00a2 94E80300 		ldmia	r4, {r0, r1}
 266 00a6 0834     		adds	r4, r4, #8
 267 00a8 FFF7FEFF 		bl	_Z8bss_initjj
 268 00ac 00E0     		b	.L39
 269              	.L40:
 270 00ae 124D     		ldr	r5, .L41+8
 271              	.L39:
 272 00b0 AC42     		cmp	r4, r5
 273 00b2 F6D3     		bcc	.L36
 274 00b4 FFF7FEFF 		bl	__libc_init_array
 275 00b8 FFF7FEFF 		bl	_Z18lowLevelInitializev
 276 00bc FFF7FEFF 		bl	_Z19highLevelInitializev
 277 00c0 FFF7FEFF 		bl	main
 278 00c4 0446     		mov	r4, r0
 279 00c6 FFF7FEFF 		bl	getCpuClock
 280 00ca 8108     		lsrs	r1, r0, #2
 281 00cc 4FF41640 		mov	r0, #38400
 282 00d0 FFF7FEFF 		bl	uart0Init
 283 00d4 0948     		ldr	r0, .L41+12
 284 00d6 FFF7FEFF 		bl	stdio_SetOutputCharFunction
 285 00da 0948     		ldr	r0, .L41+16
 286 00dc FFF7FEFF 		bl	stdio_SetInputCharFunction
 287 00e0 0848     		ldr	r0, .L41+20
 288 00e2 2146     		mov	r1, r4
 289 00e4 FFF7FEFF 		bl	printf
 290 00e8 0748     		ldr	r0, .L41+24
 291 00ea FFF7FEFF 		bl	puts
 292              	.L37:
 293 00ee FEE7     		b	.L37
 294              	.L42:
 295              		.align	2
 296              	.L41:
 297 00f0 00000000 		.word	__data_section_table
 298 00f4 00000000 		.word	__data_section_table_end
 299 00f8 00000000 		.word	__bss_section_table_end
 300 00fc 00000000 		.word	uart0Putchar
 301 0100 00000000 		.word	uart0Getchar
 302 0104 A5000000 		.word	.LC8
 303 0108 C8000000 		.word	.LC9
 305              		.align	1
 306              		.weak	SVC_Handler
 307              		.thumb
 308              		.thumb_func
 310              	SVC_Handler:
 311              		@ args = 0, pretend = 0, frame = 0
 312              		@ frame_needed = 0, uses_anonymous_args = 0
 313 010c 08B5     		push	{r3, lr}
 314 010e 0248     		ldr	r0, .L45
 315 0110 FFF7FEFF 		bl	printMessageUponCriticalSystemError
 316              	.L44:
 317 0114 FEE7     		b	.L44
 318              	.L46:
 319 0116 00BF     		.align	2
 320              	.L45:
 321 0118 F7000000 		.word	.LC10
 323              		.align	1
 324              		.weak	PendSV_Handler
 325              		.thumb
 326              		.thumb_func
 328              	PendSV_Handler:
 329              		@ args = 0, pretend = 0, frame = 0
 330              		@ frame_needed = 0, uses_anonymous_args = 0
 331 011c 08B5     		push	{r3, lr}
 332 011e 0248     		ldr	r0, .L49
 333 0120 FFF7FEFF 		bl	printMessageUponCriticalSystemError
 334              	.L48:
 335 0124 FEE7     		b	.L48
 336              	.L50:
 337 0126 00BF     		.align	2
 338              	.L49:
 339 0128 02010000 		.word	.LC11
 341              		.align	1
 342              		.weak	SysTick_Handler
 343              		.thumb
 344              		.thumb_func
 346              	SysTick_Handler:
 347              		@ args = 0, pretend = 0, frame = 0
 348              		@ frame_needed = 0, uses_anonymous_args = 0
 349 012c 08B5     		push	{r3, lr}
 350 012e 0248     		ldr	r0, .L53
 351 0130 FFF7FEFF 		bl	printMessageUponCriticalSystemError
 352              	.L52:
 353 0134 FEE7     		b	.L52
 354              	.L54:
 355 0136 00BF     		.align	2
 356              	.L53:
 357 0138 11010000 		.word	.LC12
 359              		.align	1
 360              		.weak	IntDefaultHandler
 361              		.thumb
 362              		.thumb_func
 364              	IntDefaultHandler:
 365              		@ args = 0, pretend = 0, frame = 0
 366              		@ frame_needed = 0, uses_anonymous_args = 0
 367 013c 08B5     		push	{r3, lr}
 368 013e 0248     		ldr	r0, .L57
 369 0140 FFF7FEFF 		bl	printMessageUponCriticalSystemError
 370              	.L56:
 371 0144 FEE7     		b	.L56
 372              	.L58:
 373 0146 00BF     		.align	2
 374              	.L57:
 375 0148 21010000 		.word	.LC13
 377              		.global	g_pfnVectors
 378              		.weak	WDT_IRQHandler
 379              		.thumb_set WDT_IRQHandler,IntDefaultHandler
 380              		.weak	TIMER0_IRQHandler
 381              		.thumb_set TIMER0_IRQHandler,IntDefaultHandler
 382              		.weak	TIMER1_IRQHandler
 383              		.thumb_set TIMER1_IRQHandler,IntDefaultHandler
 384              		.weak	TIMER2_IRQHandler
 385              		.thumb_set TIMER2_IRQHandler,IntDefaultHandler
 386              		.weak	TIMER3_IRQHandler
 387              		.thumb_set TIMER3_IRQHandler,IntDefaultHandler
 388              		.weak	UART0_IRQHandler
 389              		.thumb_set UART0_IRQHandler,IntDefaultHandler
 390              		.weak	UART1_IRQHandler
 391              		.thumb_set UART1_IRQHandler,IntDefaultHandler
 392              		.weak	UART2_IRQHandler
 393              		.thumb_set UART2_IRQHandler,IntDefaultHandler
 394              		.weak	UART3_IRQHandler
 395              		.thumb_set UART3_IRQHandler,IntDefaultHandler
 396              		.weak	PWM1_IRQHandler
 397              		.thumb_set PWM1_IRQHandler,IntDefaultHandler
 398              		.weak	I2C0_IRQHandler
 399              		.thumb_set I2C0_IRQHandler,IntDefaultHandler
 400              		.weak	I2C1_IRQHandler
 401              		.thumb_set I2C1_IRQHandler,IntDefaultHandler
 402              		.weak	I2C2_IRQHandler
 403              		.thumb_set I2C2_IRQHandler,IntDefaultHandler
 404              		.weak	SPI_IRQHandler
 405              		.thumb_set SPI_IRQHandler,IntDefaultHandler
 406              		.weak	SSP0_IRQHandler
 407              		.thumb_set SSP0_IRQHandler,IntDefaultHandler
 408              		.weak	SSP1_IRQHandler
 409              		.thumb_set SSP1_IRQHandler,IntDefaultHandler
 410              		.weak	PLL0_IRQHandler
 411              		.thumb_set PLL0_IRQHandler,IntDefaultHandler
 412              		.weak	RTC_IRQHandler
 413              		.thumb_set RTC_IRQHandler,IntDefaultHandler
 414              		.weak	EINT0_IRQHandler
 415              		.thumb_set EINT0_IRQHandler,IntDefaultHandler
 416              		.weak	EINT1_IRQHandler
 417              		.thumb_set EINT1_IRQHandler,IntDefaultHandler
 418              		.weak	EINT2_IRQHandler
 419              		.thumb_set EINT2_IRQHandler,IntDefaultHandler
 420              		.weak	EINT3_IRQHandler
 421              		.thumb_set EINT3_IRQHandler,IntDefaultHandler
 422              		.weak	ADC_IRQHandler
 423              		.thumb_set ADC_IRQHandler,IntDefaultHandler
 424              		.weak	BOD_IRQHandler
 425              		.thumb_set BOD_IRQHandler,IntDefaultHandler
 426              		.weak	USB_IRQHandler
 427              		.thumb_set USB_IRQHandler,IntDefaultHandler
 428              		.weak	CAN_IRQHandler
 429              		.thumb_set CAN_IRQHandler,IntDefaultHandler
 430              		.weak	DMA_IRQHandler
 431              		.thumb_set DMA_IRQHandler,IntDefaultHandler
 432              		.weak	I2S_IRQHandler
 433              		.thumb_set I2S_IRQHandler,IntDefaultHandler
 434              		.weak	ENET_IRQHandler
 435              		.thumb_set ENET_IRQHandler,IntDefaultHandler
 436              		.weak	RIT_IRQHandler
 437              		.thumb_set RIT_IRQHandler,IntDefaultHandler
 438              		.weak	MCPWM_IRQHandler
 439              		.thumb_set MCPWM_IRQHandler,IntDefaultHandler
 440              		.weak	QEI_IRQHandler
 441              		.thumb_set QEI_IRQHandler,IntDefaultHandler
 442              		.weak	PLL1_IRQHandler
 443              		.thumb_set PLL1_IRQHandler,IntDefaultHandler
 444              		.weak	USBActivity_IRQHandler
 445              		.thumb_set USBActivity_IRQHandler,IntDefaultHandler
 446              		.weak	CANActivity_IRQHandler
 447              		.thumb_set CANActivity_IRQHandler,IntDefaultHandler
 448              		.section	.isr_vector,"a",%progbits
 449              		.align	2
 452              	g_pfnVectors:
 453 0000 00000000 		.word	_vStackTop
 454 0004 00000000 		.word	ResetISR
 455 0008 00000000 		.word	NMI_Handler
 456 000c 00000000 		.word	HardFault_Handler
 457 0010 00000000 		.word	MemManage_Handler
 458 0014 00000000 		.word	BusFault_Handler
 459 0018 00000000 		.word	UsageFault_Handler
 460 001c 00000000 		.word	0
 461 0020 00000000 		.word	0
 462 0024 00000000 		.word	0
 463 0028 00000000 		.word	0
 464 002c 00000000 		.word	vPortSVCHandler
 465 0030 00000000 		.word	DebugMon_Handler
 466 0034 00000000 		.word	0
 467 0038 00000000 		.word	xPortPendSVHandler
 468 003c 00000000 		.word	xPortSysTickHandler
 469 0040 00000000 		.word	WDT_IRQHandler
 470 0044 00000000 		.word	TIMER0_IRQHandler
 471 0048 00000000 		.word	TIMER1_IRQHandler
 472 004c 00000000 		.word	TIMER2_IRQHandler
 473 0050 00000000 		.word	TIMER3_IRQHandler
 474 0054 00000000 		.word	UART0_IRQHandler
 475 0058 00000000 		.word	UART1_IRQHandler
 476 005c 00000000 		.word	UART2_IRQHandler
 477 0060 00000000 		.word	UART3_IRQHandler
 478 0064 00000000 		.word	PWM1_IRQHandler
 479 0068 00000000 		.word	I2C0_IRQHandler
 480 006c 00000000 		.word	I2C1_IRQHandler
 481 0070 00000000 		.word	I2C2_IRQHandler
 482 0074 00000000 		.word	SPI_IRQHandler
 483 0078 00000000 		.word	SSP0_IRQHandler
 484 007c 00000000 		.word	SSP1_IRQHandler
 485 0080 00000000 		.word	PLL0_IRQHandler
 486 0084 00000000 		.word	RTC_IRQHandler
 487 0088 00000000 		.word	EINT0_IRQHandler
 488 008c 00000000 		.word	EINT1_IRQHandler
 489 0090 00000000 		.word	EINT2_IRQHandler
 490 0094 00000000 		.word	EINT3_IRQHandler
 491 0098 00000000 		.word	ADC_IRQHandler
 492 009c 00000000 		.word	BOD_IRQHandler
 493 00a0 00000000 		.word	USB_IRQHandler
 494 00a4 00000000 		.word	CAN_IRQHandler
 495 00a8 00000000 		.word	DMA_IRQHandler
 496 00ac 00000000 		.word	I2S_IRQHandler
 497 00b0 00000000 		.word	ENET_IRQHandler
 498 00b4 00000000 		.word	RIT_IRQHandler
 499 00b8 00000000 		.word	MCPWM_IRQHandler
 500 00bc 00000000 		.word	QEI_IRQHandler
 501 00c0 00000000 		.word	PLL1_IRQHandler
 502 00c4 00000000 		.word	USBActivity_IRQHandler
 503 00c8 00000000 		.word	CANActivity_IRQHandler
 504              		.section	.rodata.str1.1,"aMS",%progbits,1
 505              	.LC0:
 506 0000 44656275 		.ascii	"DebugMon Fault\012\000"
 506      674D6F6E 
 506      20466175 
 506      6C740A00 
 507              	.LC1:
 508 0010 55736167 		.ascii	"Usage Fault\012\000"
 508      65204661 
 508      756C740A 
 508      00
 509              	.LC2:
 510 001d 42555320 		.ascii	"BUS Fault\012\000"
 510      4661756C 
 510      740A00
 511              	.LC3:
 512 0028 4D656D20 		.ascii	"Mem Fault\012\000"
 512      4661756C 
 512      740A00
 513              	.LC4:
 514 0033 4E4D4920 		.ascii	"NMI Fault\012\000"
 514      4661756C 
 514      740A00
 515              	.LC5:
 516 003e 0A537973 		.ascii	"\012System Crash!\000"
 516      74656D20 
 516      43726173 
 516      682100
 517              	.LC6:
 518 004d 52656769 		.ascii	"Registers: 0x%08X, 0x%08X, 0x%08X, 0x%08X, 0x%08X\012"
 518      73746572 
 518      733A2030 
 518      78253038 
 518      582C2030 
 519 007f 00       		.ascii	"\000"
 520              	.LC7:
 521 0080 4C523A20 		.ascii	"LR: 0x%08X, PC: 0x%08X, PSR: 0x%08X\012\000"
 521      30782530 
 521      38582C20 
 521      50433A20 
 521      30782530 
 522              	.LC8:
 523 00a5 6D61696E 		.ascii	"main() exited with return code %i\012\000"
 523      28292065 
 523      78697465 
 523      64207769 
 523      74682072 
 524              	.LC9:
 525 00c8 6D61696E 		.ascii	"main() should never exit on an Embedded System\000"
 525      28292073 
 525      686F756C 
 525      64206E65 
 525      76657220 
 526              	.LC10:
 527 00f7 53564320 		.ascii	"SVC Fault\012\000"
 527      4661756C 
 527      740A00
 528              	.LC11:
 529 0102 50656E64 		.ascii	"Pend SV Fault\012\000"
 529      20535620 
 529      4661756C 
 529      740A00
 530              	.LC12:
 531 0111 53797320 		.ascii	"Sys Tick Fault\012\000"
 531      5469636B 
 531      20466175 
 531      6C740A00 
 532              	.LC13:
 533 0121 556E6578 		.ascii	"Unexpected ISR Fault\012\000"
 533      70656374 
 533      65642049 
 533      53522046 
 533      61756C74 
 534              		.ident	"GCC: (GNU) 4.6.2"