   1              		.syntax unified
   2              		.cpu cortex-m3
   3              		.fpu softvfp
   4              		.eabi_attribute 20, 1
   5              		.eabi_attribute 21, 1
   6              		.eabi_attribute 23, 3
   7              		.eabi_attribute 24, 1
   8              		.eabi_attribute 25, 1
   9              		.eabi_attribute 26, 1
  10              		.eabi_attribute 30, 4
  11              		.eabi_attribute 18, 4
  12              		.thumb
  13              		.file	"uart3.cpp"
  14              		.section	.text._ZN9UartIfaceD2Ev,"axG",%progbits,_ZN9UartIfaceD5Ev,comdat
  15              		.align	1
  16              		.weak	_ZN9UartIfaceD2Ev
  17              		.thumb
  18              		.thumb_func
  20              	_ZN9UartIfaceD2Ev:
  21              		@ args = 0, pretend = 0, frame = 0
  22              		@ frame_needed = 0, uses_anonymous_args = 0
  23              		@ link register save eliminated.
  24 0000 014B     		ldr	r3, .L3
  25 0002 0360     		str	r3, [r0, #0]
  26 0004 7047     		bx	lr
  27              	.L4:
  28 0006 00BF     		.align	2
  29              	.L3:
  30 0008 08000000 		.word	_ZTV9UartIface+8
  32              		.section	.text._ZN5Uart3D2Ev,"axG",%progbits,_ZN5Uart3D5Ev,comdat
  33              		.align	1
  34              		.weak	_ZN5Uart3D2Ev
  35              		.thumb
  36              		.thumb_func
  38              	_ZN5Uart3D2Ev:
  39              		@ args = 0, pretend = 0, frame = 0
  40              		@ frame_needed = 0, uses_anonymous_args = 0
  41              		@ link register save eliminated.
  42 0000 014B     		ldr	r3, .L9
  43 0002 0360     		str	r3, [r0, #0]
  44 0004 7047     		bx	lr
  45              	.L10:
  46 0006 00BF     		.align	2
  47              	.L9:
  48 0008 08000000 		.word	_ZTV9UartIface+8
  50              		.section	.text._ZN9UartIfaceD0Ev,"axG",%progbits,_ZN9UartIfaceD5Ev,comdat
  51              		.align	1
  52              		.weak	_ZN9UartIfaceD0Ev
  53              		.thumb
  54              		.thumb_func
  56              	_ZN9UartIfaceD0Ev:
  57              		@ args = 0, pretend = 0, frame = 0
  58              		@ frame_needed = 0, uses_anonymous_args = 0
  59 0000 034B     		ldr	r3, .L14
  60 0002 10B5     		push	{r4, lr}
  61 0004 0446     		mov	r4, r0
  62 0006 0360     		str	r3, [r0, #0]
  63 0008 FFF7FEFF 		bl	_ZdlPv
  64 000c 2046     		mov	r0, r4
  65 000e 10BD     		pop	{r4, pc}
  66              	.L15:
  67              		.align	2
  68              	.L14:
  69 0010 08000000 		.word	_ZTV9UartIface+8
  71              		.section	.text._ZN5Uart3D0Ev,"axG",%progbits,_ZN5Uart3D5Ev,comdat
  72              		.align	1
  73              		.weak	_ZN5Uart3D0Ev
  74              		.thumb
  75              		.thumb_func
  77              	_ZN5Uart3D0Ev:
  78              		@ args = 0, pretend = 0, frame = 0
  79              		@ frame_needed = 0, uses_anonymous_args = 0
  80 0000 034B     		ldr	r3, .L21
  81 0002 10B5     		push	{r4, lr}
  82 0004 0446     		mov	r4, r0
  83 0006 0360     		str	r3, [r0, #0]
  84 0008 FFF7FEFF 		bl	_ZdlPv
  85 000c 2046     		mov	r0, r4
  86 000e 10BD     		pop	{r4, pc}
  87              	.L22:
  88              		.align	2
  89              	.L21:
  90 0010 08000000 		.word	_ZTV9UartIface+8
  92              		.text
  93              		.align	1
  94              		.global	_ZN5Uart34initEjii
  95              		.thumb
  96              		.thumb_func
  98              	_ZN5Uart34initEjii:
  99              		@ args = 0, pretend = 0, frame = 0
 100              		@ frame_needed = 0, uses_anonymous_args = 0
 101 0000 F7B5     		push	{r0, r1, r2, r4, r5, r6, r7, lr}
 102 0002 1F46     		mov	r7, r3
 103 0004 114B     		ldr	r3, .L24
 104 0006 1446     		mov	r4, r2
 105 0008 5A6A     		ldr	r2, [r3, #36]
 106 000a 0D46     		mov	r5, r1
 107 000c 22F07062 		bic	r2, r2, #251658240
 108 0010 5A62     		str	r2, [r3, #36]
 109 0012 5A6A     		ldr	r2, [r3, #36]
 110 0014 0646     		mov	r6, r0
 111 0016 42F07062 		orr	r2, r2, #251658240
 112 001a 5A62     		str	r2, [r3, #36]
 113 001c 03F55023 		add	r3, r3, #851968
 114 0020 D3F8AC21 		ldr	r2, [r3, #428]
 115 0024 22F44022 		bic	r2, r2, #786432
 116 0028 C3F8AC21 		str	r2, [r3, #428]
 117 002c D3F8AC21 		ldr	r2, [r3, #428]
 118 0030 42F48022 		orr	r2, r2, #262144
 119 0034 C3F8AC21 		str	r2, [r3, #428]
 120 0038 FFF7FEFF 		bl	getCpuClock
 121 003c 2A46     		mov	r2, r5
 122 003e 0146     		mov	r1, r0
 123 0040 2346     		mov	r3, r4
 124 0042 3046     		mov	r0, r6
 125 0044 0097     		str	r7, [sp, #0]
 126 0046 FFF7FEFF 		bl	_ZN9UART_Base4initEjjii
 127 004a FEBD     		pop	{r1, r2, r3, r4, r5, r6, r7, pc}
 128              	.L25:
 129              		.align	2
 130              	.L24:
 131 004c 00C00240 		.word	1073922048
 133              		.align	1
 134              		.global	_ZN5Uart3C2Ev
 135              		.thumb
 136              		.thumb_func
 138              	_ZN5Uart3C2Ev:
 139              		@ args = 0, pretend = 0, frame = 0
 140              		@ frame_needed = 0, uses_anonymous_args = 0
 141 0050 10B5     		push	{r4, lr}
 142 0052 0549     		ldr	r1, .L29
 143 0054 0446     		mov	r4, r0
 144 0056 FFF7FEFF 		bl	_ZN9UART_BaseC2EPj
 145 005a 044B     		ldr	r3, .L29+4
 146 005c 2046     		mov	r0, r4
 147 005e 2360     		str	r3, [r4, #0]
 148 0060 0023     		movs	r3, #0
 149 0062 84F82030 		strb	r3, [r4, #32]
 150 0066 10BD     		pop	{r4, pc}
 151              	.L30:
 152              		.align	2
 153              	.L29:
 154 0068 00C00940 		.word	1074380800
 155 006c 08000000 		.word	_ZTV5Uart3+8
 157              		.align	1
 158              		.global	UART3_IRQHandler
 159              		.thumb
 160              		.thumb_func
 162              	UART3_IRQHandler:
 163              		@ args = 0, pretend = 0, frame = 0
 164              		@ frame_needed = 0, uses_anonymous_args = 0
 165 0070 38B5     		push	{r3, r4, r5, lr}
 166 0072 074C     		ldr	r4, .L33
 167 0074 2368     		ldr	r3, [r4, #0]
 168 0076 33B9     		cbnz	r3, .L32
 169 0078 2420     		movs	r0, #36
 170 007a FFF7FEFF 		bl	_Znwj
 171 007e 0546     		mov	r5, r0
 172 0080 FFF7FEFF 		bl	_ZN5Uart3C1Ev
 173 0084 2560     		str	r5, [r4, #0]
 174              	.L32:
 175 0086 2068     		ldr	r0, [r4, #0]
 176 0088 BDE83840 		pop	{r3, r4, r5, lr}
 177 008c FFF7FEBF 		b	_ZN9UART_Base15handleInterruptEv
 178              	.L34:
 179              		.align	2
 180              	.L33:
 181 0090 00000000 		.word	_ZN17SingletonTemplateI5Uart3E19mpSingletonInstanceE
 183              		.weak	_ZN17SingletonTemplateI5Uart3E19mpSingletonInstanceE
 184              		.section	.bss._ZN17SingletonTemplateI5Uart3E19mpSingletonInstanceE,"awG",%nobits,_ZN17SingletonTem
 185              		.align	2
 188              	_ZN17SingletonTemplateI5Uart3E19mpSingletonInstanceE:
 189 0000 00000000 		.space	4
 190              		.weak	_ZTV5Uart3
 191              		.section	.rodata._ZTV5Uart3,"aG",%progbits,_ZTV5Uart3,comdat
 192              		.align	3
 195              	_ZTV5Uart3:
 196 0000 00000000 		.word	0
 197 0004 00000000 		.word	0
 198 0008 00000000 		.word	_ZNK9UART_Base7getCharEPcj
 199 000c 00000000 		.word	_ZN9UART_Base7putCharEcj
 200 0010 00000000 		.word	_ZN5Uart3D1Ev
 201 0014 00000000 		.word	_ZN5Uart3D0Ev
 202              		.weak	_ZTV9UartIface
 203              		.section	.rodata._ZTV9UartIface,"aG",%progbits,_ZTV9UartIface,comdat
 204              		.align	3
 207              	_ZTV9UartIface:
 208 0000 00000000 		.word	0
 209 0004 00000000 		.word	0
 210 0008 00000000 		.word	__cxa_pure_virtual
 211 000c 00000000 		.word	__cxa_pure_virtual
 212 0010 00000000 		.word	_ZN9UartIfaceD1Ev
 213 0014 00000000 		.word	_ZN9UartIfaceD0Ev
 214              		.weak	_ZN9UartIfaceD1Ev
 215              		.thumb_set _ZN9UartIfaceD1Ev,_ZN9UartIfaceD2Ev
 216              		.weak	_ZN5Uart3D1Ev
 217              		.thumb_set _ZN5Uart3D1Ev,_ZN5Uart3D2Ev
 218              		.global	_ZN5Uart3C1Ev
 219              		.thumb_set _ZN5Uart3C1Ev,_ZN5Uart3C2Ev
 220              		.ident	"GCC: (GNU) 4.6.2"