Archive member included because of file (symbol)

c:/users/montoya/documents/classes/cmpe146/lab/cmpe146package_lpc1758/yagarto/bin/../lib/gcc/arm-none-eabi/4.6.2/../../../../arm-none-eabi/lib/thumb/v7m\libstdc++.a(guard.o)
                              ./L5_Application/source/handlers.o (__cxa_guard_acquire)
c:/users/montoya/documents/classes/cmpe146/lab/cmpe146package_lpc1758/yagarto/bin/../lib/gcc/arm-none-eabi/4.6.2/../../../../arm-none-eabi/lib/thumb/v7m\libstdc++.a(guard_error.o)
                              c:/users/montoya/documents/classes/cmpe146/lab/cmpe146package_lpc1758/yagarto/bin/../lib/gcc/arm-none-eabi/4.6.2/../../../../arm-none-eabi/lib/thumb/v7m\libstdc++.a(guard.o) (typeinfo for __gnu_cxx::recursive_init_error)
c:/users/montoya/documents/classes/cmpe146/lab/cmpe146package_lpc1758/yagarto/bin/../lib/gcc/arm-none-eabi/4.6.2/../../../../arm-none-eabi/lib/thumb/v7m\libstdc++.a(pure.o)
                              ./L5_Application/source/tasks.o (__cxa_pure_virtual)
c:/users/montoya/documents/classes/cmpe146/lab/cmpe146package_lpc1758/yagarto/bin/../lib/gcc/arm-none-eabi/4.6.2/../../../../arm-none-eabi/lib/thumb/v7m\libstdc++.a(si_class_type_info.o)
                              c:/users/montoya/documents/classes/cmpe146/lab/cmpe146package_lpc1758/yagarto/bin/../lib/gcc/arm-none-eabi/4.6.2/../../../../arm-none-eabi/lib/thumb/v7m\libstdc++.a(guard_error.o) (vtable for __cxxabiv1::__si_class_type_info)
c:/users/montoya/documents/classes/cmpe146/lab/cmpe146package_lpc1758/yagarto/bin/../lib/gcc/arm-none-eabi/4.6.2/../../../../arm-none-eabi/lib/thumb/v7m\libstdc++.a(tinfo.o)
                              c:/users/montoya/documents/classes/cmpe146/lab/cmpe146package_lpc1758/yagarto/bin/../lib/gcc/arm-none-eabi/4.6.2/../../../../arm-none-eabi/lib/thumb/v7m\libstdc++.a(si_class_type_info.o) (std::type_info::__is_pointer_p() const)
c:/users/montoya/documents/classes/cmpe146/lab/cmpe146package_lpc1758/yagarto/bin/../lib/gcc/arm-none-eabi/4.6.2/../../../../arm-none-eabi/lib/thumb/v7m\libstdc++.a(class_type_info.o)
                              c:/users/montoya/documents/classes/cmpe146/lab/cmpe146package_lpc1758/yagarto/bin/../lib/gcc/arm-none-eabi/4.6.2/../../../../arm-none-eabi/lib/thumb/v7m\libstdc++.a(si_class_type_info.o) (__cxxabiv1::__class_type_info::__do_upcast(__cxxabiv1::__class_type_info const*, void**) const)
c:/users/montoya/documents/classes/cmpe146/lab/cmpe146package_lpc1758/yagarto/bin/../lib/gcc/arm-none-eabi/4.6.2/../../../../arm-none-eabi/lib/thumb/v7m\libstdc++.a(eh_alloc.o)
                              c:/users/montoya/documents/classes/cmpe146/lab/cmpe146package_lpc1758/yagarto/bin/../lib/gcc/arm-none-eabi/4.6.2/../../../../arm-none-eabi/lib/thumb/v7m\libstdc++.a(guard.o) (__cxa_allocate_exception)
c:/users/montoya/documents/classes/cmpe146/lab/cmpe146package_lpc1758/yagarto/bin/../lib/gcc/arm-none-eabi/4.6.2/../../../../arm-none-eabi/lib/thumb/v7m\libstdc++.a(eh_exception.o)
                              c:/users/montoya/documents/classes/cmpe146/lab/cmpe146package_lpc1758/yagarto/bin/../lib/gcc/arm-none-eabi/4.6.2/../../../../arm-none-eabi/lib/thumb/v7m\libstdc++.a(guard_error.o) (std::exception::~exception())
c:/users/montoya/documents/classes/cmpe146/lab/cmpe146package_lpc1758/yagarto/bin/../lib/gcc/arm-none-eabi/4.6.2/../../../../arm-none-eabi/lib/thumb/v7m\libstdc++.a(eh_globals.o)
                              c:/users/montoya/documents/classes/cmpe146/lab/cmpe146package_lpc1758/yagarto/bin/../lib/gcc/arm-none-eabi/4.6.2/../../../../arm-none-eabi/lib/thumb/v7m\libstdc++.a(eh_alloc.o) (__cxa_get_globals)
c:/users/montoya/documents/classes/cmpe146/lab/cmpe146package_lpc1758/yagarto/bin/../lib/gcc/arm-none-eabi/4.6.2/../../../../arm-none-eabi/lib/thumb/v7m\libstdc++.a(eh_terminate.o)
                              c:/users/montoya/documents/classes/cmpe146/lab/cmpe146package_lpc1758/yagarto/bin/../lib/gcc/arm-none-eabi/4.6.2/../../../../arm-none-eabi/lib/thumb/v7m\libstdc++.a(pure.o) (std::terminate())
c:/users/montoya/documents/classes/cmpe146/lab/cmpe146package_lpc1758/yagarto/bin/../lib/gcc/arm-none-eabi/4.6.2/../../../../arm-none-eabi/lib/thumb/v7m\libstdc++.a(eh_term_handler.o)
                              c:/users/montoya/documents/classes/cmpe146/lab/cmpe146package_lpc1758/yagarto/bin/../lib/gcc/arm-none-eabi/4.6.2/../../../../arm-none-eabi/lib/thumb/v7m\libstdc++.a(eh_terminate.o) (__cxxabiv1::__terminate_handler)
c:/users/montoya/documents/classes/cmpe146/lab/cmpe146package_lpc1758/yagarto/bin/../lib/gcc/arm-none-eabi/4.6.2/../../../../arm-none-eabi/lib/thumb/v7m\libstdc++.a(eh_throw.o)
                              c:/users/montoya/documents/classes/cmpe146/lab/cmpe146package_lpc1758/yagarto/bin/../lib/gcc/arm-none-eabi/4.6.2/../../../../arm-none-eabi/lib/thumb/v7m\libstdc++.a(guard.o) (__cxa_throw)
c:/users/montoya/documents/classes/cmpe146/lab/cmpe146package_lpc1758/yagarto/bin/../lib/gcc/arm-none-eabi/4.6.2/../../../../arm-none-eabi/lib/thumb/v7m\libstdc++.a(eh_unex_handler.o)
                              c:/users/montoya/documents/classes/cmpe146/lab/cmpe146package_lpc1758/yagarto/bin/../lib/gcc/arm-none-eabi/4.6.2/../../../../arm-none-eabi/lib/thumb/v7m\libstdc++.a(eh_terminate.o) (__cxxabiv1::__unexpected_handler)
c:/users/montoya/documents/classes/cmpe146/lab/cmpe146package_lpc1758/yagarto/bin/../lib/gcc/arm-none-eabi/4.6.2/../../../../arm-none-eabi/lib/thumb/v7m\libstdc++.a(eh_arm.o)
                              c:/users/montoya/documents/classes/cmpe146/lab/cmpe146package_lpc1758/yagarto/bin/../lib/gcc/arm-none-eabi/4.6.2/../../../../arm-none-eabi/lib/thumb/v7m\libstdc++.a(eh_terminate.o) (__cxa_end_cleanup)
c:/users/montoya/documents/classes/cmpe146/lab/cmpe146package_lpc1758/yagarto/bin/../lib/gcc/arm-none-eabi/4.6.2/../../../../arm-none-eabi/lib/thumb/v7m\libstdc++.a(eh_aux_runtime.o)
                              c:/users/montoya/documents/classes/cmpe146/lab/cmpe146package_lpc1758/yagarto/bin/../lib/gcc/arm-none-eabi/4.6.2/../../../../arm-none-eabi/lib/thumb/v7m\libstdc++.a(eh_arm.o) (__cxa_bad_typeid)
c:/users/montoya/documents/classes/cmpe146/lab/cmpe146package_lpc1758/yagarto/bin/../lib/gcc/arm-none-eabi/4.6.2/../../../../arm-none-eabi/lib/thumb/v7m\libstdc++.a(eh_call.o)
                              c:/users/montoya/documents/classes/cmpe146/lab/cmpe146package_lpc1758/yagarto/bin/../lib/gcc/arm-none-eabi/4.6.2/../../../../arm-none-eabi/lib/thumb/v7m\libstdc++.a(eh_terminate.o) (__cxa_call_unexpected)
c:/users/montoya/documents/classes/cmpe146/lab/cmpe146package_lpc1758/yagarto/bin/../lib/gcc/arm-none-eabi/4.6.2/../../../../arm-none-eabi/lib/thumb/v7m\libstdc++.a(eh_catch.o)
                              c:/users/montoya/documents/classes/cmpe146/lab/cmpe146package_lpc1758/yagarto/bin/../lib/gcc/arm-none-eabi/4.6.2/../../../../arm-none-eabi/lib/thumb/v7m\libstdc++.a(eh_terminate.o) (__cxa_begin_catch)
c:/users/montoya/documents/classes/cmpe146/lab/cmpe146package_lpc1758/yagarto/bin/../lib/gcc/arm-none-eabi/4.6.2/../../../../arm-none-eabi/lib/thumb/v7m\libstdc++.a(eh_personality.o)
                              c:/users/montoya/documents/classes/cmpe146/lab/cmpe146package_lpc1758/yagarto/bin/../lib/gcc/arm-none-eabi/4.6.2/../../../../arm-none-eabi/lib/thumb/v7m\libstdc++.a(eh_terminate.o) (__gxx_personality_v0)
c:/users/montoya/documents/classes/cmpe146/lab/cmpe146package_lpc1758/yagarto/bin/../lib/gcc/arm-none-eabi/4.6.2/../../../../arm-none-eabi/lib/thumb/v7m\libstdc++.a(fundamental_type_info.o)
                              c:/users/montoya/documents/classes/cmpe146/lab/cmpe146package_lpc1758/yagarto/bin/../lib/gcc/arm-none-eabi/4.6.2/../../../../arm-none-eabi/lib/thumb/v7m\libstdc++.a(eh_arm.o) (typeinfo for void)
c:/users/montoya/documents/classes/cmpe146/lab/cmpe146package_lpc1758/yagarto/bin/../lib/gcc/arm-none-eabi/4.6.2/../../../../arm-none-eabi/lib/thumb/v7m\libstdc++.a(pointer_type_info.o)
                              c:/users/montoya/documents/classes/cmpe146/lab/cmpe146package_lpc1758/yagarto/bin/../lib/gcc/arm-none-eabi/4.6.2/../../../../arm-none-eabi/lib/thumb/v7m\libstdc++.a(fundamental_type_info.o) (vtable for __cxxabiv1::__pointer_type_info)
c:/users/montoya/documents/classes/cmpe146/lab/cmpe146package_lpc1758/yagarto/bin/../lib/gcc/arm-none-eabi/4.6.2/../../../../arm-none-eabi/lib/thumb/v7m\libstdc++.a(bad_cast.o)
                              c:/users/montoya/documents/classes/cmpe146/lab/cmpe146package_lpc1758/yagarto/bin/../lib/gcc/arm-none-eabi/4.6.2/../../../../arm-none-eabi/lib/thumb/v7m\libstdc++.a(eh_aux_runtime.o) (typeinfo for std::bad_cast)
c:/users/montoya/documents/classes/cmpe146/lab/cmpe146package_lpc1758/yagarto/bin/../lib/gcc/arm-none-eabi/4.6.2/../../../../arm-none-eabi/lib/thumb/v7m\libstdc++.a(bad_typeid.o)
                              c:/users/montoya/documents/classes/cmpe146/lab/cmpe146package_lpc1758/yagarto/bin/../lib/gcc/arm-none-eabi/4.6.2/../../../../arm-none-eabi/lib/thumb/v7m\libstdc++.a(eh_aux_runtime.o) (typeinfo for std::bad_typeid)
c:/users/montoya/documents/classes/cmpe146/lab/cmpe146package_lpc1758/yagarto/bin/../lib/gcc/arm-none-eabi/4.6.2/../../../../arm-none-eabi/lib/thumb/v7m\libstdc++.a(pbase_type_info.o)
                              c:/users/montoya/documents/classes/cmpe146/lab/cmpe146package_lpc1758/yagarto/bin/../lib/gcc/arm-none-eabi/4.6.2/../../../../arm-none-eabi/lib/thumb/v7m\libstdc++.a(pointer_type_info.o) (__cxxabiv1::__pbase_type_info::~__pbase_type_info())
c:/users/montoya/documents/classes/cmpe146/lab/cmpe146package_lpc1758/yagarto/bin/../lib/gcc/arm-none-eabi/4.6.2/thumb/v7m\libgcc.a(_arm_addsubdf3.o)
                              ./L5_Application/ServoMotors/servoMotor.o (__aeabi_dadd)
c:/users/montoya/documents/classes/cmpe146/lab/cmpe146package_lpc1758/yagarto/bin/../lib/gcc/arm-none-eabi/4.6.2/thumb/v7m\libgcc.a(_arm_muldivdf3.o)
                              ./L5_Application/ServoMotors/servoMotor.o (__aeabi_dmul)
c:/users/montoya/documents/classes/cmpe146/lab/cmpe146package_lpc1758/yagarto/bin/../lib/gcc/arm-none-eabi/4.6.2/thumb/v7m\libgcc.a(_arm_cmpdf2.o)
                              ./L5_Application/ServoMotors/servoMotor.o (__aeabi_dcmplt)
c:/users/montoya/documents/classes/cmpe146/lab/cmpe146package_lpc1758/yagarto/bin/../lib/gcc/arm-none-eabi/4.6.2/thumb/v7m\libgcc.a(_arm_fixdfsi.o)
                              ./L5_Application/ServoMotors/servoMotor.o (__aeabi_d2iz)
c:/users/montoya/documents/classes/cmpe146/lab/cmpe146package_lpc1758/yagarto/bin/../lib/gcc/arm-none-eabi/4.6.2/thumb/v7m\libgcc.a(_arm_fixunsdfsi.o)
                              ./L5_Application/LightSensors/lightSensors.o (__aeabi_d2uiz)
c:/users/montoya/documents/classes/cmpe146/lab/cmpe146package_lpc1758/yagarto/bin/../lib/gcc/arm-none-eabi/4.6.2/thumb/v7m\libgcc.a(_arm_truncdfsf2.o)
                              ./L4_IO/src/io_source.o (__aeabi_d2f)
c:/users/montoya/documents/classes/cmpe146/lab/cmpe146package_lpc1758/yagarto/bin/../lib/gcc/arm-none-eabi/4.6.2/thumb/v7m\libgcc.a(_arm_addsubsf3.o)
                              ./L5_Application/source/handlers.o (__aeabi_fsub)
c:/users/montoya/documents/classes/cmpe146/lab/cmpe146package_lpc1758/yagarto/bin/../lib/gcc/arm-none-eabi/4.6.2/thumb/v7m\libgcc.a(_arm_muldivsf3.o)
                              ./L5_Application/source/handlers.o (__aeabi_fmul)
c:/users/montoya/documents/classes/cmpe146/lab/cmpe146package_lpc1758/yagarto/bin/../lib/gcc/arm-none-eabi/4.6.2/thumb/v7m\libgcc.a(_arm_cmpsf2.o)
                              ./L4_IO/src/io_source.o (__aeabi_fcmpgt)
c:/users/montoya/documents/classes/cmpe146/lab/cmpe146package_lpc1758/yagarto/bin/../lib/gcc/arm-none-eabi/4.6.2/thumb/v7m\libgcc.a(_arm_fixsfsi.o)
                              ./L5_Application/source/handlers.o (__aeabi_f2iz)
c:/users/montoya/documents/classes/cmpe146/lab/cmpe146package_lpc1758/yagarto/bin/../lib/gcc/arm-none-eabi/4.6.2/thumb/v7m\libgcc.a(unwind-arm.o)
                              c:/users/montoya/documents/classes/cmpe146/lab/cmpe146package_lpc1758/yagarto/bin/../lib/gcc/arm-none-eabi/4.6.2/../../../../arm-none-eabi/lib/thumb/v7m\libstdc++.a(si_class_type_info.o) (__aeabi_unwind_cpp_pr0)
c:/users/montoya/documents/classes/cmpe146/lab/cmpe146package_lpc1758/yagarto/bin/../lib/gcc/arm-none-eabi/4.6.2/thumb/v7m\libgcc.a(libunwind.o)
                              c:/users/montoya/documents/classes/cmpe146/lab/cmpe146package_lpc1758/yagarto/bin/../lib/gcc/arm-none-eabi/4.6.2/thumb/v7m\libgcc.a(unwind-arm.o) (restore_core_regs)
c:/users/montoya/documents/classes/cmpe146/lab/cmpe146package_lpc1758/yagarto/bin/../lib/gcc/arm-none-eabi/4.6.2/thumb/v7m\libgcc.a(pr-support.o)
                              c:/users/montoya/documents/classes/cmpe146/lab/cmpe146package_lpc1758/yagarto/bin/../lib/gcc/arm-none-eabi/4.6.2/thumb/v7m\libgcc.a(unwind-arm.o) (__gnu_unwind_execute)
c:/users/montoya/documents/classes/cmpe146/lab/cmpe146package_lpc1758/yagarto/bin/../lib/gcc/arm-none-eabi/4.6.2/../../../../arm-none-eabi/lib/thumb/v7m\libc.a(lib_a-abort.o)
                              c:/users/montoya/documents/classes/cmpe146/lab/cmpe146package_lpc1758/yagarto/bin/../lib/gcc/arm-none-eabi/4.6.2/../../../../arm-none-eabi/lib/thumb/v7m\libstdc++.a(eh_terminate.o) (abort)
c:/users/montoya/documents/classes/cmpe146/lab/cmpe146package_lpc1758/yagarto/bin/../lib/gcc/arm-none-eabi/4.6.2/../../../../arm-none-eabi/lib/thumb/v7m\libc.a(lib_a-assert.o)
                              ./L3_Utils/tlm/src/c_list.o (__assert_func)
c:/users/montoya/documents/classes/cmpe146/lab/cmpe146package_lpc1758/yagarto/bin/../lib/gcc/arm-none-eabi/4.6.2/../../../../arm-none-eabi/lib/thumb/v7m\libc.a(lib_a-atoi.o)
                              ./L3_Utils/src/str.o (atoi)
c:/users/montoya/documents/classes/cmpe146/lab/cmpe146package_lpc1758/yagarto/bin/../lib/gcc/arm-none-eabi/4.6.2/../../../../arm-none-eabi/lib/thumb/v7m\libc.a(lib_a-fiprintf.o)
                              c:/users/montoya/documents/classes/cmpe146/lab/cmpe146package_lpc1758/yagarto/bin/../lib/gcc/arm-none-eabi/4.6.2/../../../../arm-none-eabi/lib/thumb/v7m\libc.a(lib_a-assert.o) (fiprintf)
c:/users/montoya/documents/classes/cmpe146/lab/cmpe146package_lpc1758/yagarto/bin/../lib/gcc/arm-none-eabi/4.6.2/../../../../arm-none-eabi/lib/thumb/v7m\libc.a(lib_a-impure.o)
                              ./L5_Application/source/tasks.o (_impure_ptr)
c:/users/montoya/documents/classes/cmpe146/lab/cmpe146package_lpc1758/yagarto/bin/../lib/gcc/arm-none-eabi/4.6.2/../../../../arm-none-eabi/lib/thumb/v7m\libc.a(lib_a-init.o)
                              ./L0_LowLevel/source/cr_startup_lpc175x.o (__libc_init_array)
c:/users/montoya/documents/classes/cmpe146/lab/cmpe146package_lpc1758/yagarto/bin/../lib/gcc/arm-none-eabi/4.6.2/../../../../arm-none-eabi/lib/thumb/v7m\libc.a(lib_a-isalnum.o)
                              ./L3_Utils/src/str.o (isalnum)
c:/users/montoya/documents/classes/cmpe146/lab/cmpe146package_lpc1758/yagarto/bin/../lib/gcc/arm-none-eabi/4.6.2/../../../../arm-none-eabi/lib/thumb/v7m\libc.a(lib_a-isalpha.o)
                              ./L3_Utils/src/str.o (isalpha)
c:/users/montoya/documents/classes/cmpe146/lab/cmpe146package_lpc1758/yagarto/bin/../lib/gcc/arm-none-eabi/4.6.2/../../../../arm-none-eabi/lib/thumb/v7m\libc.a(lib_a-malloc.o)
                              ./newlib/memory.o (malloc)
c:/users/montoya/documents/classes/cmpe146/lab/cmpe146package_lpc1758/yagarto/bin/../lib/gcc/arm-none-eabi/4.6.2/../../../../arm-none-eabi/lib/thumb/v7m\libc.a(lib_a-mallocr.o)
                              c:/users/montoya/documents/classes/cmpe146/lab/cmpe146package_lpc1758/yagarto/bin/../lib/gcc/arm-none-eabi/4.6.2/../../../../arm-none-eabi/lib/thumb/v7m\libc.a(lib_a-malloc.o) (_malloc_r)
c:/users/montoya/documents/classes/cmpe146/lab/cmpe146package_lpc1758/yagarto/bin/../lib/gcc/arm-none-eabi/4.6.2/../../../../arm-none-eabi/lib/thumb/v7m\libc.a(lib_a-memcmp.o)
                              ./L1_FreeRTOS/src/tasks.o (memcmp)
c:/users/montoya/documents/classes/cmpe146/lab/cmpe146package_lpc1758/yagarto/bin/../lib/gcc/arm-none-eabi/4.6.2/../../../../arm-none-eabi/lib/thumb/v7m\libc.a(lib_a-memcpy.o)
                              ./L3_Utils/src/logger.o (memcpy)
c:/users/montoya/documents/classes/cmpe146/lab/cmpe146package_lpc1758/yagarto/bin/../lib/gcc/arm-none-eabi/4.6.2/../../../../arm-none-eabi/lib/thumb/v7m\libc.a(lib_a-memmove.o)
                              ./L3_Utils/src/str.o (memmove)
c:/users/montoya/documents/classes/cmpe146/lab/cmpe146package_lpc1758/yagarto/bin/../lib/gcc/arm-none-eabi/4.6.2/../../../../arm-none-eabi/lib/thumb/v7m\libc.a(lib_a-memset.o)
                              ./L5_Application/source/handlers.o (memset)
c:/users/montoya/documents/classes/cmpe146/lab/cmpe146package_lpc1758/yagarto/bin/../lib/gcc/arm-none-eabi/4.6.2/../../../../arm-none-eabi/lib/thumb/v7m\libc.a(lib_a-mlock.o)
                              c:/users/montoya/documents/classes/cmpe146/lab/cmpe146package_lpc1758/yagarto/bin/../lib/gcc/arm-none-eabi/4.6.2/../../../../arm-none-eabi/lib/thumb/v7m\libc.a(lib_a-mallocr.o) (__malloc_lock)
c:/users/montoya/documents/classes/cmpe146/lab/cmpe146package_lpc1758/yagarto/bin/../lib/gcc/arm-none-eabi/4.6.2/../../../../arm-none-eabi/lib/thumb/v7m\libc.a(lib_a-mstats.o)
                              ./newlib/memory.o (mallinfo)
c:/users/montoya/documents/classes/cmpe146/lab/cmpe146package_lpc1758/yagarto/bin/../lib/gcc/arm-none-eabi/4.6.2/../../../../arm-none-eabi/lib/thumb/v7m\libc.a(lib_a-puts.o)
                              ./L5_Application/source/high_level_init.o (puts)
c:/users/montoya/documents/classes/cmpe146/lab/cmpe146package_lpc1758/yagarto/bin/../lib/gcc/arm-none-eabi/4.6.2/../../../../arm-none-eabi/lib/thumb/v7m\libc.a(lib_a-realloc.o)
                              ./L5_Application/source/tasks.o (realloc)
c:/users/montoya/documents/classes/cmpe146/lab/cmpe146package_lpc1758/yagarto/bin/../lib/gcc/arm-none-eabi/4.6.2/../../../../arm-none-eabi/lib/thumb/v7m\libc.a(lib_a-reallocr.o)
                              c:/users/montoya/documents/classes/cmpe146/lab/cmpe146package_lpc1758/yagarto/bin/../lib/gcc/arm-none-eabi/4.6.2/../../../../arm-none-eabi/lib/thumb/v7m\libc.a(lib_a-realloc.o) (_realloc_r)
c:/users/montoya/documents/classes/cmpe146/lab/cmpe146package_lpc1758/yagarto/bin/../lib/gcc/arm-none-eabi/4.6.2/../../../../arm-none-eabi/lib/thumb/v7m\libc.a(lib_a-sbrkr.o)
                              c:/users/montoya/documents/classes/cmpe146/lab/cmpe146package_lpc1758/yagarto/bin/../lib/gcc/arm-none-eabi/4.6.2/../../../../arm-none-eabi/lib/thumb/v7m\libc.a(lib_a-mallocr.o) (_sbrk_r)
c:/users/montoya/documents/classes/cmpe146/lab/cmpe146package_lpc1758/yagarto/bin/../lib/gcc/arm-none-eabi/4.6.2/../../../../arm-none-eabi/lib/thumb/v7m\libc.a(lib_a-setvbuf.o)
                              ./L0_LowLevel/source/system_init.o (setvbuf)
c:/users/montoya/documents/classes/cmpe146/lab/cmpe146package_lpc1758/yagarto/bin/../lib/gcc/arm-none-eabi/4.6.2/../../../../arm-none-eabi/lib/thumb/v7m\libc.a(lib_a-signal.o)
                              c:/users/montoya/documents/classes/cmpe146/lab/cmpe146package_lpc1758/yagarto/bin/../lib/gcc/arm-none-eabi/4.6.2/../../../../arm-none-eabi/lib/thumb/v7m\libc.a(lib_a-abort.o) (raise)
c:/users/montoya/documents/classes/cmpe146/lab/cmpe146package_lpc1758/yagarto/bin/../lib/gcc/arm-none-eabi/4.6.2/../../../../arm-none-eabi/lib/thumb/v7m\libc.a(lib_a-signalr.o)
                              c:/users/montoya/documents/classes/cmpe146/lab/cmpe146package_lpc1758/yagarto/bin/../lib/gcc/arm-none-eabi/4.6.2/../../../../arm-none-eabi/lib/thumb/v7m\libc.a(lib_a-signal.o) (_kill_r)
c:/users/montoya/documents/classes/cmpe146/lab/cmpe146package_lpc1758/yagarto/bin/../lib/gcc/arm-none-eabi/4.6.2/../../../../arm-none-eabi/lib/thumb/v7m\libc.a(lib_a-siprintf.o)
                              ./L2_Drivers/src/rtc.o (siprintf)
c:/users/montoya/documents/classes/cmpe146/lab/cmpe146package_lpc1758/yagarto/bin/../lib/gcc/arm-none-eabi/4.6.2/../../../../arm-none-eabi/lib/thumb/v7m\libc.a(lib_a-strcasecmp.o)
                              ./L3_Utils/src/str.o (strcasecmp)
c:/users/montoya/documents/classes/cmpe146/lab/cmpe146package_lpc1758/yagarto/bin/../lib/gcc/arm-none-eabi/4.6.2/../../../../arm-none-eabi/lib/thumb/v7m\libc.a(lib_a-strcat.o)
                              ./L5_Application/source/handlers.o (strcat)
c:/users/montoya/documents/classes/cmpe146/lab/cmpe146package_lpc1758/yagarto/bin/../lib/gcc/arm-none-eabi/4.6.2/../../../../arm-none-eabi/lib/thumb/v7m\libc.a(lib_a-strchr.o)
                              ./L3_Utils/src/str.o (strchr)
c:/users/montoya/documents/classes/cmpe146/lab/cmpe146package_lpc1758/yagarto/bin/../lib/gcc/arm-none-eabi/4.6.2/../../../../arm-none-eabi/lib/thumb/v7m\libc.a(lib_a-strcmp.o)
                              ./L3_Utils/src/str.o (strcmp)
c:/users/montoya/documents/classes/cmpe146/lab/cmpe146package_lpc1758/yagarto/bin/../lib/gcc/arm-none-eabi/4.6.2/../../../../arm-none-eabi/lib/thumb/v7m\libc.a(lib_a-strcpy.o)
                              ./L5_Application/source/handlers.o (strcpy)
c:/users/montoya/documents/classes/cmpe146/lab/cmpe146package_lpc1758/yagarto/bin/../lib/gcc/arm-none-eabi/4.6.2/../../../../arm-none-eabi/lib/thumb/v7m\libc.a(lib_a-strlen.o)
                              ./L3_Utils/src/command_handler.o (strlen)
c:/users/montoya/documents/classes/cmpe146/lab/cmpe146package_lpc1758/yagarto/bin/../lib/gcc/arm-none-eabi/4.6.2/../../../../arm-none-eabi/lib/thumb/v7m\libc.a(lib_a-strncasecmp.o)
                              ./L3_Utils/src/str.o (strncasecmp)
c:/users/montoya/documents/classes/cmpe146/lab/cmpe146package_lpc1758/yagarto/bin/../lib/gcc/arm-none-eabi/4.6.2/../../../../arm-none-eabi/lib/thumb/v7m\libc.a(lib_a-strncmp.o)
                              ./L3_Utils/src/str.o (strncmp)
c:/users/montoya/documents/classes/cmpe146/lab/cmpe146package_lpc1758/yagarto/bin/../lib/gcc/arm-none-eabi/4.6.2/../../../../arm-none-eabi/lib/thumb/v7m\libc.a(lib_a-strncpy.o)
                              ./L3_Utils/src/str.o (strncpy)
c:/users/montoya/documents/classes/cmpe146/lab/cmpe146package_lpc1758/yagarto/bin/../lib/gcc/arm-none-eabi/4.6.2/../../../../arm-none-eabi/lib/thumb/v7m\libc.a(lib_a-strpbrk.o)
                              ./L3_Utils/src/str.o (strpbrk)
c:/users/montoya/documents/classes/cmpe146/lab/cmpe146package_lpc1758/yagarto/bin/../lib/gcc/arm-none-eabi/4.6.2/../../../../arm-none-eabi/lib/thumb/v7m\libc.a(lib_a-strrchr.o)
                              ./L3_Utils/src/logger.o (strrchr)
c:/users/montoya/documents/classes/cmpe146/lab/cmpe146package_lpc1758/yagarto/bin/../lib/gcc/arm-none-eabi/4.6.2/../../../../arm-none-eabi/lib/thumb/v7m\libc.a(lib_a-strstr.o)
                              ./L3_Utils/src/str.o (strstr)
c:/users/montoya/documents/classes/cmpe146/lab/cmpe146package_lpc1758/yagarto/bin/../lib/gcc/arm-none-eabi/4.6.2/../../../../arm-none-eabi/lib/thumb/v7m\libc.a(lib_a-strtol.o)
                              c:/users/montoya/documents/classes/cmpe146/lab/cmpe146package_lpc1758/yagarto/bin/../lib/gcc/arm-none-eabi/4.6.2/../../../../arm-none-eabi/lib/thumb/v7m\libc.a(lib_a-atoi.o) (_strtol_r)
c:/users/montoya/documents/classes/cmpe146/lab/cmpe146package_lpc1758/yagarto/bin/../lib/gcc/arm-none-eabi/4.6.2/../../../../arm-none-eabi/lib/thumb/v7m\libc.a(lib_a-svfiprintf.o)
                              c:/users/montoya/documents/classes/cmpe146/lab/cmpe146package_lpc1758/yagarto/bin/../lib/gcc/arm-none-eabi/4.6.2/../../../../arm-none-eabi/lib/thumb/v7m\libc.a(lib_a-siprintf.o) (_svfiprintf_r)
c:/users/montoya/documents/classes/cmpe146/lab/cmpe146package_lpc1758/yagarto/bin/../lib/gcc/arm-none-eabi/4.6.2/../../../../arm-none-eabi/lib/thumb/v7m\libc.a(lib_a-syswrite.o)
                              c:/users/montoya/documents/classes/cmpe146/lab/cmpe146package_lpc1758/yagarto/bin/../lib/gcc/arm-none-eabi/4.6.2/../../../../arm-none-eabi/lib/thumb/v7m\libstdc++.a(pure.o) (write)
c:/users/montoya/documents/classes/cmpe146/lab/cmpe146package_lpc1758/yagarto/bin/../lib/gcc/arm-none-eabi/4.6.2/../../../../arm-none-eabi/lib/thumb/v7m\libc.a(lib_a-tolower.o)
                              ./L3_Utils/src/str.o (tolower)
c:/users/montoya/documents/classes/cmpe146/lab/cmpe146package_lpc1758/yagarto/bin/../lib/gcc/arm-none-eabi/4.6.2/../../../../arm-none-eabi/lib/thumb/v7m\libc.a(lib_a-toupper.o)
                              ./L3_Utils/src/str.o (toupper)
c:/users/montoya/documents/classes/cmpe146/lab/cmpe146package_lpc1758/yagarto/bin/../lib/gcc/arm-none-eabi/4.6.2/../../../../arm-none-eabi/lib/thumb/v7m\libc.a(lib_a-vfiprintf.o)
                              c:/users/montoya/documents/classes/cmpe146/lab/cmpe146package_lpc1758/yagarto/bin/../lib/gcc/arm-none-eabi/4.6.2/../../../../arm-none-eabi/lib/thumb/v7m\libc.a(lib_a-fiprintf.o) (_vfiprintf_r)
c:/users/montoya/documents/classes/cmpe146/lab/cmpe146package_lpc1758/yagarto/bin/../lib/gcc/arm-none-eabi/4.6.2/../../../../arm-none-eabi/lib/thumb/v7m\libc.a(lib_a-viprintf.o)
                              ./newlib/printf_lib.o (viprintf)
c:/users/montoya/documents/classes/cmpe146/lab/cmpe146package_lpc1758/yagarto/bin/../lib/gcc/arm-none-eabi/4.6.2/../../../../arm-none-eabi/lib/thumb/v7m\libc.a(lib_a-vsiprintf.o)
                              ./newlib/printf_lib.o (vsiprintf)
c:/users/montoya/documents/classes/cmpe146/lab/cmpe146package_lpc1758/yagarto/bin/../lib/gcc/arm-none-eabi/4.6.2/../../../../arm-none-eabi/lib/thumb/v7m\libc.a(lib_a-vsiscanf.o)
                              ./L3_Utils/src/str.o (vsiscanf)
c:/users/montoya/documents/classes/cmpe146/lab/cmpe146package_lpc1758/yagarto/bin/../lib/gcc/arm-none-eabi/4.6.2/../../../../arm-none-eabi/lib/thumb/v7m\libc.a(lib_a-vsniprintf.o)
                              ./L3_Utils/src/file_logger.o (vsniprintf)
c:/users/montoya/documents/classes/cmpe146/lab/cmpe146package_lpc1758/yagarto/bin/../lib/gcc/arm-none-eabi/4.6.2/../../../../arm-none-eabi/lib/thumb/v7m\libc.a(lib_a-vsnprintf.o)
                              ./L3_Utils/src/logger.o (vsnprintf)
c:/users/montoya/documents/classes/cmpe146/lab/cmpe146package_lpc1758/yagarto/bin/../lib/gcc/arm-none-eabi/4.6.2/../../../../arm-none-eabi/lib/thumb/v7m\libc.a(lib_a-wbuf.o)
                              ./L5_Application/source/tasks.o (__swbuf_r)
c:/users/montoya/documents/classes/cmpe146/lab/cmpe146package_lpc1758/yagarto/bin/../lib/gcc/arm-none-eabi/4.6.2/../../../../arm-none-eabi/lib/thumb/v7m\libc.a(lib_a-writer.o)
                              c:/users/montoya/documents/classes/cmpe146/lab/cmpe146package_lpc1758/yagarto/bin/../lib/gcc/arm-none-eabi/4.6.2/../../../../arm-none-eabi/lib/thumb/v7m\libc.a(lib_a-syswrite.o) (_write_r)
c:/users/montoya/documents/classes/cmpe146/lab/cmpe146package_lpc1758/yagarto/bin/../lib/gcc/arm-none-eabi/4.6.2/../../../../arm-none-eabi/lib/thumb/v7m\libc.a(lib_a-wsetup.o)
                              c:/users/montoya/documents/classes/cmpe146/lab/cmpe146package_lpc1758/yagarto/bin/../lib/gcc/arm-none-eabi/4.6.2/../../../../arm-none-eabi/lib/thumb/v7m\libc.a(lib_a-vfiprintf.o) (__swsetup_r)
c:/users/montoya/documents/classes/cmpe146/lab/cmpe146package_lpc1758/yagarto/bin/../lib/gcc/arm-none-eabi/4.6.2/../../../../arm-none-eabi/lib/thumb/v7m\libc.a(lib_a-ctype_.o)
                              c:/users/montoya/documents/classes/cmpe146/lab/cmpe146package_lpc1758/yagarto/bin/../lib/gcc/arm-none-eabi/4.6.2/../../../../arm-none-eabi/lib/thumb/v7m\libc.a(lib_a-isalnum.o) (__ctype_ptr__)
c:/users/montoya/documents/classes/cmpe146/lab/cmpe146package_lpc1758/yagarto/bin/../lib/gcc/arm-none-eabi/4.6.2/../../../../arm-none-eabi/lib/thumb/v7m\libc.a(lib_a-fflush.o)
                              c:/users/montoya/documents/classes/cmpe146/lab/cmpe146package_lpc1758/yagarto/bin/../lib/gcc/arm-none-eabi/4.6.2/../../../../arm-none-eabi/lib/thumb/v7m\libc.a(lib_a-setvbuf.o) (_fflush_r)
c:/users/montoya/documents/classes/cmpe146/lab/cmpe146package_lpc1758/yagarto/bin/../lib/gcc/arm-none-eabi/4.6.2/../../../../arm-none-eabi/lib/thumb/v7m\libc.a(lib_a-findfp.o)
                              c:/users/montoya/documents/classes/cmpe146/lab/cmpe146package_lpc1758/yagarto/bin/../lib/gcc/arm-none-eabi/4.6.2/../../../../arm-none-eabi/lib/thumb/v7m\libc.a(lib_a-setvbuf.o) (_cleanup_r)
c:/users/montoya/documents/classes/cmpe146/lab/cmpe146package_lpc1758/yagarto/bin/../lib/gcc/arm-none-eabi/4.6.2/../../../../arm-none-eabi/lib/thumb/v7m\libc.a(lib_a-fputwc.o)
                              c:/users/montoya/documents/classes/cmpe146/lab/cmpe146package_lpc1758/yagarto/bin/../lib/gcc/arm-none-eabi/4.6.2/../../../../arm-none-eabi/lib/thumb/v7m\libc.a(lib_a-vfiprintf.o) (_fputwc_r)
c:/users/montoya/documents/classes/cmpe146/lab/cmpe146package_lpc1758/yagarto/bin/../lib/gcc/arm-none-eabi/4.6.2/../../../../arm-none-eabi/lib/thumb/v7m\libc.a(lib_a-freer.o)
                              c:/users/montoya/documents/classes/cmpe146/lab/cmpe146package_lpc1758/yagarto/bin/../lib/gcc/arm-none-eabi/4.6.2/../../../../arm-none-eabi/lib/thumb/v7m\libc.a(lib_a-malloc.o) (_free_r)
c:/users/montoya/documents/classes/cmpe146/lab/cmpe146package_lpc1758/yagarto/bin/../lib/gcc/arm-none-eabi/4.6.2/../../../../arm-none-eabi/lib/thumb/v7m\libc.a(lib_a-fvwrite.o)
                              c:/users/montoya/documents/classes/cmpe146/lab/cmpe146package_lpc1758/yagarto/bin/../lib/gcc/arm-none-eabi/4.6.2/../../../../arm-none-eabi/lib/thumb/v7m\libc.a(lib_a-puts.o) (__sfvwrite_r)
c:/users/montoya/documents/classes/cmpe146/lab/cmpe146package_lpc1758/yagarto/bin/../lib/gcc/arm-none-eabi/4.6.2/../../../../arm-none-eabi/lib/thumb/v7m\libc.a(lib_a-fwalk.o)
                              c:/users/montoya/documents/classes/cmpe146/lab/cmpe146package_lpc1758/yagarto/bin/../lib/gcc/arm-none-eabi/4.6.2/../../../../arm-none-eabi/lib/thumb/v7m\libc.a(lib_a-findfp.o) (_fwalk)
c:/users/montoya/documents/classes/cmpe146/lab/cmpe146package_lpc1758/yagarto/bin/../lib/gcc/arm-none-eabi/4.6.2/../../../../arm-none-eabi/lib/thumb/v7m\libc.a(lib_a-locale.o)
                              c:/users/montoya/documents/classes/cmpe146/lab/cmpe146package_lpc1758/yagarto/bin/../lib/gcc/arm-none-eabi/4.6.2/../../../../arm-none-eabi/lib/thumb/v7m\libc.a(lib_a-fputwc.o) (__locale_mb_cur_max)
c:/users/montoya/documents/classes/cmpe146/lab/cmpe146package_lpc1758/yagarto/bin/../lib/gcc/arm-none-eabi/4.6.2/../../../../arm-none-eabi/lib/thumb/v7m\libc.a(lib_a-makebuf.o)
                              c:/users/montoya/documents/classes/cmpe146/lab/cmpe146package_lpc1758/yagarto/bin/../lib/gcc/arm-none-eabi/4.6.2/../../../../arm-none-eabi/lib/thumb/v7m\libc.a(lib_a-wsetup.o) (__smakebuf_r)
c:/users/montoya/documents/classes/cmpe146/lab/cmpe146package_lpc1758/yagarto/bin/../lib/gcc/arm-none-eabi/4.6.2/../../../../arm-none-eabi/lib/thumb/v7m\libc.a(lib_a-mallinfor.o)
                              c:/users/montoya/documents/classes/cmpe146/lab/cmpe146package_lpc1758/yagarto/bin/../lib/gcc/arm-none-eabi/4.6.2/../../../../arm-none-eabi/lib/thumb/v7m\libc.a(lib_a-mstats.o) (_mallinfo_r)
c:/users/montoya/documents/classes/cmpe146/lab/cmpe146package_lpc1758/yagarto/bin/../lib/gcc/arm-none-eabi/4.6.2/../../../../arm-none-eabi/lib/thumb/v7m\libc.a(lib_a-malloptr.o)
                              c:/users/montoya/documents/classes/cmpe146/lab/cmpe146package_lpc1758/yagarto/bin/../lib/gcc/arm-none-eabi/4.6.2/../../../../arm-none-eabi/lib/thumb/v7m\libc.a(lib_a-mstats.o) (_mallopt_r)
c:/users/montoya/documents/classes/cmpe146/lab/cmpe146package_lpc1758/yagarto/bin/../lib/gcc/arm-none-eabi/4.6.2/../../../../arm-none-eabi/lib/thumb/v7m\libc.a(lib_a-mallstatsr.o)
                              c:/users/montoya/documents/classes/cmpe146/lab/cmpe146package_lpc1758/yagarto/bin/../lib/gcc/arm-none-eabi/4.6.2/../../../../arm-none-eabi/lib/thumb/v7m\libc.a(lib_a-mstats.o) (_malloc_stats_r)
c:/users/montoya/documents/classes/cmpe146/lab/cmpe146package_lpc1758/yagarto/bin/../lib/gcc/arm-none-eabi/4.6.2/../../../../arm-none-eabi/lib/thumb/v7m\libc.a(lib_a-memchr.o)
                              c:/users/montoya/documents/classes/cmpe146/lab/cmpe146package_lpc1758/yagarto/bin/../lib/gcc/arm-none-eabi/4.6.2/../../../../arm-none-eabi/lib/thumb/v7m\libc.a(lib_a-strstr.o) (memchr)
c:/users/montoya/documents/classes/cmpe146/lab/cmpe146package_lpc1758/yagarto/bin/../lib/gcc/arm-none-eabi/4.6.2/../../../../arm-none-eabi/lib/thumb/v7m\libc.a(lib_a-reent.o)
                              c:/users/montoya/documents/classes/cmpe146/lab/cmpe146package_lpc1758/yagarto/bin/../lib/gcc/arm-none-eabi/4.6.2/../../../../arm-none-eabi/lib/thumb/v7m\libc.a(lib_a-sbrkr.o) (errno)
c:/users/montoya/documents/classes/cmpe146/lab/cmpe146package_lpc1758/yagarto/bin/../lib/gcc/arm-none-eabi/4.6.2/../../../../arm-none-eabi/lib/thumb/v7m\libc.a(lib_a-stdio.o)
                              c:/users/montoya/documents/classes/cmpe146/lab/cmpe146package_lpc1758/yagarto/bin/../lib/gcc/arm-none-eabi/4.6.2/../../../../arm-none-eabi/lib/thumb/v7m\libc.a(lib_a-findfp.o) (__sread)
c:/users/montoya/documents/classes/cmpe146/lab/cmpe146package_lpc1758/yagarto/bin/../lib/gcc/arm-none-eabi/4.6.2/../../../../arm-none-eabi/lib/thumb/v7m\libc.a(lib_a-svfiscanf.o)
                              c:/users/montoya/documents/classes/cmpe146/lab/cmpe146package_lpc1758/yagarto/bin/../lib/gcc/arm-none-eabi/4.6.2/../../../../arm-none-eabi/lib/thumb/v7m\libc.a(lib_a-vsiscanf.o) (__ssvfiscanf_r)
c:/users/montoya/documents/classes/cmpe146/lab/cmpe146package_lpc1758/yagarto/bin/../lib/gcc/arm-none-eabi/4.6.2/../../../../arm-none-eabi/lib/thumb/v7m\libc.a(lib_a-svfprintf.o)
                              c:/users/montoya/documents/classes/cmpe146/lab/cmpe146package_lpc1758/yagarto/bin/../lib/gcc/arm-none-eabi/4.6.2/../../../../arm-none-eabi/lib/thumb/v7m\libc.a(lib_a-vsnprintf.o) (_svfprintf_r)
c:/users/montoya/documents/classes/cmpe146/lab/cmpe146package_lpc1758/yagarto/bin/../lib/gcc/arm-none-eabi/4.6.2/../../../../arm-none-eabi/lib/thumb/v7m\libc.a(lib_a-ungetc.o)
                              c:/users/montoya/documents/classes/cmpe146/lab/cmpe146package_lpc1758/yagarto/bin/../lib/gcc/arm-none-eabi/4.6.2/../../../../arm-none-eabi/lib/thumb/v7m\libc.a(lib_a-svfiscanf.o) (__submore)
c:/users/montoya/documents/classes/cmpe146/lab/cmpe146package_lpc1758/yagarto/bin/../lib/gcc/arm-none-eabi/4.6.2/../../../../arm-none-eabi/lib/thumb/v7m\libc.a(lib_a-wcrtomb.o)
                              c:/users/montoya/documents/classes/cmpe146/lab/cmpe146package_lpc1758/yagarto/bin/../lib/gcc/arm-none-eabi/4.6.2/../../../../arm-none-eabi/lib/thumb/v7m\libc.a(lib_a-fputwc.o) (_wcrtomb_r)
c:/users/montoya/documents/classes/cmpe146/lab/cmpe146package_lpc1758/yagarto/bin/../lib/gcc/arm-none-eabi/4.6.2/../../../../arm-none-eabi/lib/thumb/v7m\libc.a(lib_a-wctomb_r.o)
                              c:/users/montoya/documents/classes/cmpe146/lab/cmpe146package_lpc1758/yagarto/bin/../lib/gcc/arm-none-eabi/4.6.2/../../../../arm-none-eabi/lib/thumb/v7m\libc.a(lib_a-wcrtomb.o) (__wctomb)
c:/users/montoya/documents/classes/cmpe146/lab/cmpe146package_lpc1758/yagarto/bin/../lib/gcc/arm-none-eabi/4.6.2/../../../../arm-none-eabi/lib/thumb/v7m\libc.a(lib_a-closer.o)
                              c:/users/montoya/documents/classes/cmpe146/lab/cmpe146package_lpc1758/yagarto/bin/../lib/gcc/arm-none-eabi/4.6.2/../../../../arm-none-eabi/lib/thumb/v7m\libc.a(lib_a-stdio.o) (_close_r)
c:/users/montoya/documents/classes/cmpe146/lab/cmpe146package_lpc1758/yagarto/bin/../lib/gcc/arm-none-eabi/4.6.2/../../../../arm-none-eabi/lib/thumb/v7m\libc.a(lib_a-dtoa.o)
                              c:/users/montoya/documents/classes/cmpe146/lab/cmpe146package_lpc1758/yagarto/bin/../lib/gcc/arm-none-eabi/4.6.2/../../../../arm-none-eabi/lib/thumb/v7m\libc.a(lib_a-svfprintf.o) (_dtoa_r)
c:/users/montoya/documents/classes/cmpe146/lab/cmpe146package_lpc1758/yagarto/bin/../lib/gcc/arm-none-eabi/4.6.2/../../../../arm-none-eabi/lib/thumb/v7m\libc.a(lib_a-fclose.o)
                              c:/users/montoya/documents/classes/cmpe146/lab/cmpe146package_lpc1758/yagarto/bin/../lib/gcc/arm-none-eabi/4.6.2/../../../../arm-none-eabi/lib/thumb/v7m\libc.a(lib_a-findfp.o) (fclose)
c:/users/montoya/documents/classes/cmpe146/lab/cmpe146package_lpc1758/yagarto/bin/../lib/gcc/arm-none-eabi/4.6.2/../../../../arm-none-eabi/lib/thumb/v7m\libc.a(lib_a-fstatr.o)
                              c:/users/montoya/documents/classes/cmpe146/lab/cmpe146package_lpc1758/yagarto/bin/../lib/gcc/arm-none-eabi/4.6.2/../../../../arm-none-eabi/lib/thumb/v7m\libc.a(lib_a-makebuf.o) (_fstat_r)
c:/users/montoya/documents/classes/cmpe146/lab/cmpe146package_lpc1758/yagarto/bin/../lib/gcc/arm-none-eabi/4.6.2/../../../../arm-none-eabi/lib/thumb/v7m\libc.a(lib_a-isattyr.o)
                              c:/users/montoya/documents/classes/cmpe146/lab/cmpe146package_lpc1758/yagarto/bin/../lib/gcc/arm-none-eabi/4.6.2/../../../../arm-none-eabi/lib/thumb/v7m\libc.a(lib_a-makebuf.o) (_isatty_r)
c:/users/montoya/documents/classes/cmpe146/lab/cmpe146package_lpc1758/yagarto/bin/../lib/gcc/arm-none-eabi/4.6.2/../../../../arm-none-eabi/lib/thumb/v7m\libc.a(lib_a-iswspace.o)
                              c:/users/montoya/documents/classes/cmpe146/lab/cmpe146package_lpc1758/yagarto/bin/../lib/gcc/arm-none-eabi/4.6.2/../../../../arm-none-eabi/lib/thumb/v7m\libc.a(lib_a-svfiscanf.o) (iswspace)
c:/users/montoya/documents/classes/cmpe146/lab/cmpe146package_lpc1758/yagarto/bin/../lib/gcc/arm-none-eabi/4.6.2/../../../../arm-none-eabi/lib/thumb/v7m\libc.a(lib_a-lseekr.o)
                              c:/users/montoya/documents/classes/cmpe146/lab/cmpe146package_lpc1758/yagarto/bin/../lib/gcc/arm-none-eabi/4.6.2/../../../../arm-none-eabi/lib/thumb/v7m\libc.a(lib_a-stdio.o) (_lseek_r)
c:/users/montoya/documents/classes/cmpe146/lab/cmpe146package_lpc1758/yagarto/bin/../lib/gcc/arm-none-eabi/4.6.2/../../../../arm-none-eabi/lib/thumb/v7m\libc.a(lib_a-mbrtowc.o)
                              c:/users/montoya/documents/classes/cmpe146/lab/cmpe146package_lpc1758/yagarto/bin/../lib/gcc/arm-none-eabi/4.6.2/../../../../arm-none-eabi/lib/thumb/v7m\libc.a(lib_a-svfiscanf.o) (_mbrtowc_r)
c:/users/montoya/documents/classes/cmpe146/lab/cmpe146package_lpc1758/yagarto/bin/../lib/gcc/arm-none-eabi/4.6.2/../../../../arm-none-eabi/lib/thumb/v7m\libc.a(lib_a-mbtowc_r.o)
                              c:/users/montoya/documents/classes/cmpe146/lab/cmpe146package_lpc1758/yagarto/bin/../lib/gcc/arm-none-eabi/4.6.2/../../../../arm-none-eabi/lib/thumb/v7m\libc.a(lib_a-mbrtowc.o) (__mbtowc)
c:/users/montoya/documents/classes/cmpe146/lab/cmpe146package_lpc1758/yagarto/bin/../lib/gcc/arm-none-eabi/4.6.2/../../../../arm-none-eabi/lib/thumb/v7m\libc.a(lib_a-mprec.o)
                              c:/users/montoya/documents/classes/cmpe146/lab/cmpe146package_lpc1758/yagarto/bin/../lib/gcc/arm-none-eabi/4.6.2/../../../../arm-none-eabi/lib/thumb/v7m\libc.a(lib_a-dtoa.o) (_Balloc)
c:/users/montoya/documents/classes/cmpe146/lab/cmpe146package_lpc1758/yagarto/bin/../lib/gcc/arm-none-eabi/4.6.2/../../../../arm-none-eabi/lib/thumb/v7m\libc.a(lib_a-readr.o)
                              c:/users/montoya/documents/classes/cmpe146/lab/cmpe146package_lpc1758/yagarto/bin/../lib/gcc/arm-none-eabi/4.6.2/../../../../arm-none-eabi/lib/thumb/v7m\libc.a(lib_a-stdio.o) (_read_r)
c:/users/montoya/documents/classes/cmpe146/lab/cmpe146package_lpc1758/yagarto/bin/../lib/gcc/arm-none-eabi/4.6.2/../../../../arm-none-eabi/lib/thumb/v7m\libc.a(lib_a-s_fpclassify.o)
                              c:/users/montoya/documents/classes/cmpe146/lab/cmpe146package_lpc1758/yagarto/bin/../lib/gcc/arm-none-eabi/4.6.2/../../../../arm-none-eabi/lib/thumb/v7m\libc.a(lib_a-svfprintf.o) (__fpclassifyd)
c:/users/montoya/documents/classes/cmpe146/lab/cmpe146package_lpc1758/yagarto/bin/../lib/gcc/arm-none-eabi/4.6.2/../../../../arm-none-eabi/lib/thumb/v7m\libc.a(lib_a-sccl.o)
                              c:/users/montoya/documents/classes/cmpe146/lab/cmpe146package_lpc1758/yagarto/bin/../lib/gcc/arm-none-eabi/4.6.2/../../../../arm-none-eabi/lib/thumb/v7m\libc.a(lib_a-svfiscanf.o) (__sccl)
c:/users/montoya/documents/classes/cmpe146/lab/cmpe146package_lpc1758/yagarto/bin/../lib/gcc/arm-none-eabi/4.6.2/../../../../arm-none-eabi/lib/thumb/v7m\libc.a(lib_a-strtoul.o)
                              c:/users/montoya/documents/classes/cmpe146/lab/cmpe146package_lpc1758/yagarto/bin/../lib/gcc/arm-none-eabi/4.6.2/../../../../arm-none-eabi/lib/thumb/v7m\libc.a(lib_a-svfiscanf.o) (_strtoul_r)
c:/users/montoya/documents/classes/cmpe146/lab/cmpe146package_lpc1758/yagarto/bin/../lib/gcc/arm-none-eabi/4.6.2/../../../../arm-none-eabi/lib/thumb/v7m\libc.a(lib_a-callocr.o)
                              c:/users/montoya/documents/classes/cmpe146/lab/cmpe146package_lpc1758/yagarto/bin/../lib/gcc/arm-none-eabi/4.6.2/../../../../arm-none-eabi/lib/thumb/v7m\libc.a(lib_a-mprec.o) (_calloc_r)
c:/users/montoya/documents/classes/cmpe146/lab/cmpe146package_lpc1758/yagarto/bin/../lib/gcc/arm-none-eabi/4.6.2/thumb/v7m\libgcc.a(_udivsi3.o)
                              c:/users/montoya/documents/classes/cmpe146/lab/cmpe146package_lpc1758/yagarto/bin/../lib/gcc/arm-none-eabi/4.6.2/../../../../arm-none-eabi/lib/thumb/v7m\libc.a(lib_a-strtol.o) (__aeabi_uidiv)
c:/users/montoya/documents/classes/cmpe146/lab/cmpe146package_lpc1758/yagarto/bin/../lib/gcc/arm-none-eabi/4.6.2/thumb/v7m\libgcc.a(_dvmd_tls.o)
                              c:/users/montoya/documents/classes/cmpe146/lab/cmpe146package_lpc1758/yagarto/bin/../lib/gcc/arm-none-eabi/4.6.2/thumb/v7m\libgcc.a(_udivsi3.o) (__aeabi_idiv0)

Allocating common symbols
Common symbol       size              file

SD_TIMER1_100HZ     0x1               ./L4_IO/fat/disk/sd.o
CardType            0x1               ./L4_IO/fat/disk/sd.o
errno               0x4               c:/users/montoya/documents/classes/cmpe146/lab/cmpe146package_lpc1758/yagarto/bin/../lib/gcc/arm-none-eabi/4.6.2/../../../../arm-none-eabi/lib/thumb/v7m\libc.a(lib_a-reent.o)
SD_TIMER2_100HZ     0x1               ./L4_IO/fat/disk/sd.o

Discarded input sections

 .group         0x00000000        0x8 ./L5_Application/source/handlers.o
 .group         0x00000000        0x8 ./L5_Application/source/handlers.o
 .group         0x00000000        0x8 ./L5_Application/source/handlers.o
 .group         0x00000000        0x8 ./L5_Application/source/handlers.o
 .group         0x00000000        0x8 ./L5_Application/source/handlers.o
 .group         0x00000000        0x8 ./L5_Application/source/handlers.o
 .group         0x00000000        0x8 ./L5_Application/source/handlers.o
 .group         0x00000000        0x8 ./L5_Application/source/handlers.o
 .group         0x00000000        0x8 ./L5_Application/source/handlers.o
 .group         0x00000000        0x8 ./L5_Application/source/handlers.o
 .group         0x00000000        0x8 ./L5_Application/source/handlers.o
 .group         0x00000000        0x8 ./L5_Application/source/handlers.o
 .group         0x00000000        0x8 ./L5_Application/source/handlers.o
 .group         0x00000000        0x8 ./L5_Application/source/high_level_init.o
 .group         0x00000000        0x8 ./L5_Application/source/high_level_init.o
 .group         0x00000000        0x8 ./L5_Application/source/high_level_init.o
 .group         0x00000000        0x8 ./L5_Application/source/high_level_init.o
 .group         0x00000000        0x8 ./L5_Application/source/high_level_init.o
 .group         0x00000000        0x8 ./L5_Application/source/high_level_init.o
 .group         0x00000000        0x8 ./L5_Application/source/high_level_init.o
 .group         0x00000000        0x8 ./L5_Application/source/high_level_init.o
 .group         0x00000000        0x8 ./L5_Application/source/high_level_init.o
 .group         0x00000000        0x8 ./L5_Application/source/high_level_init.o
 .group         0x00000000        0x8 ./L5_Application/source/high_level_init.o
 .text._ZN7Storage13getFlashDriveEv
                0x00000000       0x48 ./L5_Application/source/high_level_init.o
 .bss._ZGVZN7Storage10getSDDriveEvE12pSDCardDrive
                0x00000000        0x4 ./L5_Application/source/high_level_init.o
 .bss._ZZN7Storage10getSDDriveEvE12pSDCardDrive
                0x00000000        0x4 ./L5_Application/source/high_level_init.o
 .bss._ZGVZN7Storage13getFlashDriveEvE11pFlashDrive
                0x00000000        0x4 ./L5_Application/source/high_level_init.o
 .bss._ZZN7Storage13getFlashDriveEvE11pFlashDrive
                0x00000000        0x4 ./L5_Application/source/high_level_init.o
 .bss._ZN17SingletonTemplateI4I2C2E19mpSingletonInstanceE
                0x00000000        0x4 ./L5_Application/source/high_level_init.o
 .group         0x00000000        0xc ./L5_Application/source/tasks.o
 .group         0x00000000        0x8 ./L5_Application/source/tasks.o
 .group         0x00000000        0x8 ./L5_Application/source/tasks.o
 .group         0x00000000        0x8 ./L5_Application/source/tasks.o
 .group         0x00000000        0xc ./L5_Application/source/tasks.o
 .group         0x00000000        0xc ./L5_Application/source/tasks.o
 .group         0x00000000        0x8 ./L5_Application/source/tasks.o
 .group         0x00000000        0x8 ./L5_Application/source/tasks.o
 .group         0x00000000        0x8 ./L5_Application/source/tasks.o
 .group         0x00000000        0x8 ./L5_Application/source/tasks.o
 .group         0x00000000        0x8 ./L5_Application/source/tasks.o
 .group         0x00000000        0x8 ./L5_Application/source/tasks.o
 .group         0x00000000        0x8 ./L5_Application/source/tasks.o
 .group         0x00000000        0x8 ./L5_Application/source/tasks.o
 .group         0x00000000        0x8 ./L5_Application/source/tasks.o
 .group         0x00000000        0x8 ./L5_Application/source/tasks.o
 .text._ZN17SingletonTemplateI5Uart0E11getInstanceEv
                0x00000000       0x20 ./L5_Application/source/tasks.o
 .text._ZN17SingletonTemplateI10FileLoggerE11getInstanceEv
                0x00000000       0x20 ./L5_Application/source/tasks.o
 .bss._ZN17SingletonTemplateI5Uart0E19mpSingletonInstanceE
                0x00000000        0x4 ./L5_Application/source/tasks.o
 .bss._ZN17SingletonTemplateI11LED_DisplayE19mpSingletonInstanceE
                0x00000000        0x4 ./L5_Application/source/tasks.o
 .bss._ZN17SingletonTemplateI4I2C2E19mpSingletonInstanceE
                0x00000000        0x4 ./L5_Application/source/tasks.o
 .bss._ZN17SingletonTemplateI10FileLoggerE19mpSingletonInstanceE
                0x00000000        0x4 ./L5_Application/source/tasks.o
 .group         0x00000000        0x8 ./L5_Application/main.o
 .text.adc0_initialize
                0x00000000       0xc0 ./L5_Application/main.o
 .group         0x00000000        0x8 ./L4_IO/src/io_source.o
 .group         0x00000000        0x8 ./L4_IO/src/io_source.o
 .group         0x00000000        0x8 ./L4_IO/src/io_source.o
 .group         0x00000000        0x8 ./L4_IO/src/io_source.o
 .text.adc0_initialize
                0x00000000       0xc0 ./L4_IO/src/io_source.o
 .group         0x00000000        0x8 ./L3_Utils/src/command_handler.o
 .group         0x00000000        0xc ./L3_Utils/src/cpp_task.o
 .group         0x00000000        0x8 ./L3_Utils/src/cpp_task.o
 .group         0x00000000        0x8 ./L3_Utils/src/cpp_task.o
 .group         0x00000000        0x8 ./L3_Utils/src/cpp_task.o
 .group         0x00000000        0x8 ./L3_Utils/src/cpp_task.o
 .text._ZN14scheduler_taskD2Ev
                0x00000000        0xc ./L3_Utils/src/cpp_task.o
 .text._ZN14scheduler_task4initEv
                0x00000000        0x4 ./L3_Utils/src/cpp_task.o
 .text._ZN14scheduler_task6regTlmEv
                0x00000000        0x4 ./L3_Utils/src/cpp_task.o
 .text._ZN14scheduler_task9taskEntryEv
                0x00000000        0x4 ./L3_Utils/src/cpp_task.o
 .text._ZN14scheduler_taskD0Ev
                0x00000000       0x14 ./L3_Utils/src/cpp_task.o
 .rodata._ZTV14scheduler_task
                0x00000000       0x20 ./L3_Utils/src/cpp_task.o
 .group         0x00000000        0xc ./L3_Utils/src/file_logger.o
 .group         0x00000000        0x8 ./L3_Utils/src/file_logger.o
 .group         0x00000000        0x8 ./L3_Utils/src/file_logger.o
 .group         0x00000000        0x8 ./L3_Utils/src/file_logger.o
 .group         0x00000000        0xc ./L3_Utils/src/file_logger.o
 .group         0x00000000        0xc ./L3_Utils/src/file_logger.o
 .group         0x00000000        0x8 ./L3_Utils/src/file_logger.o
 .group         0x00000000        0x8 ./L3_Utils/src/str.o
 .group         0x00000000        0x8 ./L2_Drivers/src/i2c2.o
 .bss._ZN17SingletonTemplateI4I2C2E19mpSingletonInstanceE
                0x00000000        0x4 ./L2_Drivers/src/i2c2.o
 .group         0x00000000        0xc ./L2_Drivers/src/uart0.o
 .group         0x00000000        0xc ./L2_Drivers/src/uart0.o
 .group         0x00000000        0x8 ./L2_Drivers/src/uart0.o
 .group         0x00000000        0x8 ./L2_Drivers/src/uart0.o
 .group         0x00000000        0x8 ./L2_Drivers/src/uart0.o
 .group         0x00000000        0x8 ./L2_Drivers/src/uart0.o
 .text._ZN17SingletonTemplateI5Uart0E11getInstanceEv
                0x00000000       0x20 ./L2_Drivers/src/uart0.o
 .bss._ZN17SingletonTemplateI5Uart0E19mpSingletonInstanceE
                0x00000000        0x4 ./L2_Drivers/src/uart0.o
 .group         0x00000000        0xc ./L2_Drivers/src/uart2.o
 .group         0x00000000        0xc ./L2_Drivers/src/uart2.o
 .group         0x00000000        0x8 ./L2_Drivers/src/uart2.o
 .group         0x00000000        0x8 ./L2_Drivers/src/uart2.o
 .group         0x00000000        0x8 ./L2_Drivers/src/uart2.o
 .text._ZN9UartIfaceD2Ev
                0x00000000        0xc ./L2_Drivers/src/uart2.o
 .text._ZN9UartIfaceD0Ev
                0x00000000       0x14 ./L2_Drivers/src/uart2.o
 .rodata._ZTV9UartIface
                0x00000000       0x18 ./L2_Drivers/src/uart2.o
 .group         0x00000000        0xc ./L2_Drivers/src/uart3.o
 .group         0x00000000        0xc ./L2_Drivers/src/uart3.o
 .group         0x00000000        0x8 ./L2_Drivers/src/uart3.o
 .group         0x00000000        0x8 ./L2_Drivers/src/uart3.o
 .group         0x00000000        0x8 ./L2_Drivers/src/uart3.o
 .text._ZN9UartIfaceD2Ev
                0x00000000        0xc ./L2_Drivers/src/uart3.o
 .text._ZN9UartIfaceD0Ev
                0x00000000       0x14 ./L2_Drivers/src/uart3.o
 .rodata._ZTV9UartIface
                0x00000000       0x18 ./L2_Drivers/src/uart3.o
 .group         0x00000000        0xc ./L2_Drivers/src/uart_base.o
 .group         0x00000000        0xc ./L2_Drivers/src/uart_base.o
 .group         0x00000000        0x8 ./L2_Drivers/src/uart_base.o
 .text._ZN9UartIfaceD2Ev
                0x00000000        0xc ./L2_Drivers/src/uart_base.o
 .text._ZN9UartIfaceD0Ev
                0x00000000       0x14 ./L2_Drivers/src/uart_base.o
 .rodata._ZTV9UartIface
                0x00000000       0x18 ./L2_Drivers/src/uart_base.o
 .group         0x00000000        0x8 c:/users/montoya/documents/classes/cmpe146/lab/cmpe146package_lpc1758/yagarto/bin/../lib/gcc/arm-none-eabi/4.6.2/../../../../arm-none-eabi/lib/thumb/v7m\libstdc++.a(fundamental_type_info.o)
 .group         0x00000000        0x8 c:/users/montoya/documents/classes/cmpe146/lab/cmpe146package_lpc1758/yagarto/bin/../lib/gcc/arm-none-eabi/4.6.2/../../../../arm-none-eabi/lib/thumb/v7m\libstdc++.a(fundamental_type_info.o)
 .group         0x00000000        0x8 c:/users/montoya/documents/classes/cmpe146/lab/cmpe146package_lpc1758/yagarto/bin/../lib/gcc/arm-none-eabi/4.6.2/../../../../arm-none-eabi/lib/thumb/v7m\libstdc++.a(fundamental_type_info.o)
 .group         0x00000000        0x8 c:/users/montoya/documents/classes/cmpe146/lab/cmpe146package_lpc1758/yagarto/bin/../lib/gcc/arm-none-eabi/4.6.2/../../../../arm-none-eabi/lib/thumb/v7m\libstdc++.a(fundamental_type_info.o)
 .group         0x00000000        0x8 c:/users/montoya/documents/classes/cmpe146/lab/cmpe146package_lpc1758/yagarto/bin/../lib/gcc/arm-none-eabi/4.6.2/../../../../arm-none-eabi/lib/thumb/v7m\libstdc++.a(fundamental_type_info.o)
 .group         0x00000000        0x8 c:/users/montoya/documents/classes/cmpe146/lab/cmpe146package_lpc1758/yagarto/bin/../lib/gcc/arm-none-eabi/4.6.2/../../../../arm-none-eabi/lib/thumb/v7m\libstdc++.a(fundamental_type_info.o)
 .group         0x00000000        0x8 c:/users/montoya/documents/classes/cmpe146/lab/cmpe146package_lpc1758/yagarto/bin/../lib/gcc/arm-none-eabi/4.6.2/../../../../arm-none-eabi/lib/thumb/v7m\libstdc++.a(fundamental_type_info.o)
 .group         0x00000000        0x8 c:/users/montoya/documents/classes/cmpe146/lab/cmpe146package_lpc1758/yagarto/bin/../lib/gcc/arm-none-eabi/4.6.2/../../../../arm-none-eabi/lib/thumb/v7m\libstdc++.a(fundamental_type_info.o)
 .group         0x00000000        0x8 c:/users/montoya/documents/classes/cmpe146/lab/cmpe146package_lpc1758/yagarto/bin/../lib/gcc/arm-none-eabi/4.6.2/../../../../arm-none-eabi/lib/thumb/v7m\libstdc++.a(fundamental_type_info.o)
 .group         0x00000000        0x8 c:/users/montoya/documents/classes/cmpe146/lab/cmpe146package_lpc1758/yagarto/bin/../lib/gcc/arm-none-eabi/4.6.2/../../../../arm-none-eabi/lib/thumb/v7m\libstdc++.a(fundamental_type_info.o)
 .group         0x00000000        0x8 c:/users/montoya/documents/classes/cmpe146/lab/cmpe146package_lpc1758/yagarto/bin/../lib/gcc/arm-none-eabi/4.6.2/../../../../arm-none-eabi/lib/thumb/v7m\libstdc++.a(fundamental_type_info.o)
 .group         0x00000000        0x8 c:/users/montoya/documents/classes/cmpe146/lab/cmpe146package_lpc1758/yagarto/bin/../lib/gcc/arm-none-eabi/4.6.2/../../../../arm-none-eabi/lib/thumb/v7m\libstdc++.a(fundamental_type_info.o)
 .group         0x00000000        0x8 c:/users/montoya/documents/classes/cmpe146/lab/cmpe146package_lpc1758/yagarto/bin/../lib/gcc/arm-none-eabi/4.6.2/../../../../arm-none-eabi/lib/thumb/v7m\libstdc++.a(fundamental_type_info.o)
 .group         0x00000000        0x8 c:/users/montoya/documents/classes/cmpe146/lab/cmpe146package_lpc1758/yagarto/bin/../lib/gcc/arm-none-eabi/4.6.2/../../../../arm-none-eabi/lib/thumb/v7m\libstdc++.a(fundamental_type_info.o)
 .group         0x00000000        0x8 c:/users/montoya/documents/classes/cmpe146/lab/cmpe146package_lpc1758/yagarto/bin/../lib/gcc/arm-none-eabi/4.6.2/../../../../arm-none-eabi/lib/thumb/v7m\libstdc++.a(fundamental_type_info.o)
 .group         0x00000000        0x8 c:/users/montoya/documents/classes/cmpe146/lab/cmpe146package_lpc1758/yagarto/bin/../lib/gcc/arm-none-eabi/4.6.2/../../../../arm-none-eabi/lib/thumb/v7m\libstdc++.a(fundamental_type_info.o)
 .group         0x00000000        0x8 c:/users/montoya/documents/classes/cmpe146/lab/cmpe146package_lpc1758/yagarto/bin/../lib/gcc/arm-none-eabi/4.6.2/../../../../arm-none-eabi/lib/thumb/v7m\libstdc++.a(fundamental_type_info.o)
 .group         0x00000000        0x8 c:/users/montoya/documents/classes/cmpe146/lab/cmpe146package_lpc1758/yagarto/bin/../lib/gcc/arm-none-eabi/4.6.2/../../../../arm-none-eabi/lib/thumb/v7m\libstdc++.a(fundamental_type_info.o)
 .group         0x00000000        0x8 c:/users/montoya/documents/classes/cmpe146/lab/cmpe146package_lpc1758/yagarto/bin/../lib/gcc/arm-none-eabi/4.6.2/../../../../arm-none-eabi/lib/thumb/v7m\libstdc++.a(fundamental_type_info.o)
 .group         0x00000000        0x8 c:/users/montoya/documents/classes/cmpe146/lab/cmpe146package_lpc1758/yagarto/bin/../lib/gcc/arm-none-eabi/4.6.2/../../../../arm-none-eabi/lib/thumb/v7m\libstdc++.a(fundamental_type_info.o)
 .group         0x00000000        0x8 c:/users/montoya/documents/classes/cmpe146/lab/cmpe146package_lpc1758/yagarto/bin/../lib/gcc/arm-none-eabi/4.6.2/../../../../arm-none-eabi/lib/thumb/v7m\libstdc++.a(fundamental_type_info.o)
 .group         0x00000000        0x8 c:/users/montoya/documents/classes/cmpe146/lab/cmpe146package_lpc1758/yagarto/bin/../lib/gcc/arm-none-eabi/4.6.2/../../../../arm-none-eabi/lib/thumb/v7m\libstdc++.a(fundamental_type_info.o)
 .group         0x00000000        0x8 c:/users/montoya/documents/classes/cmpe146/lab/cmpe146package_lpc1758/yagarto/bin/../lib/gcc/arm-none-eabi/4.6.2/../../../../arm-none-eabi/lib/thumb/v7m\libstdc++.a(fundamental_type_info.o)
 .group         0x00000000        0x8 c:/users/montoya/documents/classes/cmpe146/lab/cmpe146package_lpc1758/yagarto/bin/../lib/gcc/arm-none-eabi/4.6.2/../../../../arm-none-eabi/lib/thumb/v7m\libstdc++.a(fundamental_type_info.o)
 .group         0x00000000        0x8 c:/users/montoya/documents/classes/cmpe146/lab/cmpe146package_lpc1758/yagarto/bin/../lib/gcc/arm-none-eabi/4.6.2/../../../../arm-none-eabi/lib/thumb/v7m\libstdc++.a(fundamental_type_info.o)
 .group         0x00000000        0x8 c:/users/montoya/documents/classes/cmpe146/lab/cmpe146package_lpc1758/yagarto/bin/../lib/gcc/arm-none-eabi/4.6.2/../../../../arm-none-eabi/lib/thumb/v7m\libstdc++.a(fundamental_type_info.o)
 .group         0x00000000        0x8 c:/users/montoya/documents/classes/cmpe146/lab/cmpe146package_lpc1758/yagarto/bin/../lib/gcc/arm-none-eabi/4.6.2/../../../../arm-none-eabi/lib/thumb/v7m\libstdc++.a(fundamental_type_info.o)
 .group         0x00000000        0x8 c:/users/montoya/documents/classes/cmpe146/lab/cmpe146package_lpc1758/yagarto/bin/../lib/gcc/arm-none-eabi/4.6.2/../../../../arm-none-eabi/lib/thumb/v7m\libstdc++.a(fundamental_type_info.o)
 .group         0x00000000        0x8 c:/users/montoya/documents/classes/cmpe146/lab/cmpe146package_lpc1758/yagarto/bin/../lib/gcc/arm-none-eabi/4.6.2/../../../../arm-none-eabi/lib/thumb/v7m\libstdc++.a(fundamental_type_info.o)
 .group         0x00000000        0x8 c:/users/montoya/documents/classes/cmpe146/lab/cmpe146package_lpc1758/yagarto/bin/../lib/gcc/arm-none-eabi/4.6.2/../../../../arm-none-eabi/lib/thumb/v7m\libstdc++.a(fundamental_type_info.o)
 .group         0x00000000        0x8 c:/users/montoya/documents/classes/cmpe146/lab/cmpe146package_lpc1758/yagarto/bin/../lib/gcc/arm-none-eabi/4.6.2/../../../../arm-none-eabi/lib/thumb/v7m\libstdc++.a(fundamental_type_info.o)
 .group         0x00000000        0x8 c:/users/montoya/documents/classes/cmpe146/lab/cmpe146package_lpc1758/yagarto/bin/../lib/gcc/arm-none-eabi/4.6.2/../../../../arm-none-eabi/lib/thumb/v7m\libstdc++.a(fundamental_type_info.o)
 .group         0x00000000        0x8 c:/users/montoya/documents/classes/cmpe146/lab/cmpe146package_lpc1758/yagarto/bin/../lib/gcc/arm-none-eabi/4.6.2/../../../../arm-none-eabi/lib/thumb/v7m\libstdc++.a(fundamental_type_info.o)
 .group         0x00000000        0x8 c:/users/montoya/documents/classes/cmpe146/lab/cmpe146package_lpc1758/yagarto/bin/../lib/gcc/arm-none-eabi/4.6.2/../../../../arm-none-eabi/lib/thumb/v7m\libstdc++.a(fundamental_type_info.o)
 .group         0x00000000        0x8 c:/users/montoya/documents/classes/cmpe146/lab/cmpe146package_lpc1758/yagarto/bin/../lib/gcc/arm-none-eabi/4.6.2/../../../../arm-none-eabi/lib/thumb/v7m\libstdc++.a(fundamental_type_info.o)
 .group         0x00000000        0x8 c:/users/montoya/documents/classes/cmpe146/lab/cmpe146package_lpc1758/yagarto/bin/../lib/gcc/arm-none-eabi/4.6.2/../../../../arm-none-eabi/lib/thumb/v7m\libstdc++.a(fundamental_type_info.o)
 .group         0x00000000        0x8 c:/users/montoya/documents/classes/cmpe146/lab/cmpe146package_lpc1758/yagarto/bin/../lib/gcc/arm-none-eabi/4.6.2/../../../../arm-none-eabi/lib/thumb/v7m\libstdc++.a(fundamental_type_info.o)
 .group         0x00000000        0x8 c:/users/montoya/documents/classes/cmpe146/lab/cmpe146package_lpc1758/yagarto/bin/../lib/gcc/arm-none-eabi/4.6.2/../../../../arm-none-eabi/lib/thumb/v7m\libstdc++.a(fundamental_type_info.o)
 .group         0x00000000        0x8 c:/users/montoya/documents/classes/cmpe146/lab/cmpe146package_lpc1758/yagarto/bin/../lib/gcc/arm-none-eabi/4.6.2/../../../../arm-none-eabi/lib/thumb/v7m\libstdc++.a(fundamental_type_info.o)
 .group         0x00000000        0x8 c:/users/montoya/documents/classes/cmpe146/lab/cmpe146package_lpc1758/yagarto/bin/../lib/gcc/arm-none-eabi/4.6.2/../../../../arm-none-eabi/lib/thumb/v7m\libstdc++.a(fundamental_type_info.o)
 .group         0x00000000        0x8 c:/users/montoya/documents/classes/cmpe146/lab/cmpe146package_lpc1758/yagarto/bin/../lib/gcc/arm-none-eabi/4.6.2/../../../../arm-none-eabi/lib/thumb/v7m\libstdc++.a(fundamental_type_info.o)
 .group         0x00000000        0x8 c:/users/montoya/documents/classes/cmpe146/lab/cmpe146package_lpc1758/yagarto/bin/../lib/gcc/arm-none-eabi/4.6.2/../../../../arm-none-eabi/lib/thumb/v7m\libstdc++.a(fundamental_type_info.o)
 .group         0x00000000        0x8 c:/users/montoya/documents/classes/cmpe146/lab/cmpe146package_lpc1758/yagarto/bin/../lib/gcc/arm-none-eabi/4.6.2/../../../../arm-none-eabi/lib/thumb/v7m\libstdc++.a(fundamental_type_info.o)
 .group         0x00000000        0x8 c:/users/montoya/documents/classes/cmpe146/lab/cmpe146package_lpc1758/yagarto/bin/../lib/gcc/arm-none-eabi/4.6.2/../../../../arm-none-eabi/lib/thumb/v7m\libstdc++.a(fundamental_type_info.o)
 .group         0x00000000        0x8 c:/users/montoya/documents/classes/cmpe146/lab/cmpe146package_lpc1758/yagarto/bin/../lib/gcc/arm-none-eabi/4.6.2/../../../../arm-none-eabi/lib/thumb/v7m\libstdc++.a(fundamental_type_info.o)
 .group         0x00000000        0x8 c:/users/montoya/documents/classes/cmpe146/lab/cmpe146package_lpc1758/yagarto/bin/../lib/gcc/arm-none-eabi/4.6.2/../../../../arm-none-eabi/lib/thumb/v7m\libstdc++.a(fundamental_type_info.o)
 .group         0x00000000        0x8 c:/users/montoya/documents/classes/cmpe146/lab/cmpe146package_lpc1758/yagarto/bin/../lib/gcc/arm-none-eabi/4.6.2/../../../../arm-none-eabi/lib/thumb/v7m\libstdc++.a(fundamental_type_info.o)
 .group         0x00000000        0x8 c:/users/montoya/documents/classes/cmpe146/lab/cmpe146package_lpc1758/yagarto/bin/../lib/gcc/arm-none-eabi/4.6.2/../../../../arm-none-eabi/lib/thumb/v7m\libstdc++.a(fundamental_type_info.o)
 .group         0x00000000        0x8 c:/users/montoya/documents/classes/cmpe146/lab/cmpe146package_lpc1758/yagarto/bin/../lib/gcc/arm-none-eabi/4.6.2/../../../../arm-none-eabi/lib/thumb/v7m\libstdc++.a(fundamental_type_info.o)
 .group         0x00000000        0x8 c:/users/montoya/documents/classes/cmpe146/lab/cmpe146package_lpc1758/yagarto/bin/../lib/gcc/arm-none-eabi/4.6.2/../../../../arm-none-eabi/lib/thumb/v7m\libstdc++.a(fundamental_type_info.o)
 .group         0x00000000        0x8 c:/users/montoya/documents/classes/cmpe146/lab/cmpe146package_lpc1758/yagarto/bin/../lib/gcc/arm-none-eabi/4.6.2/../../../../arm-none-eabi/lib/thumb/v7m\libstdc++.a(fundamental_type_info.o)
 .group         0x00000000        0x8 c:/users/montoya/documents/classes/cmpe146/lab/cmpe146package_lpc1758/yagarto/bin/../lib/gcc/arm-none-eabi/4.6.2/../../../../arm-none-eabi/lib/thumb/v7m\libstdc++.a(fundamental_type_info.o)
 .group         0x00000000        0x8 c:/users/montoya/documents/classes/cmpe146/lab/cmpe146package_lpc1758/yagarto/bin/../lib/gcc/arm-none-eabi/4.6.2/../../../../arm-none-eabi/lib/thumb/v7m\libstdc++.a(fundamental_type_info.o)
 .group         0x00000000        0x8 c:/users/montoya/documents/classes/cmpe146/lab/cmpe146package_lpc1758/yagarto/bin/../lib/gcc/arm-none-eabi/4.6.2/../../../../arm-none-eabi/lib/thumb/v7m\libstdc++.a(fundamental_type_info.o)
 .group         0x00000000        0x8 c:/users/montoya/documents/classes/cmpe146/lab/cmpe146package_lpc1758/yagarto/bin/../lib/gcc/arm-none-eabi/4.6.2/../../../../arm-none-eabi/lib/thumb/v7m\libstdc++.a(fundamental_type_info.o)
 .group         0x00000000        0x8 c:/users/montoya/documents/classes/cmpe146/lab/cmpe146package_lpc1758/yagarto/bin/../lib/gcc/arm-none-eabi/4.6.2/../../../../arm-none-eabi/lib/thumb/v7m\libstdc++.a(fundamental_type_info.o)
 .group         0x00000000        0x8 c:/users/montoya/documents/classes/cmpe146/lab/cmpe146package_lpc1758/yagarto/bin/../lib/gcc/arm-none-eabi/4.6.2/../../../../arm-none-eabi/lib/thumb/v7m\libstdc++.a(fundamental_type_info.o)
 .group         0x00000000        0x8 c:/users/montoya/documents/classes/cmpe146/lab/cmpe146package_lpc1758/yagarto/bin/../lib/gcc/arm-none-eabi/4.6.2/../../../../arm-none-eabi/lib/thumb/v7m\libstdc++.a(fundamental_type_info.o)
 .group         0x00000000        0x8 c:/users/montoya/documents/classes/cmpe146/lab/cmpe146package_lpc1758/yagarto/bin/../lib/gcc/arm-none-eabi/4.6.2/../../../../arm-none-eabi/lib/thumb/v7m\libstdc++.a(fundamental_type_info.o)
 .group         0x00000000        0x8 c:/users/montoya/documents/classes/cmpe146/lab/cmpe146package_lpc1758/yagarto/bin/../lib/gcc/arm-none-eabi/4.6.2/../../../../arm-none-eabi/lib/thumb/v7m\libstdc++.a(fundamental_type_info.o)
 .group         0x00000000        0x8 c:/users/montoya/documents/classes/cmpe146/lab/cmpe146package_lpc1758/yagarto/bin/../lib/gcc/arm-none-eabi/4.6.2/../../../../arm-none-eabi/lib/thumb/v7m\libstdc++.a(fundamental_type_info.o)
 .group         0x00000000        0x8 c:/users/montoya/documents/classes/cmpe146/lab/cmpe146package_lpc1758/yagarto/bin/../lib/gcc/arm-none-eabi/4.6.2/../../../../arm-none-eabi/lib/thumb/v7m\libstdc++.a(fundamental_type_info.o)
 .group         0x00000000        0x8 c:/users/montoya/documents/classes/cmpe146/lab/cmpe146package_lpc1758/yagarto/bin/../lib/gcc/arm-none-eabi/4.6.2/../../../../arm-none-eabi/lib/thumb/v7m\libstdc++.a(fundamental_type_info.o)
 .group         0x00000000        0x8 c:/users/montoya/documents/classes/cmpe146/lab/cmpe146package_lpc1758/yagarto/bin/../lib/gcc/arm-none-eabi/4.6.2/../../../../arm-none-eabi/lib/thumb/v7m\libstdc++.a(fundamental_type_info.o)
 .group         0x00000000        0x8 c:/users/montoya/documents/classes/cmpe146/lab/cmpe146package_lpc1758/yagarto/bin/../lib/gcc/arm-none-eabi/4.6.2/../../../../arm-none-eabi/lib/thumb/v7m\libstdc++.a(fundamental_type_info.o)
 .group         0x00000000        0x8 c:/users/montoya/documents/classes/cmpe146/lab/cmpe146package_lpc1758/yagarto/bin/../lib/gcc/arm-none-eabi/4.6.2/../../../../arm-none-eabi/lib/thumb/v7m\libstdc++.a(fundamental_type_info.o)
 .group         0x00000000        0x8 c:/users/montoya/documents/classes/cmpe146/lab/cmpe146package_lpc1758/yagarto/bin/../lib/gcc/arm-none-eabi/4.6.2/../../../../arm-none-eabi/lib/thumb/v7m\libstdc++.a(fundamental_type_info.o)
 .group         0x00000000        0x8 c:/users/montoya/documents/classes/cmpe146/lab/cmpe146package_lpc1758/yagarto/bin/../lib/gcc/arm-none-eabi/4.6.2/../../../../arm-none-eabi/lib/thumb/v7m\libstdc++.a(fundamental_type_info.o)
 .group         0x00000000        0x8 c:/users/montoya/documents/classes/cmpe146/lab/cmpe146package_lpc1758/yagarto/bin/../lib/gcc/arm-none-eabi/4.6.2/../../../../arm-none-eabi/lib/thumb/v7m\libstdc++.a(fundamental_type_info.o)
 .group         0x00000000        0x8 c:/users/montoya/documents/classes/cmpe146/lab/cmpe146package_lpc1758/yagarto/bin/../lib/gcc/arm-none-eabi/4.6.2/../../../../arm-none-eabi/lib/thumb/v7m\libstdc++.a(fundamental_type_info.o)
 .group         0x00000000        0x8 c:/users/montoya/documents/classes/cmpe146/lab/cmpe146package_lpc1758/yagarto/bin/../lib/gcc/arm-none-eabi/4.6.2/../../../../arm-none-eabi/lib/thumb/v7m\libstdc++.a(fundamental_type_info.o)
 .group         0x00000000        0x8 c:/users/montoya/documents/classes/cmpe146/lab/cmpe146package_lpc1758/yagarto/bin/../lib/gcc/arm-none-eabi/4.6.2/../../../../arm-none-eabi/lib/thumb/v7m\libstdc++.a(fundamental_type_info.o)
 .group         0x00000000        0x8 c:/users/montoya/documents/classes/cmpe146/lab/cmpe146package_lpc1758/yagarto/bin/../lib/gcc/arm-none-eabi/4.6.2/../../../../arm-none-eabi/lib/thumb/v7m\libstdc++.a(fundamental_type_info.o)
 .group         0x00000000        0x8 c:/users/montoya/documents/classes/cmpe146/lab/cmpe146package_lpc1758/yagarto/bin/../lib/gcc/arm-none-eabi/4.6.2/../../../../arm-none-eabi/lib/thumb/v7m\libstdc++.a(fundamental_type_info.o)
 .group         0x00000000        0x8 c:/users/montoya/documents/classes/cmpe146/lab/cmpe146package_lpc1758/yagarto/bin/../lib/gcc/arm-none-eabi/4.6.2/../../../../arm-none-eabi/lib/thumb/v7m\libstdc++.a(fundamental_type_info.o)
 .group         0x00000000        0x8 c:/users/montoya/documents/classes/cmpe146/lab/cmpe146package_lpc1758/yagarto/bin/../lib/gcc/arm-none-eabi/4.6.2/../../../../arm-none-eabi/lib/thumb/v7m\libstdc++.a(fundamental_type_info.o)
 .group         0x00000000        0x8 c:/users/montoya/documents/classes/cmpe146/lab/cmpe146package_lpc1758/yagarto/bin/../lib/gcc/arm-none-eabi/4.6.2/../../../../arm-none-eabi/lib/thumb/v7m\libstdc++.a(fundamental_type_info.o)
 .group         0x00000000        0x8 c:/users/montoya/documents/classes/cmpe146/lab/cmpe146package_lpc1758/yagarto/bin/../lib/gcc/arm-none-eabi/4.6.2/../../../../arm-none-eabi/lib/thumb/v7m\libstdc++.a(fundamental_type_info.o)
 .group         0x00000000        0x8 c:/users/montoya/documents/classes/cmpe146/lab/cmpe146package_lpc1758/yagarto/bin/../lib/gcc/arm-none-eabi/4.6.2/../../../../arm-none-eabi/lib/thumb/v7m\libstdc++.a(fundamental_type_info.o)
 .group         0x00000000        0x8 c:/users/montoya/documents/classes/cmpe146/lab/cmpe146package_lpc1758/yagarto/bin/../lib/gcc/arm-none-eabi/4.6.2/../../../../arm-none-eabi/lib/thumb/v7m\libstdc++.a(fundamental_type_info.o)
 .group         0x00000000        0x8 c:/users/montoya/documents/classes/cmpe146/lab/cmpe146package_lpc1758/yagarto/bin/../lib/gcc/arm-none-eabi/4.6.2/../../../../arm-none-eabi/lib/thumb/v7m\libstdc++.a(fundamental_type_info.o)
 .group         0x00000000        0x8 c:/users/montoya/documents/classes/cmpe146/lab/cmpe146package_lpc1758/yagarto/bin/../lib/gcc/arm-none-eabi/4.6.2/../../../../arm-none-eabi/lib/thumb/v7m\libstdc++.a(fundamental_type_info.o)
 .group         0x00000000        0x8 c:/users/montoya/documents/classes/cmpe146/lab/cmpe146package_lpc1758/yagarto/bin/../lib/gcc/arm-none-eabi/4.6.2/../../../../arm-none-eabi/lib/thumb/v7m\libstdc++.a(fundamental_type_info.o)
 .group         0x00000000        0x8 c:/users/montoya/documents/classes/cmpe146/lab/cmpe146package_lpc1758/yagarto/bin/../lib/gcc/arm-none-eabi/4.6.2/../../../../arm-none-eabi/lib/thumb/v7m\libstdc++.a(fundamental_type_info.o)
 .group         0x00000000        0x8 c:/users/montoya/documents/classes/cmpe146/lab/cmpe146package_lpc1758/yagarto/bin/../lib/gcc/arm-none-eabi/4.6.2/../../../../arm-none-eabi/lib/thumb/v7m\libstdc++.a(fundamental_type_info.o)
 .group         0x00000000        0x8 c:/users/montoya/documents/classes/cmpe146/lab/cmpe146package_lpc1758/yagarto/bin/../lib/gcc/arm-none-eabi/4.6.2/../../../../arm-none-eabi/lib/thumb/v7m\libstdc++.a(fundamental_type_info.o)
 .group         0x00000000        0x8 c:/users/montoya/documents/classes/cmpe146/lab/cmpe146package_lpc1758/yagarto/bin/../lib/gcc/arm-none-eabi/4.6.2/../../../../arm-none-eabi/lib/thumb/v7m\libstdc++.a(fundamental_type_info.o)
 .group         0x00000000        0x8 c:/users/montoya/documents/classes/cmpe146/lab/cmpe146package_lpc1758/yagarto/bin/../lib/gcc/arm-none-eabi/4.6.2/../../../../arm-none-eabi/lib/thumb/v7m\libstdc++.a(fundamental_type_info.o)
 .group         0x00000000        0x8 c:/users/montoya/documents/classes/cmpe146/lab/cmpe146package_lpc1758/yagarto/bin/../lib/gcc/arm-none-eabi/4.6.2/../../../../arm-none-eabi/lib/thumb/v7m\libstdc++.a(fundamental_type_info.o)
 .group         0x00000000        0x8 c:/users/montoya/documents/classes/cmpe146/lab/cmpe146package_lpc1758/yagarto/bin/../lib/gcc/arm-none-eabi/4.6.2/../../../../arm-none-eabi/lib/thumb/v7m\libstdc++.a(fundamental_type_info.o)
 .group         0x00000000        0x8 c:/users/montoya/documents/classes/cmpe146/lab/cmpe146package_lpc1758/yagarto/bin/../lib/gcc/arm-none-eabi/4.6.2/../../../../arm-none-eabi/lib/thumb/v7m\libstdc++.a(fundamental_type_info.o)
 .group         0x00000000        0x8 c:/users/montoya/documents/classes/cmpe146/lab/cmpe146package_lpc1758/yagarto/bin/../lib/gcc/arm-none-eabi/4.6.2/../../../../arm-none-eabi/lib/thumb/v7m\libstdc++.a(fundamental_type_info.o)
 .group         0x00000000        0x8 c:/users/montoya/documents/classes/cmpe146/lab/cmpe146package_lpc1758/yagarto/bin/../lib/gcc/arm-none-eabi/4.6.2/../../../../arm-none-eabi/lib/thumb/v7m\libstdc++.a(fundamental_type_info.o)
 .group         0x00000000        0x8 c:/users/montoya/documents/classes/cmpe146/lab/cmpe146package_lpc1758/yagarto/bin/../lib/gcc/arm-none-eabi/4.6.2/../../../../arm-none-eabi/lib/thumb/v7m\libstdc++.a(fundamental_type_info.o)
 .group         0x00000000        0x8 c:/users/montoya/documents/classes/cmpe146/lab/cmpe146package_lpc1758/yagarto/bin/../lib/gcc/arm-none-eabi/4.6.2/../../../../arm-none-eabi/lib/thumb/v7m\libstdc++.a(fundamental_type_info.o)
 .group         0x00000000        0x8 c:/users/montoya/documents/classes/cmpe146/lab/cmpe146package_lpc1758/yagarto/bin/../lib/gcc/arm-none-eabi/4.6.2/../../../../arm-none-eabi/lib/thumb/v7m\libstdc++.a(fundamental_type_info.o)
 .group         0x00000000        0x8 c:/users/montoya/documents/classes/cmpe146/lab/cmpe146package_lpc1758/yagarto/bin/../lib/gcc/arm-none-eabi/4.6.2/../../../../arm-none-eabi/lib/thumb/v7m\libstdc++.a(fundamental_type_info.o)
 .group         0x00000000        0x8 c:/users/montoya/documents/classes/cmpe146/lab/cmpe146package_lpc1758/yagarto/bin/../lib/gcc/arm-none-eabi/4.6.2/../../../../arm-none-eabi/lib/thumb/v7m\libstdc++.a(fundamental_type_info.o)
 .group         0x00000000        0x8 c:/users/montoya/documents/classes/cmpe146/lab/cmpe146package_lpc1758/yagarto/bin/../lib/gcc/arm-none-eabi/4.6.2/../../../../arm-none-eabi/lib/thumb/v7m\libstdc++.a(fundamental_type_info.o)
 .group         0x00000000        0x8 c:/users/montoya/documents/classes/cmpe146/lab/cmpe146package_lpc1758/yagarto/bin/../lib/gcc/arm-none-eabi/4.6.2/../../../../arm-none-eabi/lib/thumb/v7m\libstdc++.a(fundamental_type_info.o)
 .group         0x00000000        0x8 c:/users/montoya/documents/classes/cmpe146/lab/cmpe146package_lpc1758/yagarto/bin/../lib/gcc/arm-none-eabi/4.6.2/../../../../arm-none-eabi/lib/thumb/v7m\libstdc++.a(fundamental_type_info.o)
 .group         0x00000000        0x8 c:/users/montoya/documents/classes/cmpe146/lab/cmpe146package_lpc1758/yagarto/bin/../lib/gcc/arm-none-eabi/4.6.2/../../../../arm-none-eabi/lib/thumb/v7m\libstdc++.a(fundamental_type_info.o)
 .group         0x00000000        0x8 c:/users/montoya/documents/classes/cmpe146/lab/cmpe146package_lpc1758/yagarto/bin/../lib/gcc/arm-none-eabi/4.6.2/../../../../arm-none-eabi/lib/thumb/v7m\libstdc++.a(fundamental_type_info.o)
 .group         0x00000000        0x8 c:/users/montoya/documents/classes/cmpe146/lab/cmpe146package_lpc1758/yagarto/bin/../lib/gcc/arm-none-eabi/4.6.2/../../../../arm-none-eabi/lib/thumb/v7m\libstdc++.a(fundamental_type_info.o)
 .group         0x00000000        0x8 c:/users/montoya/documents/classes/cmpe146/lab/cmpe146package_lpc1758/yagarto/bin/../lib/gcc/arm-none-eabi/4.6.2/../../../../arm-none-eabi/lib/thumb/v7m\libstdc++.a(fundamental_type_info.o)
 .group         0x00000000        0x8 c:/users/montoya/documents/classes/cmpe146/lab/cmpe146package_lpc1758/yagarto/bin/../lib/gcc/arm-none-eabi/4.6.2/../../../../arm-none-eabi/lib/thumb/v7m\libstdc++.a(fundamental_type_info.o)
 .group         0x00000000        0x8 c:/users/montoya/documents/classes/cmpe146/lab/cmpe146package_lpc1758/yagarto/bin/../lib/gcc/arm-none-eabi/4.6.2/../../../../arm-none-eabi/lib/thumb/v7m\libstdc++.a(fundamental_type_info.o)
 .group         0x00000000        0x8 c:/users/montoya/documents/classes/cmpe146/lab/cmpe146package_lpc1758/yagarto/bin/../lib/gcc/arm-none-eabi/4.6.2/../../../../arm-none-eabi/lib/thumb/v7m\libstdc++.a(fundamental_type_info.o)
 .group         0x00000000        0x8 c:/users/montoya/documents/classes/cmpe146/lab/cmpe146package_lpc1758/yagarto/bin/../lib/gcc/arm-none-eabi/4.6.2/../../../../arm-none-eabi/lib/thumb/v7m\libstdc++.a(fundamental_type_info.o)
 .group         0x00000000        0x8 c:/users/montoya/documents/classes/cmpe146/lab/cmpe146package_lpc1758/yagarto/bin/../lib/gcc/arm-none-eabi/4.6.2/../../../../arm-none-eabi/lib/thumb/v7m\libstdc++.a(fundamental_type_info.o)
 .group         0x00000000        0x8 c:/users/montoya/documents/classes/cmpe146/lab/cmpe146package_lpc1758/yagarto/bin/../lib/gcc/arm-none-eabi/4.6.2/../../../../arm-none-eabi/lib/thumb/v7m\libstdc++.a(fundamental_type_info.o)
 .group         0x00000000        0x8 c:/users/montoya/documents/classes/cmpe146/lab/cmpe146package_lpc1758/yagarto/bin/../lib/gcc/arm-none-eabi/4.6.2/../../../../arm-none-eabi/lib/thumb/v7m\libstdc++.a(fundamental_type_info.o)
 .group         0x00000000        0x8 c:/users/montoya/documents/classes/cmpe146/lab/cmpe146package_lpc1758/yagarto/bin/../lib/gcc/arm-none-eabi/4.6.2/../../../../arm-none-eabi/lib/thumb/v7m\libstdc++.a(fundamental_type_info.o)
 .group         0x00000000        0x8 c:/users/montoya/documents/classes/cmpe146/lab/cmpe146package_lpc1758/yagarto/bin/../lib/gcc/arm-none-eabi/4.6.2/../../../../arm-none-eabi/lib/thumb/v7m\libstdc++.a(fundamental_type_info.o)
 .group         0x00000000        0x8 c:/users/montoya/documents/classes/cmpe146/lab/cmpe146package_lpc1758/yagarto/bin/../lib/gcc/arm-none-eabi/4.6.2/../../../../arm-none-eabi/lib/thumb/v7m\libstdc++.a(fundamental_type_info.o)
 .group         0x00000000        0x8 c:/users/montoya/documents/classes/cmpe146/lab/cmpe146package_lpc1758/yagarto/bin/../lib/gcc/arm-none-eabi/4.6.2/../../../../arm-none-eabi/lib/thumb/v7m\libstdc++.a(fundamental_type_info.o)
 .group         0x00000000        0x8 c:/users/montoya/documents/classes/cmpe146/lab/cmpe146package_lpc1758/yagarto/bin/../lib/gcc/arm-none-eabi/4.6.2/../../../../arm-none-eabi/lib/thumb/v7m\libstdc++.a(fundamental_type_info.o)
 .group         0x00000000        0x8 c:/users/montoya/documents/classes/cmpe146/lab/cmpe146package_lpc1758/yagarto/bin/../lib/gcc/arm-none-eabi/4.6.2/../../../../arm-none-eabi/lib/thumb/v7m\libstdc++.a(fundamental_type_info.o)
 .group         0x00000000        0x8 c:/users/montoya/documents/classes/cmpe146/lab/cmpe146package_lpc1758/yagarto/bin/../lib/gcc/arm-none-eabi/4.6.2/../../../../arm-none-eabi/lib/thumb/v7m\libstdc++.a(fundamental_type_info.o)
 .group         0x00000000        0x8 c:/users/montoya/documents/classes/cmpe146/lab/cmpe146package_lpc1758/yagarto/bin/../lib/gcc/arm-none-eabi/4.6.2/../../../../arm-none-eabi/lib/thumb/v7m\libstdc++.a(fundamental_type_info.o)
 .group         0x00000000        0x8 c:/users/montoya/documents/classes/cmpe146/lab/cmpe146package_lpc1758/yagarto/bin/../lib/gcc/arm-none-eabi/4.6.2/../../../../arm-none-eabi/lib/thumb/v7m\libstdc++.a(fundamental_type_info.o)
 .group         0x00000000        0x8 c:/users/montoya/documents/classes/cmpe146/lab/cmpe146package_lpc1758/yagarto/bin/../lib/gcc/arm-none-eabi/4.6.2/../../../../arm-none-eabi/lib/thumb/v7m\libstdc++.a(fundamental_type_info.o)
 .group         0x00000000        0x8 c:/users/montoya/documents/classes/cmpe146/lab/cmpe146package_lpc1758/yagarto/bin/../lib/gcc/arm-none-eabi/4.6.2/../../../../arm-none-eabi/lib/thumb/v7m\libstdc++.a(fundamental_type_info.o)
 .group         0x00000000        0x8 c:/users/montoya/documents/classes/cmpe146/lab/cmpe146package_lpc1758/yagarto/bin/../lib/gcc/arm-none-eabi/4.6.2/../../../../arm-none-eabi/lib/thumb/v7m\libstdc++.a(fundamental_type_info.o)
 .group         0x00000000        0x8 c:/users/montoya/documents/classes/cmpe146/lab/cmpe146package_lpc1758/yagarto/bin/../lib/gcc/arm-none-eabi/4.6.2/../../../../arm-none-eabi/lib/thumb/v7m\libstdc++.a(fundamental_type_info.o)
 .group         0x00000000        0x8 c:/users/montoya/documents/classes/cmpe146/lab/cmpe146package_lpc1758/yagarto/bin/../lib/gcc/arm-none-eabi/4.6.2/../../../../arm-none-eabi/lib/thumb/v7m\libstdc++.a(fundamental_type_info.o)
 .group         0x00000000        0x8 c:/users/montoya/documents/classes/cmpe146/lab/cmpe146package_lpc1758/yagarto/bin/../lib/gcc/arm-none-eabi/4.6.2/../../../../arm-none-eabi/lib/thumb/v7m\libstdc++.a(fundamental_type_info.o)
 .group         0x00000000        0x8 c:/users/montoya/documents/classes/cmpe146/lab/cmpe146package_lpc1758/yagarto/bin/../lib/gcc/arm-none-eabi/4.6.2/../../../../arm-none-eabi/lib/thumb/v7m\libstdc++.a(fundamental_type_info.o)
 .group         0x00000000        0x8 c:/users/montoya/documents/classes/cmpe146/lab/cmpe146package_lpc1758/yagarto/bin/../lib/gcc/arm-none-eabi/4.6.2/../../../../arm-none-eabi/lib/thumb/v7m\libstdc++.a(fundamental_type_info.o)
 .group         0x00000000        0x8 c:/users/montoya/documents/classes/cmpe146/lab/cmpe146package_lpc1758/yagarto/bin/../lib/gcc/arm-none-eabi/4.6.2/../../../../arm-none-eabi/lib/thumb/v7m\libstdc++.a(fundamental_type_info.o)
 .group         0x00000000        0x8 c:/users/montoya/documents/classes/cmpe146/lab/cmpe146package_lpc1758/yagarto/bin/../lib/gcc/arm-none-eabi/4.6.2/../../../../arm-none-eabi/lib/thumb/v7m\libstdc++.a(fundamental_type_info.o)
 .group         0x00000000        0x8 c:/users/montoya/documents/classes/cmpe146/lab/cmpe146package_lpc1758/yagarto/bin/../lib/gcc/arm-none-eabi/4.6.2/../../../../arm-none-eabi/lib/thumb/v7m\libstdc++.a(fundamental_type_info.o)
 .group         0x00000000        0x8 c:/users/montoya/documents/classes/cmpe146/lab/cmpe146package_lpc1758/yagarto/bin/../lib/gcc/arm-none-eabi/4.6.2/../../../../arm-none-eabi/lib/thumb/v7m\libstdc++.a(fundamental_type_info.o)
 .group         0x00000000        0x8 c:/users/montoya/documents/classes/cmpe146/lab/cmpe146package_lpc1758/yagarto/bin/../lib/gcc/arm-none-eabi/4.6.2/../../../../arm-none-eabi/lib/thumb/v7m\libstdc++.a(fundamental_type_info.o)
 .group         0x00000000        0x8 c:/users/montoya/documents/classes/cmpe146/lab/cmpe146package_lpc1758/yagarto/bin/../lib/gcc/arm-none-eabi/4.6.2/../../../../arm-none-eabi/lib/thumb/v7m\libstdc++.a(fundamental_type_info.o)
 .group         0x00000000        0x8 c:/users/montoya/documents/classes/cmpe146/lab/cmpe146package_lpc1758/yagarto/bin/../lib/gcc/arm-none-eabi/4.6.2/../../../../arm-none-eabi/lib/thumb/v7m\libstdc++.a(fundamental_type_info.o)
 .group         0x00000000        0x8 c:/users/montoya/documents/classes/cmpe146/lab/cmpe146package_lpc1758/yagarto/bin/../lib/gcc/arm-none-eabi/4.6.2/../../../../arm-none-eabi/lib/thumb/v7m\libstdc++.a(fundamental_type_info.o)
 .group         0x00000000        0x8 c:/users/montoya/documents/classes/cmpe146/lab/cmpe146package_lpc1758/yagarto/bin/../lib/gcc/arm-none-eabi/4.6.2/../../../../arm-none-eabi/lib/thumb/v7m\libstdc++.a(fundamental_type_info.o)
 .group         0x00000000       0x10 c:/users/montoya/documents/classes/cmpe146/lab/cmpe146package_lpc1758/yagarto/bin/../lib/gcc/arm-none-eabi/4.6.2/../../../../arm-none-eabi/lib/thumb/v7m\libstdc++.a(pbase_type_info.o)

Memory Configuration

Name             Origin             Length             Attributes
MFlash512        0x00001000         0x00080000         xr
RamLoc32         0x10000000         0x00008000         xrw
RamAHB32         0x2007c000         0x00008000         xrw
*default*        0x00000000         0xffffffff

Linker script and memory map

LOAD ./newlib/memory.o
LOAD ./newlib/printf_lib.o
LOAD ./newlib/syscalls.o
LOAD ./L5_Application/source/handlers.o
LOAD ./L5_Application/source/high_level_init.o
LOAD ./L5_Application/source/misc.o
LOAD ./L5_Application/source/tasks.o
LOAD ./L5_Application/ServoMotors/servoMotor.o
LOAD ./L5_Application/MatrixDisplay/matrixDisplay.o
LOAD ./L5_Application/LightSensors/lightSensors.o
LOAD ./L5_Application/main.o
LOAD ./L4_IO/src/io_source.o
LOAD ./L4_IO/src/storage.o
LOAD ./L4_IO/fat/option/ccsbcs.o
LOAD ./L4_IO/fat/option/reentrant.o
LOAD ./L4_IO/fat/disk/diskio.o
LOAD ./L4_IO/fat/disk/sd.o
LOAD ./L4_IO/fat/disk/spi_flash.o
LOAD ./L4_IO/fat/fatfs_time.o
LOAD ./L4_IO/fat/ff.o
LOAD ./L3_Utils/tlm/src/c_list.o
LOAD ./L3_Utils/tlm/src/c_tlm_binary.o
LOAD ./L3_Utils/tlm/src/c_tlm_comp.o
LOAD ./L3_Utils/tlm/src/c_tlm_stream.o
LOAD ./L3_Utils/tlm/src/c_tlm_var.o
LOAD ./L3_Utils/src/command_handler.o
LOAD ./L3_Utils/src/cpp_task.o
LOAD ./L3_Utils/src/file_logger.o
LOAD ./L3_Utils/src/freertos_timer.o
LOAD ./L3_Utils/src/logger.o
LOAD ./L3_Utils/src/rit_isr.o
LOAD ./L3_Utils/src/rtc_alarm.o
LOAD ./L3_Utils/src/str.o
LOAD ./L3_Utils/src/utilities.o
LOAD ./L2_Drivers/src/i2c2.o
LOAD ./L2_Drivers/src/i2c_base.o
LOAD ./L2_Drivers/src/pwm.o
LOAD ./L2_Drivers/src/rtc.o
LOAD ./L2_Drivers/src/spi1.o
LOAD ./L2_Drivers/src/spi_dma.o
LOAD ./L2_Drivers/src/uart0.o
LOAD ./L2_Drivers/src/uart2.o
LOAD ./L2_Drivers/src/uart3.o
LOAD ./L2_Drivers/src/uart_base.o
LOAD ./L2_Drivers/src/uart_iface.o
LOAD ./L1_FreeRTOS/src/croutine.o
LOAD ./L1_FreeRTOS/src/list.o
LOAD ./L1_FreeRTOS/src/queue.o
LOAD ./L1_FreeRTOS/src/tasks.o
LOAD ./L1_FreeRTOS/src/tasks.inc.o
LOAD ./L1_FreeRTOS/src/timers.o
LOAD ./L1_FreeRTOS/portable/port.o
LOAD ./L1_FreeRTOS/hooks/hooks.o
LOAD ./L1_FreeRTOS/MemMang/heap_3.o
LOAD ./L0_LowLevel/source/core_cm3.o
LOAD ./L0_LowLevel/source/cr_startup_lpc175x.o
LOAD ./L0_LowLevel/source/sys_clock.o
LOAD ./L0_LowLevel/source/system_init.o
LOAD ./L0_LowLevel/source/uart0_min.o
LOAD c:/users/montoya/documents/classes/cmpe146/lab/cmpe146package_lpc1758/yagarto/bin/../lib/gcc/arm-none-eabi/4.6.2/../../../../arm-none-eabi/lib/thumb/v7m\libstdc++.a
LOAD c:/users/montoya/documents/classes/cmpe146/lab/cmpe146package_lpc1758/yagarto/bin/../lib/gcc/arm-none-eabi/4.6.2/../../../../arm-none-eabi/lib/thumb/v7m\libm.a
START GROUP
LOAD c:/users/montoya/documents/classes/cmpe146/lab/cmpe146package_lpc1758/yagarto/bin/../lib/gcc/arm-none-eabi/4.6.2/thumb/v7m\libgcc.a
LOAD c:/users/montoya/documents/classes/cmpe146/lab/cmpe146package_lpc1758/yagarto/bin/../lib/gcc/arm-none-eabi/4.6.2/../../../../arm-none-eabi/lib/thumb/v7m\libc.a
END GROUP
                0x00080000                __top_MFlash512 = 0x80000
                0x10008000                __top_RamLoc32 = 0x10008000
                0x20084000                __top_RamAHB32 = 0x20084000

.text           0x00001000    0x189b8
 FILL mask 0xff
 *(.isr_vector)
 .isr_vector    0x00001000       0xcc ./L0_LowLevel/source/cr_startup_lpc175x.o
                0x00001000                g_pfnVectors
                0x000010cc                . = ALIGN (0x4)
                0x000010cc                __section_table_start = .
                0x000010cc                __data_section_table = .
                0x000010cc        0x4 LONG 0x19cec LOADADDR (.data)
                0x000010d0        0x4 LONG 0x2007c000 ADDR (.data)
                0x000010d4        0x4 LONG 0x8e0 SIZEOF (.data)
                0x000010d8                __data_section_table_end = .
                0x000010d8                __bss_section_table = .
                0x000010d8        0x4 LONG 0x2007c8e0 ADDR (.bss)
                0x000010dc        0x4 LONG 0xcac SIZEOF (.bss)
                0x000010e0                __bss_section_table_end = .
                0x000010e0                __section_table_end = .
 *(.after_vectors*)
 .after_vectors
                0x000010e0      0x14c ./L0_LowLevel/source/cr_startup_lpc175x.o
                0x000010e0                HardFault_Handler
                0x000010fa                DebugMon_Handler
                0x00001108                UsageFault_Handler
                0x00001118                BusFault_Handler
                0x00001128                MemManage_Handler
                0x00001138                NMI_Handler
                0x00001148                data_init(unsigned int, unsigned int, unsigned int)
                0x0000115a                bss_init(unsigned int, unsigned int)
                0x0000116a                ResetISR
                0x000011ec                SVC_Handler
                0x000011fc                PendSV_Handler
                0x0000120c                SysTick_Handler
                0x0000121c                EINT3_IRQHandler
                0x0000121c                CANActivity_IRQHandler
                0x0000121c                TIMER3_IRQHandler
                0x0000121c                UART1_IRQHandler
                0x0000121c                IntDefaultHandler
                0x0000121c                PLL0_IRQHandler
                0x0000121c                PWM1_IRQHandler
                0x0000121c                PLL1_IRQHandler
                0x0000121c                EINT2_IRQHandler
                0x0000121c                I2S_IRQHandler
                0x0000121c                TIMER0_IRQHandler
                0x0000121c                SPI_IRQHandler
                0x0000121c                EINT1_IRQHandler
                0x0000121c                ADC_IRQHandler
                0x0000121c                SSP1_IRQHandler
                0x0000121c                USBActivity_IRQHandler
                0x0000121c                USB_IRQHandler
                0x0000121c                BOD_IRQHandler
                0x0000121c                SSP0_IRQHandler
                0x0000121c                I2C0_IRQHandler
                0x0000121c                WDT_IRQHandler
                0x0000121c                I2C1_IRQHandler
                0x0000121c                QEI_IRQHandler
                0x0000121c                EINT0_IRQHandler
                0x0000121c                CAN_IRQHandler
                0x0000121c                DMA_IRQHandler
                0x0000121c                TIMER2_IRQHandler
                0x0000121c                MCPWM_IRQHandler
                0x0000121c                ENET_IRQHandler
 *(.text*)
 .text          0x0000122c       0xe0 ./newlib/memory.o
                0x0000122c                _sbrk
                0x0000127c                operator new(unsigned int)
                0x00001280                operator new[](unsigned int)
                0x00001284                operator delete(void*)
                0x00001288                operator delete[](void*)
                0x0000128c                getMemoryInfo
                0x00001304                __aeabi_atexit
                0x00001308                __gnu_cxx::__verbose_terminate_handler()
 .text          0x0000130c       0x30 ./newlib/printf_lib.o
                0x0000130c                printf
                0x00001324                sprintf
 .text          0x0000133c       0xa0 ./newlib/syscalls.o
                0x0000133c                printMessageUponCriticalSystemError
                0x00001350                stdio_SetOutputCharFunction
                0x0000135c                stdio_SetInputCharFunction
                0x00001368                _kill
                0x0000136c                _exit
                0x0000136e                _getpid
                0x00001372                _init
                0x00001376                _write
                0x0000139c                _read
                0x000013c8                syscallsInit
                0x000013ca                _fstat
                0x000013ce                _isatty
                0x000013d2                _lseek
                0x000013d6                _close
 .text          0x000013dc      0x994 ./L5_Application/source/handlers.o
                0x000013dc                taskListHandler(str&, str&, void*, int)
                0x00001430                memInfoHandler(str&, str&, void*, int)
                0x0000144c                timeHandler(str&, str&, void*, int)
                0x00001580                cpHandler(str&, str&, void*, int)
                0x00001618                mkdirHandler(str&, str&, void*, int)
                0x00001644                rmHandler(str&, str&, void*, int)
                0x00001680                mvHandler(str&, str&, void*, int)
                0x000016e0                storageHandler(str&, str&, void*, int)
                0x000017b8                learnIrHandler(str&, str&, void*, int)
                0x000017dc                dcpHandler(str&, str&, void*, int)
                0x00001908                lsHandler(str&, str&, void*, int)
                0x00001aa4                catHandler(str&, str&, void*, int)
                0x00001b90                healthHandler(str&, str&, void*, int)
                0x00001cd0                rebootHandler(str&, str&, void*, int)
                0x00001d04                logHandler(str&, str&, void*, int)
 .text._ZN7Storage13getFlashDriveEv
                0x00001d70       0x48 ./L5_Application/source/handlers.o
                0x00001d70                Storage::getFlashDrive()
 .text._ZN7Storage10getSDDriveEv
                0x00001db8       0x4c ./L5_Application/source/handlers.o
                0x00001db8                Storage::getSDDrive()
 .text._ZN17SingletonTemplateI5Uart0E11getInstanceEv
                0x00001e04       0x20 ./L5_Application/source/handlers.o
                0x00001e04                SingletonTemplate<Uart0>::getInstance()
 .text._ZN17SingletonTemplateI10FileLoggerE11getInstanceEv
                0x00001e24       0x20 ./L5_Application/source/handlers.o
                0x00001e24                SingletonTemplate<FileLogger>::getInstance()
 .text          0x00001e44      0x334 ./L5_Application/source/high_level_init.o
                0x00001e44                printLine()
                0x00001e50                mountStorage(FileSystemObject&, char const*)
                0x00001ec8                copyLogFileToSDCard()
                0x00001f1c                initializeBoardIO()
                0x00001f74                discoverExternalDevsOnI2C()
                0x00001fb8                highLevelInitialize()
 .text.adc0_initialize
                0x00002178       0xc0 ./L5_Application/source/high_level_init.o
                0x00002178                adc0_initialize
 .text._ZN17SingletonTemplateI4I2C2E11getInstanceEv
                0x00002238       0x20 ./L5_Application/source/high_level_init.o
                0x00002238                SingletonTemplate<I2C2>::getInstance()
 .text          0x00002258       0x44 ./L5_Application/source/misc.o
                0x00002258                getHandles
 .text          0x0000229c      0x6e8 ./L5_Application/source/tasks.o
                0x0000229c                terminalTask::regTlm()
                0x000022a0                remoteTask::regTlm()
                0x000022a4                remoteTask::init()
                0x000022c2                terminalTask::init()
                0x00002474                terminalTask::terminalTask()
                0x00002474                terminalTask::terminalTask()
                0x000024ec                terminalTask::restoreTlm()
                0x000024ee                terminalTask::saveDiskTlm()
                0x000024f2                remoteTask::remoteTask()
                0x000024f2                remoteTask::remoteTask()
                0x0000252c                remoteTask::getNumberFromCode(unsigned long, unsigned long&)
                0x00002548                ServoDirectionTask(void*)
                0x00002598                MatrixTask(void*)
                0x000025cc                getline(str&, int)
                0x000026a4                terminalTask::run(void*)
                0x00002730                terminalTask::taskEntry()
                0x00002774                remoteTask::taskEntry()
                0x00002782                LightSensorsTask(void*)
                0x00002808                remoteTask::run(void*)
 .text._ZN14scheduler_taskD2Ev
                0x00002984        0xc ./L5_Application/source/tasks.o
                0x00002984                scheduler_task::~scheduler_task()
                0x00002984                scheduler_task::~scheduler_task()
 .text._ZN14scheduler_task4initEv
                0x00002990        0x4 ./L5_Application/source/tasks.o
                0x00002990                scheduler_task::init()
 .text._ZN14scheduler_task6regTlmEv
                0x00002994        0x4 ./L5_Application/source/tasks.o
                0x00002994                scheduler_task::regTlm()
 .text._ZN14scheduler_task9taskEntryEv
                0x00002998        0x4 ./L5_Application/source/tasks.o
                0x00002998                scheduler_task::taskEntry()
 .text._ZN10remoteTaskD2Ev
                0x0000299c        0xc ./L5_Application/source/tasks.o
                0x0000299c                remoteTask::~remoteTask()
                0x0000299c                remoteTask::~remoteTask()
 .text._ZN10remoteTaskD0Ev
                0x000029a8       0x14 ./L5_Application/source/tasks.o
                0x000029a8                remoteTask::~remoteTask()
 .text._ZN14scheduler_taskD0Ev
                0x000029bc       0x14 ./L5_Application/source/tasks.o
                0x000029bc                scheduler_task::~scheduler_task()
 .text._ZN12terminalTaskD2Ev
                0x000029d0       0x3c ./L5_Application/source/tasks.o
                0x000029d0                terminalTask::~terminalTask()
                0x000029d0                terminalTask::~terminalTask()
 .text._ZN12terminalTaskD0Ev
                0x00002a0c       0x12 ./L5_Application/source/tasks.o
                0x00002a0c                terminalTask::~terminalTask()
 *fill*         0x00002a1e        0x2 00
 .text._ZN17SingletonTemplateI11LED_DisplayE11getInstanceEv
                0x00002a20       0x40 ./L5_Application/source/tasks.o
                0x00002a20                SingletonTemplate<LED_Display>::getInstance()
 .text._ZN17SingletonTemplateI9IR_SensorE11getInstanceEv
                0x00002a60       0x18 ./L5_Application/source/tasks.o
                0x00002a60                SingletonTemplate<IR_Sensor>::getInstance()
 .text          0x00002a78       0xf0 ./L5_Application/ServoMotors/servoMotor.o
                0x00002a78                change_direction_withDegree(double, ServoMotors::Enum)
                0x00002b18                initilize_motor()
 .text          0x00002b68      0x168 ./L5_Application/MatrixDisplay/matrixDisplay.o
                0x00002b68                initilize_matrix()
                0x00002b8c                CS_Low()
                0x00002b9c                CS_High()
                0x00002bac                writeMatrix(unsigned char, unsigned char)
                0x00002be8                clearMatrix()
                0x00002bfc                paintPixel(int, int, int)
                0x00002c84                ht1632_sendcmd(unsigned char)
                0x00002c90                ht1632_setup()
 .text          0x00002cd0      0x160 ./L5_Application/LightSensors/lightSensors.o
                0x00002d08                getDirectionTop(LightSensors::Enum)
                0x00002d7c                getDirectionBase(LightSensors::Enum)
                0x00002dec                checkDegree(int)
                0x00002e2c                setDegree(int, int)
 .text          0x00002e30        0x0 ./L5_Application/main.o
 .text.startup  0x00002e30       0x94 ./L5_Application/main.o
                0x00002e30                main
 *fill*         0x00002ec4        0x4 00
 .text          0x00002ec8      0x508 ./L4_IO/src/io_source.o
                0x00002ec8                Acceleration_Sensor::init()
                0x00002eea                Acceleration_Sensor::getX()
                0x00002efc                Acceleration_Sensor::getY()
                0x00002f0e                Acceleration_Sensor::getZ()
                0x00002f20                TIMER1_IRQHandler
                0x00002fc0                IR_Sensor::init()
                0x0000303c                IR_Sensor::isIRCodeReceived()
                0x00003050                IR_Sensor::getLastIRCode()
                0x00003064                LED_Display::setLeftDigit(char)
                0x00003074                LED_Display::setRightDigit(char)
                0x00003084                LED_Display::setNumber(char)
                0x000030ba                LED_Display::clear()
                0x000030ce                LED_Display::init()
                0x0000310a                LED::init()
                0x00003120                LED::setAll(char)
                0x00003188                LED::off(int)
                0x0000319a                LED::on(int)
                0x000031ac                Light_Sensor::init()
                0x000031d0                Light_Sensor::getRawValue()
                0x000031d6                Light_Sensor::getPercentValue()
                0x000031e8                Switches::init()
                0x000031f8                Switches::getSwitchValues()
                0x00003204                Switches::getSwitch(int)
                0x00003218                TemperatureSensor::init()
                0x0000323a                TemperatureSensor::getCelsius()
                0x00003266                TemperatureSensor::getFarenheit()
                0x0000328c                Photo_Sensor::init()
                0x00003298                Photo_Sensor::getRawValue()
                0x0000329e                Photo_Sensor::getServoValue()
                0x000032ac                Photo_Sensor::getPercentValue()
                0x000032d4                Servo_Motor::init()
                0x000032f8                Servo_Motor::change_direction(float)
                0x00003344                Servo_Motor::set_degree(float)
 .text._ZN15I2C_Device_Base8writeRegEhh
                0x000033d0       0x14 ./L4_IO/src/io_source.o
                0x000033d0                I2C_Device_Base::writeReg(unsigned char, unsigned char)
 .text._ZN15I2C_Device_Base16get16BitRegisterEh
                0x000033e4       0x28 ./L4_IO/src/io_source.o
                0x000033e4                I2C_Device_Base::get16BitRegister(unsigned char)
 .text.adc0_getReading
                0x0000340c       0x40 ./L4_IO/src/io_source.o
                0x0000340c                adc0_getReading
 .text          0x0000344c      0x196 ./L4_IO/src/storage.o
                0x0000344c                Storage::copy(char const*, char const*, unsigned int*, unsigned int*, unsigned int*)
                0x0000351a                Storage::read(char const*, void*, unsigned int, unsigned int)
                0x0000355c                Storage::write(char const*, void*, unsigned int, unsigned int)
                0x0000359e                Storage::append(char const*, void*, unsigned int, unsigned int)
 *fill*         0x000035e2        0x2 00
 .text          0x000035e4       0x64 ./L4_IO/fat/option/ccsbcs.o
                0x000035e4                ff_convert
                0x00003620                ff_wtoupper
 .text          0x00003648       0x60 ./L4_IO/fat/option/reentrant.o
                0x00003648                ff_cre_syncobj
                0x0000365c                ff_del_syncobj
                0x00003660                ff_req_grant
                0x0000368a                ff_rel_grant
 .text          0x000036a8      0x28c ./L4_IO/fat/disk/diskio.o
                0x000036a8                diskio_initializeSPIMutex
                0x000036b4                disk_initialize
                0x00003724                disk_status
                0x0000378c                disk_read
                0x0000381c                disk_write
                0x000038ac                disk_ioctl
 .text          0x00003934      0x868 ./L4_IO/fat/disk/sd.o
                0x00003934                wait_ready
                0x00003974                sd_initializeCardSignals
                0x000039b8                power_on
                0x000039ba                power_off
                0x000039f4                chk_power
                0x00003a08                rcvr_datablock
                0x00003ab4                xmit_datablock
                0x00003b2c                send_cmd
                0x00003c0c                sd_initialize
                0x00003d68                sd_status
                0x00003d74                sd_read
                0x00003e18                sd_write
                0x00003edc                sd_ioctl
                0x0000413c                sd_timerproc
 .text          0x0000419c      0x224 ./L4_IO/fat/disk/spi_flash.o
                0x0000422c                flash_InitializeSignals
                0x00004250                flash_Initialize
                0x000042c4                flash_ReadSector
                0x00004344                flash_WriteSector
                0x0000438e                flash_ioctl
 .text          0x000043c0       0x4e ./L4_IO/fat/fatfs_time.o
                0x000043c0                get_fattime
 *fill*         0x0000440e        0x2 00
 .text          0x00004410     0x23a8 ./L4_IO/fat/ff.o
                0x0000499a                clust2sect
                0x000049b0                get_fat
                0x00004ade                put_fat
                0x00005328                gen_numname
                0x00005578                f_mount
                0x000055e8                f_open
                0x000057c4                f_read
                0x00005930                f_write
                0x00005ae6                f_sync
                0x00005b48                f_close
                0x00005ba8                f_lseek
                0x00005cda                f_opendir
                0x00005d3e                f_readdir
                0x00005da0                f_stat
                0x00005de8                f_getfree
                0x00005ebe                f_truncate
                0x00005f56                f_unlink
                0x00006016                f_mkdir
                0x00006172                f_chmod
                0x000061ce                f_utime
                0x00006220                f_rename
                0x00006338                f_mkfs
 .text          0x000067b8      0x894 ./L3_Utils/tlm/src/c_list.o
                0x000067b8                del_callback
                0x000067c8                del_callback_free
                0x000067e0                c_list_create
                0x000067f8                c_list_delete
                0x00006830                c_list_node_count
                0x00006836                c_list_insert_elm_end
                0x00006866                c_list_insert_elm_beg
                0x00006890                c_list_get_elm_at
                0x000068e4                c_list_find_elm
                0x0000692c                c_list_delete_elm
                0x00006970                c_list_for_each_elm
                0x000069b2                test_list
 .text          0x0000704c        0x0 ./L3_Utils/tlm/src/c_tlm_binary.o
 .text          0x0000704c        0x0 ./L3_Utils/tlm/src/c_tlm_comp.o
 .text          0x0000704c        0x0 ./L3_Utils/tlm/src/c_tlm_stream.o
 .text          0x0000704c        0x0 ./L3_Utils/tlm/src/c_tlm_var.o
 .text          0x0000704c      0x26c ./L3_Utils/src/command_handler.o
                0x0000704c                CommandProcessor::getRegisteredCommandList(str&)
                0x000070d0                CommandProcessor::getHelpText(str&, str&)
                0x00007140                CommandProcessor::prepareCmdParam(str&, char const*, str&)
                0x00007164                CommandProcessor::handleCmd(str&, str&)
                0x00007238                CommandProcessor::handleCommand(char const*)
                0x0000728c                CommandProcessor::addHandler(void (*)(str&, str&, void*, int), char const*, char const*, void*, int)
 .text._ZN6VECTORIN16CommandProcessor16CmdProcessorTypeEE9push_backERKS1_
                0x000072b8       0x62 ./L3_Utils/src/command_handler.o
                0x000072b8                VECTOR<CommandProcessor::CmdProcessorType>::push_back(CommandProcessor::CmdProcessorType const&)
 *fill*         0x0000731a        0x2 00
 .text          0x0000731c      0x2d8 ./L3_Utils/src/cpp_task.o
                0x00007388                scheduler_c_task_private(void*)
                0x00007488                scheduler_init_all(bool)
                0x00007574                scheduler_add_task(scheduler_task*)
                0x00007598                scheduler_start(bool)
                0x000075c8                scheduler_task::scheduler_task(char const*, unsigned long, unsigned char, void*)
                0x000075c8                scheduler_task::scheduler_task(char const*, unsigned long, unsigned char, void*)
 .text          0x000075f4      0x174 ./L3_Utils/src/file_logger.o
                0x000075f4                SimpleLogger::handleCompletedBuffer(char*, unsigned int)
                0x000075fc                FileLogger::getTimestamp()
                0x00007600                FileLogger::semGive()
                0x0000761c                FileLogger::semTake()
                0x0000763a                FileLogger::handleCompletedBuffer(char*, unsigned int)
                0x000076b0                FileLogger::flush()
                0x000076ca                FileLogger::FileLogger()
                0x000076ca                FileLogger::FileLogger()
                0x000076fc                SimpleLogger::SimpleLogger(char const*, char*, int)
                0x000076fc                SimpleLogger::SimpleLogger(char const*, char*, int)
                0x00007728                SimpleLogger::printf(char const*, ...)
                0x00007762                SimpleLogger::flush()
 .text._ZN10LoggerBaseD2Ev
                0x00007768        0xc ./L3_Utils/src/file_logger.o
                0x00007768                LoggerBase::~LoggerBase()
                0x00007768                LoggerBase::~LoggerBase()
 .text._ZN10LoggerBase7semTakeEv
                0x00007774        0x2 ./L3_Utils/src/file_logger.o
                0x00007774                LoggerBase::semTake()
 .text._ZN10LoggerBase7semGiveEv
                0x00007776        0x2 ./L3_Utils/src/file_logger.o
                0x00007776                LoggerBase::semGive()
 .text._ZN10LoggerBase12getTimestampEv
                0x00007778        0x4 ./L3_Utils/src/file_logger.o
                0x00007778                LoggerBase::getTimestamp()
 .text._ZN12SimpleLoggerD2Ev
                0x0000777c        0xc ./L3_Utils/src/file_logger.o
                0x0000777c                SimpleLogger::~SimpleLogger()
                0x0000777c                SimpleLogger::~SimpleLogger()
 .text._ZN10FileLoggerD2Ev
                0x00007788        0xc ./L3_Utils/src/file_logger.o
                0x00007788                FileLogger::~FileLogger()
                0x00007788                FileLogger::~FileLogger()
 .text._ZN10FileLoggerD0Ev
                0x00007794       0x14 ./L3_Utils/src/file_logger.o
                0x00007794                FileLogger::~FileLogger()
 .text._ZN12SimpleLoggerD0Ev
                0x000077a8       0x14 ./L3_Utils/src/file_logger.o
                0x000077a8                SimpleLogger::~SimpleLogger()
 .text._ZN10LoggerBaseD0Ev
                0x000077bc       0x14 ./L3_Utils/src/file_logger.o
                0x000077bc                LoggerBase::~LoggerBase()
 .text          0x000077d0        0x0 ./L3_Utils/src/freertos_timer.o
 .text          0x000077d0      0x2ac ./L3_Utils/src/logger.o
                0x000077d0                LoggerBase::flush()
                0x000077e6                LoggerBase::log(char const*)
                0x00007834                LoggerBase::logCsvMessage(char const*, char const*, char const*, char const*, int)
                0x00007950                LoggerBase::logInfo(char const*, char const*, char const*, int)
                0x0000796c                LoggerBase::logInfoPrintf(char const*, char const*, int, char const*, ...)
                0x000079b2                LoggerBase::logWarn(char const*, char const*, char const*, int)
                0x000079d0                LoggerBase::logWarnPrintf(char const*, char const*, int, char const*, ...)
                0x00007a16                LoggerBase::logError(char const*, char const*, char const*, int)
                0x00007a34                LoggerBase::logErrorPrintf(char const*, char const*, int, char const*, ...)
 .text          0x00007a7c       0xc4 ./L3_Utils/src/rit_isr.o
                0x00007a7c                RIT_IRQHandler
                0x00007ac0                rit_get_timer_value_ms
                0x00007acc                rit_setup_callback
 .text          0x00007b40      0x19c ./L3_Utils/src/rtc_alarm.o
                0x00007ba0                rtc_EnableRecurringAlarm
                0x00007bf8                rtc_CreateDailyAlarm
                0x00007c54                RTC_IRQHandler
 .text          0x00007cdc      0xbd8 ./L3_Utils/src/str.o
                0x00007cdc                str::toInt(char const*)
                0x00007ce0                str::str(char*, int)
                0x00007ce0                str::str(char*, int)
                0x00007d06                str::~str()
                0x00007d06                str::~str()
                0x00007d2a                str::getLen() const
                0x00007d30                str::getCapacity() const
                0x00007d34                str::clear()
                0x00007d3c                str::toLower()
                0x00007d54                str::toUpper()
                0x00007d6c                str::scanf(char const*, ...)
                0x00007d86                str::compareTo(char const*) const
                0x00007d9c                str::compareToIgnoreCase(char const*) const
                0x00007dae                str::firstIndexOfIgnoreCase(char const*) const
                0x00007e2c                str::containsIgnoreCase(char const*) const
                0x00007e3a                str::firstIndexOf(char const*) const
                0x00007e50                str::contains(char const*) const
                0x00007e5e                str::lastIndexOf(char const*) const
                0x00007ea0                str::countOf(char const*) const
                0x00007ed2                str::beginsWith(char const*) const
                0x00007f04                str::beginsWithIgnoreCase(char const*) const
                0x00007f36                str::beginsWithWholeWord(char const*, char) const
                0x00007f66                str::beginsWithWholeWordIgnoreCase(char const*, char) const
                0x00007f96                str::endsWith(char const*) const
                0x00007fc8                str::endsWithIgnoreCase(char const*) const
                0x00007ffa                str::eraseFirst(int)
                0x0000802e                str::eraseLast(int)
                0x0000804e                str::eraseAllAfter(int)
                0x00008070                str::eraseAfter(int, int)
                0x000080b4                str::eraseCharAt(int)
                0x000080b8                str::erase(char const*)
                0x000080de                str::eraseAllSpecialChars()
                0x0000810e                str::trimStart(char const*)
                0x00008156                str::trimEnd(char const*)
                0x00008196                str::isAllAlpha() const
                0x000081b8                str::isAlphaNumeric() const
                0x000081da                str::isUint() const
                0x000081fe                str::isInt() const
                0x0000822e                str::checksum_Get()
                0x0000824c                str::checksum_Remove()
                0x00008264                str::operator-=(char const*)
                0x00008266                str::operator-=(str const&)
                0x0000826a                str::operator==(char const*) const
                0x0000826c                str::operator==(str const&) const
                0x00008270                str::operator==(int) const
                0x00008288                str::operator!=(char const*) const
                0x00008296                str::operator!=(str const&) const
                0x000082a6                str::operator!=(int) const
                0x000082b8                str::operator<(char const*) const
                0x000082c4                str::operator<(int) const
                0x000082d8                str::operator>(char const*) const
                0x000082ea                str::operator>(int) const
                0x000082fe                str::operator<=(char const*) const
                0x00008310                str::operator<=(int) const
                0x00008324                str::operator>=(char const*) const
                0x00008332                str::operator>=(int) const
                0x00008346                str::operator()() const
                0x0000834a                str::operator int() const
                0x00008350                str::operator[](int)
                0x00008366                str::reAllocateMem(int)
                0x000083a8                str::ensureMemoryToInsertNChars(int)
                0x000083ca                str::insertAt(int, char const*)
                0x0000842c                str::replaceAll(char const*, char const*)
                0x0000846a                str::replaceLast(char const*, char const*)
                0x0000849e                str::replaceFirst(char const*, char const*)
                0x000084d2                str::insertAtBeg(char const*)
                0x000084d8                str::insertAtEnd(char const*)
                0x000084fa                str::append(char const*)
                0x000084fc                str::operator+=(char)
                0x00008512                str::operator+=(str const&)
                0x00008516                str::operator+=(char const*)
                0x00008518                str::appendAsHex(unsigned int)
                0x00008534                str::checksum_Append()
                0x00008554                str::append(int)
                0x00008570                str::str(int)
                0x00008570                str::str(int)
                0x0000857c                str::str()
                0x0000857c                str::str()
                0x0000858a                str::reserve(int)
                0x00008596                str::subString(int, int)
                0x00008600                str::getToken(char const*, bool)
                0x00008648                str::subString(char, char)
                0x0000867c                str::subString(char const*, int)
                0x00008692                str::subString(char, int)
                0x000086a8                str::subString(int)
                0x000086c0                str::subString(char const*)
                0x000086d2                str::subString(char)
                0x000086e8                str::printf(char const*, ...)
                0x00008736                str::copyFrom(char const*)
                0x00008772                str::operator=(int)
                0x00008794                str::operator-=(int)
                0x000087b2                str::operator--(int)
                0x000087b6                str::operator--()
                0x000087ba                str::operator+=(int)
                0x000087d8                str::operator++(int)
                0x000087dc                str::operator++()
                0x000087e0                str::operator=(char const*)
                0x000087e2                str::operator=(str const&)
                0x000087f4                str::str(str const&)
                0x000087f4                str::str(str const&)
                0x00008814                str::str(char const*)
                0x00008814                str::str(char const*)
                0x00008834                str::singleHexCharToInt(unsigned char)
                0x00008854                str::hexStrDigitsToInt(char*)
                0x00008870                str::checksum_Verify()
 .text._ZN3str4initEi
                0x000088b4       0x10 ./L3_Utils/src/str.o
                0x000088b4                str::init(int)
 .text          0x000088c4      0x148 ./L3_Utils/src/utilities.o
                0x000088c4                delay_us
                0x000088ea                isFreeRtosRunning
                0x00008910                delay_ms
                0x00008930                printMemoryInfo
                0x00008958                logBootInfo
 .text          0x00008a0c       0xa8 ./L2_Drivers/src/i2c2.o
                0x00008a0c                I2C2::init(unsigned int)
                0x00008a7c                I2C2::I2C2()
                0x00008a7c                I2C2::I2C2()
                0x00008a90                I2C2_IRQHandler
 .text          0x00008ab4      0x4d8 ./L2_Drivers/src/i2c_base.o
                0x00008ab4                I2C_Base::I2C_Base(LPC_I2C_TypeDef*)
                0x00008ab4                I2C_Base::I2C_Base(LPC_I2C_TypeDef*)
                0x00008b20                I2C_Base::init(unsigned int, unsigned int)
                0x00008bb8                I2C_Base::i2cKickOffTransfer(I2C_Base::mI2cModeType, char, char, char*, int)
                0x00008be6                I2C_Base::i2cStateMachine()
                0x00008d8a                I2C_Base::writeReg(char, char, char)
                0x00008e30                I2C_Base::readRegisters(char, char, char*, unsigned int)
                0x00008f24                I2C_Base::isDevicePresent(char)
                0x00008f3e                I2C_Base::readReg(char, char)
                0x00008f5e                I2C_Base::handleInterrupt()
 .text          0x00008f8c      0x164 ./L2_Drivers/src/pwm.o
                0x00008f8c                pwmEn
                0x00008fc0                initPWM
                0x00009040                pwmUpdateMR
                0x000090ac                pwmReadMR
 .text          0x000090f0      0x154 ./L2_Drivers/src/rtc.o
                0x000090f0                rtc_gettime
                0x00009104                rtc_settime
                0x00009150                rtc_initialize
                0x000091ec                rtc_getDateTimeString
 .text          0x00009244       0x98 ./L2_Drivers/src/spi1.o
                0x00009244                spi1_SetMaxClockMhz
                0x00009280                spi1_Init
 .text          0x000092dc       0xec ./L2_Drivers/src/spi_dma.o
                0x000092dc                spiDmaInitialize
                0x00009300                spiDmaTransferBlock
 .text          0x000093c8       0xb0 ./L2_Drivers/src/uart0.o
                0x000093c8                Uart0::init(unsigned int, int, int)
                0x00009418                Uart0::Uart0()
                0x00009418                Uart0::Uart0()
                0x00009434                Uart0::putcharIntrDriven(char)
                0x0000944a                Uart0::getcharIntrDriven(char)
                0x0000946a                UART0_IRQHandler
 .text._ZN9UartIfaceD2Ev
                0x00009478        0xc ./L2_Drivers/src/uart0.o
                0x00009478                UartIface::~UartIface()
                0x00009478                UartIface::~UartIface()
 .text._ZN5Uart0D2Ev
                0x00009484        0xc ./L2_Drivers/src/uart0.o
                0x00009484                Uart0::~Uart0()
                0x00009484                Uart0::~Uart0()
 .text._ZN9UartIfaceD0Ev
                0x00009490       0x14 ./L2_Drivers/src/uart0.o
                0x00009490                UartIface::~UartIface()
 .text._ZN5Uart0D0Ev
                0x000094a4       0x14 ./L2_Drivers/src/uart0.o
                0x000094a4                Uart0::~Uart0()
 .text          0x000094b8       0x90 ./L2_Drivers/src/uart2.o
                0x000094b8                Uart2::init(unsigned int, int, int)
                0x00009508                Uart2::Uart2()
                0x00009508                Uart2::Uart2()
                0x00009524                UART2_IRQHandler
 .text._ZN5Uart2D2Ev
                0x00009548        0xc ./L2_Drivers/src/uart2.o
                0x00009548                Uart2::~Uart2()
                0x00009548                Uart2::~Uart2()
 .text._ZN5Uart2D0Ev
                0x00009554       0x14 ./L2_Drivers/src/uart2.o
                0x00009554                Uart2::~Uart2()
 .text          0x00009568       0x94 ./L2_Drivers/src/uart3.o
                0x00009568                Uart3::init(unsigned int, int, int)
                0x000095b8                Uart3::Uart3()
                0x000095b8                Uart3::Uart3()
                0x000095d8                UART3_IRQHandler
 .text._ZN5Uart3D2Ev
                0x000095fc        0xc ./L2_Drivers/src/uart3.o
                0x000095fc                Uart3::~Uart3()
                0x000095fc                Uart3::~Uart3()
 .text._ZN5Uart3D0Ev
                0x00009608       0x14 ./L2_Drivers/src/uart3.o
                0x00009608                Uart3::~Uart3()
 .text          0x0000961c      0x2a4 ./L2_Drivers/src/uart_base.o
                0x0000961c                UART_Base::putChar(char, unsigned int)
                0x00009686                UART_Base::getChar(char*, unsigned int) const
                0x000096de                UART_Base::recentlyActive(unsigned int) const
                0x000096f4                UART_Base::setBaudRate(unsigned int)
                0x00009730                UART_Base::handleInterrupt()
                0x000097ea                UART_Base::UART_Base(unsigned int*)
                0x000097ea                UART_Base::UART_Base(unsigned int*)
                0x00009800                UART_Base::init(unsigned int, unsigned int, int, int)
 .text._ZN9UART_BaseD2Ev
                0x000098c0        0xc ./L2_Drivers/src/uart_base.o
                0x000098c0                UART_Base::~UART_Base()
                0x000098c0                UART_Base::~UART_Base()
 .text._ZN9UART_BaseD0Ev
                0x000098cc       0x14 ./L2_Drivers/src/uart_base.o
                0x000098cc                UART_Base::~UART_Base()
 .text          0x000098e0      0x128 ./L2_Drivers/src/uart_iface.o
                0x000098e0                UartIface::put(char const*, unsigned int)
                0x00009902                UartIface::puts(char const*, unsigned int)
                0x0000991c                UartIface::gets(char*, int, unsigned int)
                0x0000997c                UartIface::printf(char const*, ...)
                0x000099c4                UartIface::scanf(char const*, ...)
 .text          0x00009a08        0x0 ./L1_FreeRTOS/src/croutine.o
 .text          0x00009a08       0x88 ./L1_FreeRTOS/src/list.o
                0x00009a08                vListInitialise
                0x00009a1e                vListInitialiseItem
                0x00009a24                vListInsertEnd
                0x00009a3e                vListInsert
                0x00009a6e                uxListRemove
 .text          0x00009a90      0x4e6 ./L1_FreeRTOS/src/queue.o
                0x00009b78                xQueueGenericReset
                0x00009bd4                xQueueGenericCreate
                0x00009c1c                xQueueCreateCountingSemaphore
                0x00009c2e                xQueueGenericSend
                0x00009d12                xQueueCreateMutex
                0x00009d5e                xQueueGenericSendFromISR
                0x00009db8                xQueueGenericReceive
                0x00009ecc                xQueueReceiveFromISR
                0x00009f20                uxQueueMessagesWaiting
                0x00009f32                uxQueueMessagesWaitingFromISR
                0x00009f36                vQueueDelete
                0x00009f4a                ucQueueGetQueueNumber
                0x00009f50                vQueueSetQueueNumber
                0x00009f56                ucQueueGetQueueType
                0x00009f5c                xQueueIsQueueEmptyFromISR
                0x00009f68                xQueueIsQueueFullFromISR
 *fill*         0x00009f76        0x2 00
 .text          0x00009f78      0xbc4 ./L1_FreeRTOS/src/tasks.o
                0x0000a12c                xTaskGenericCreate
                0x0000a2a8                xTaskIsTaskSuspended
                0x0000a2d0                vTaskResume
                0x0000a334                xTaskResumeFromISR
                0x0000a3ac                vTaskStartScheduler
                0x0000a3f8                vTaskEndScheduler
                0x0000a414                vTaskSuspendAll
                0x0000a428                xTaskGetTickCount
                0x0000a440                xTaskGetTickCountFromISR
                0x0000a458                uxTaskGetNumberOfTasks
                0x0000a464                vTaskIncrementTick
                0x0000a528                xTaskResumeAll
                0x0000a5e4                vTaskGetRunTimeStats
                0x0000a670                vTaskDelay
                0x0000a6a4                vTaskDelayUntil
                0x0000a700                vTaskSwitchContext
                0x0000a7b4                vTaskSuspend
                0x0000a81c                vTaskPlaceOnEventList
                0x0000a854                xTaskRemoveFromEventList
                0x0000a8b0                vTaskSetTimeOutState
                0x0000a8c4                xTaskCheckForTimeOut
                0x0000a918                vTaskMissedYield
                0x0000a928                uxTaskGetTaskNumber
                0x0000a92e                vTaskSetTaskNumber
                0x0000a934                uxTaskGetStackHighWaterMark
                0x0000a954                xTaskGetCurrentTaskHandle
                0x0000a960                xTaskGetSchedulerState
                0x0000a97c                vTaskPriorityInherit
                0x0000a9e8                vTaskPriorityDisinherit
                0x0000aa34                vTaskResetRunTimeStats
                0x0000aa98                uxTaskGetCpuUsage
                0x0000aab8                vTaskList
 .text          0x0000ab3c        0x0 ./L1_FreeRTOS/src/tasks.inc.o
 .text          0x0000ab3c        0x0 ./L1_FreeRTOS/src/timers.o
 .text          0x0000ab3c      0x190 ./L1_FreeRTOS/portable/port.o
                0x0000ab4c                pxPortInitialiseStack
                0x0000ab62                vPortSVCHandler
                0x0000ab84                vPortEndScheduler
                0x0000ab86                vPortYieldFromISR
                0x0000ab94                ulPortSetInterruptMask
                0x0000aba4                vPortEnterCritical
                0x0000abb8                vPortClearInterruptMask
                0x0000abbe                vPortExitCritical
                0x0000abd0                xPortPendSVHandler
                0x0000ac0c                xPortSysTickHandler
                0x0000ac2c                vPortSetupTimerInterrupt
                0x0000ac40                xPortStartScheduler
                0x0000ac70                vConfigureTimerForRunTimeStats
                0x0000acb4                uxGetTimerForRunTimeStats
                0x0000acbc                resetRunTimeCounter
 .text          0x0000accc       0x4c ./L1_FreeRTOS/hooks/hooks.o
                0x0000accc                vApplicationIdleHook
                0x0000acd0                vApplicationStackOverflowHook
                0x0000acfc                vApplicationMallocFailedHook
 .text          0x0000ad18       0x38 ./L1_FreeRTOS/MemMang/heap_3.o
                0x0000ad18                pvPortMalloc
                0x0000ad36                vPortFree
 .text          0x0000ad50       0x86 ./L0_LowLevel/source/core_cm3.o
                0x0000ad50                __get_PSP
                0x0000ad58                __set_PSP
                0x0000ad5e                __get_MSP
                0x0000ad66                __set_MSP
                0x0000ad6c                __get_BASEPRI
                0x0000ad72                __set_BASEPRI
                0x0000ad78                __get_PRIMASK
                0x0000ad7e                __set_PRIMASK
                0x0000ad84                __get_FAULTMASK
                0x0000ad8a                __set_FAULTMASK
                0x0000ad90                __get_CONTROL
                0x0000ad96                __set_CONTROL
                0x0000ad9c                __REV
                0x0000ada0                __REV16
                0x0000ada4                __REVSH
                0x0000ada8                __RBIT
                0x0000adae                __LDREXB
                0x0000adb6                __LDREXH
                0x0000adbe                __LDREXW
                0x0000adc4                __STREXB
                0x0000adca                __STREXH
                0x0000add0                __STREXW
 *fill*         0x0000add6        0x2 00
 .text          0x0000add8       0x94 ./L0_LowLevel/source/cr_startup_lpc175x.o
                0x0000add8                HardFault_HandlerC
 .text          0x0000ae6c      0x1f8 ./L0_LowLevel/source/sys_clock.o
                0x0000ae80                calculatePLLParameters(unsigned int, unsigned int, int*, int*, int*)
                0x0000af04                configureSystemClock()
                0x0000afc4                getCpuClock
 .text          0x0000b064      0x2e0 ./L0_LowLevel/source/system_init.o
                0x0000b090                configureFlashAccelerator(unsigned int)
                0x0000b0dc                initializeDefaultInterruptPriority()
                0x0000b200                getRebootCause
                0x0000b20c                getBootTime
                0x0000b220                lowLevelInitialize()
 .text          0x0000b344       0xb8 ./L0_LowLevel/source/uart0_min.o
                0x0000b344                uart0Init
                0x0000b3bc                uart0Putchar
                0x0000b3d0                uart0Puts
                0x0000b3ea                uart0Getchar
 .text          0x0000b3fc        0x0 c:/users/montoya/documents/classes/cmpe146/lab/cmpe146package_lpc1758/yagarto/bin/../lib/gcc/arm-none-eabi/4.6.2/../../../../arm-none-eabi/lib/thumb/v7m\libstdc++.a(guard.o)
 .text.__cxa_guard_acquire
                0x0000b3fc       0x38 c:/users/montoya/documents/classes/cmpe146/lab/cmpe146package_lpc1758/yagarto/bin/../lib/gcc/arm-none-eabi/4.6.2/../../../../arm-none-eabi/lib/thumb/v7m\libstdc++.a(guard.o)
                0x0000b3fc                __cxa_guard_acquire
 .text.__cxa_guard_abort
                0x0000b434        0x8 c:/users/montoya/documents/classes/cmpe146/lab/cmpe146package_lpc1758/yagarto/bin/../lib/gcc/arm-none-eabi/4.6.2/../../../../arm-none-eabi/lib/thumb/v7m\libstdc++.a(guard.o)
                0x0000b434                __cxa_guard_abort
 .text.__cxa_guard_release
                0x0000b43c        0x8 c:/users/montoya/documents/classes/cmpe146/lab/cmpe146package_lpc1758/yagarto/bin/../lib/gcc/arm-none-eabi/4.6.2/../../../../arm-none-eabi/lib/thumb/v7m\libstdc++.a(guard.o)
                0x0000b43c                __cxa_guard_release
 .text          0x0000b444        0x0 c:/users/montoya/documents/classes/cmpe146/lab/cmpe146package_lpc1758/yagarto/bin/../lib/gcc/arm-none-eabi/4.6.2/../../../../arm-none-eabi/lib/thumb/v7m\libstdc++.a(guard_error.o)
 .text._ZN9__gnu_cxx20recursive_init_errorD2Ev
                0x0000b444       0x14 c:/users/montoya/documents/classes/cmpe146/lab/cmpe146package_lpc1758/yagarto/bin/../lib/gcc/arm-none-eabi/4.6.2/../../../../arm-none-eabi/lib/thumb/v7m\libstdc++.a(guard_error.o)
                0x0000b444                __gnu_cxx::recursive_init_error::~recursive_init_error()
                0x0000b444                __gnu_cxx::recursive_init_error::~recursive_init_error()
 .text._ZN9__gnu_cxx20recursive_init_errorD0Ev
                0x0000b458       0x1c c:/users/montoya/documents/classes/cmpe146/lab/cmpe146package_lpc1758/yagarto/bin/../lib/gcc/arm-none-eabi/4.6.2/../../../../arm-none-eabi/lib/thumb/v7m\libstdc++.a(guard_error.o)
                0x0000b458                __gnu_cxx::recursive_init_error::~recursive_init_error()
 .text          0x0000b474        0x0 c:/users/montoya/documents/classes/cmpe146/lab/cmpe146package_lpc1758/yagarto/bin/../lib/gcc/arm-none-eabi/4.6.2/../../../../arm-none-eabi/lib/thumb/v7m\libstdc++.a(pure.o)
 .text.__cxa_pure_virtual
                0x0000b474       0x18 c:/users/montoya/documents/classes/cmpe146/lab/cmpe146package_lpc1758/yagarto/bin/../lib/gcc/arm-none-eabi/4.6.2/../../../../arm-none-eabi/lib/thumb/v7m\libstdc++.a(pure.o)
                0x0000b474                __cxa_pure_virtual
 .text          0x0000b48c        0x0 c:/users/montoya/documents/classes/cmpe146/lab/cmpe146package_lpc1758/yagarto/bin/../lib/gcc/arm-none-eabi/4.6.2/../../../../arm-none-eabi/lib/thumb/v7m\libstdc++.a(si_class_type_info.o)
 .text._ZN10__cxxabiv120__si_class_type_infoD2Ev
                0x0000b48c       0x14 c:/users/montoya/documents/classes/cmpe146/lab/cmpe146package_lpc1758/yagarto/bin/../lib/gcc/arm-none-eabi/4.6.2/../../../../arm-none-eabi/lib/thumb/v7m\libstdc++.a(si_class_type_info.o)
                0x0000b48c                __cxxabiv1::__si_class_type_info::~__si_class_type_info()
                0x0000b48c                __cxxabiv1::__si_class_type_info::~__si_class_type_info()
 .text._ZN10__cxxabiv120__si_class_type_infoD0Ev
                0x0000b4a0       0x1c c:/users/montoya/documents/classes/cmpe146/lab/cmpe146package_lpc1758/yagarto/bin/../lib/gcc/arm-none-eabi/4.6.2/../../../../arm-none-eabi/lib/thumb/v7m\libstdc++.a(si_class_type_info.o)
                0x0000b4a0                __cxxabiv1::__si_class_type_info::~__si_class_type_info()
 .text._ZNK10__cxxabiv120__si_class_type_info11__do_upcastEPKNS_17__class_type_infoEPKvRNS1_15__upcast_resultE
                0x0000b4bc       0x28 c:/users/montoya/documents/classes/cmpe146/lab/cmpe146package_lpc1758/yagarto/bin/../lib/gcc/arm-none-eabi/4.6.2/../../../../arm-none-eabi/lib/thumb/v7m\libstdc++.a(si_class_type_info.o)
                0x0000b4bc                __cxxabiv1::__si_class_type_info::__do_upcast(__cxxabiv1::__class_type_info const*, void const*, __cxxabiv1::__class_type_info::__upcast_result&) const
 .text._ZNK10__cxxabiv120__si_class_type_info12__do_dyncastEiNS_17__class_type_info10__sub_kindEPKS1_PKvS4_S6_RNS1_16__dyncast_resultE
                0x0000b4e4       0x88 c:/users/montoya/documents/classes/cmpe146/lab/cmpe146package_lpc1758/yagarto/bin/../lib/gcc/arm-none-eabi/4.6.2/../../../../arm-none-eabi/lib/thumb/v7m\libstdc++.a(si_class_type_info.o)
                0x0000b4e4                __cxxabiv1::__si_class_type_info::__do_dyncast(int, __cxxabiv1::__class_type_info::__sub_kind, __cxxabiv1::__class_type_info const*, void const*, __cxxabiv1::__class_type_info const*, void const*, __cxxabiv1::__class_type_info::__dyncast_result&) const
 .text._ZNK10__cxxabiv120__si_class_type_info20__do_find_public_srcEiPKvPKNS_17__class_type_infoES2_
                0x0000b56c       0x38 c:/users/montoya/documents/classes/cmpe146/lab/cmpe146package_lpc1758/yagarto/bin/../lib/gcc/arm-none-eabi/4.6.2/../../../../arm-none-eabi/lib/thumb/v7m\libstdc++.a(si_class_type_info.o)
                0x0000b56c                __cxxabiv1::__si_class_type_info::__do_find_public_src(int, void const*, __cxxabiv1::__class_type_info const*, void const*) const
 .text          0x0000b5a4        0x0 c:/users/montoya/documents/classes/cmpe146/lab/cmpe146package_lpc1758/yagarto/bin/../lib/gcc/arm-none-eabi/4.6.2/../../../../arm-none-eabi/lib/thumb/v7m\libstdc++.a(tinfo.o)
 .text._ZNSt9type_infoD2Ev
                0x0000b5a4        0xc c:/users/montoya/documents/classes/cmpe146/lab/cmpe146package_lpc1758/yagarto/bin/../lib/gcc/arm-none-eabi/4.6.2/../../../../arm-none-eabi/lib/thumb/v7m\libstdc++.a(tinfo.o)
                0x0000b5a4                std::type_info::~type_info()
                0x0000b5a4                std::type_info::~type_info()
 .text._ZNKSt9type_info14__is_pointer_pEv
                0x0000b5b0        0x4 c:/users/montoya/documents/classes/cmpe146/lab/cmpe146package_lpc1758/yagarto/bin/../lib/gcc/arm-none-eabi/4.6.2/../../../../arm-none-eabi/lib/thumb/v7m\libstdc++.a(tinfo.o)
                0x0000b5b0                std::type_info::__is_pointer_p() const
 .text._ZNKSt9type_info15__is_function_pEv
                0x0000b5b4        0x4 c:/users/montoya/documents/classes/cmpe146/lab/cmpe146package_lpc1758/yagarto/bin/../lib/gcc/arm-none-eabi/4.6.2/../../../../arm-none-eabi/lib/thumb/v7m\libstdc++.a(tinfo.o)
                0x0000b5b4                std::type_info::__is_function_p() const
 .text._ZNKSt9type_info11__do_upcastEPKN10__cxxabiv117__class_type_infoEPPv
                0x0000b5b8        0x4 c:/users/montoya/documents/classes/cmpe146/lab/cmpe146package_lpc1758/yagarto/bin/../lib/gcc/arm-none-eabi/4.6.2/../../../../arm-none-eabi/lib/thumb/v7m\libstdc++.a(tinfo.o)
                0x0000b5b8                std::type_info::__do_upcast(__cxxabiv1::__class_type_info const*, void**) const
 .text._ZNSt9type_infoD0Ev
                0x0000b5bc       0x14 c:/users/montoya/documents/classes/cmpe146/lab/cmpe146package_lpc1758/yagarto/bin/../lib/gcc/arm-none-eabi/4.6.2/../../../../arm-none-eabi/lib/thumb/v7m\libstdc++.a(tinfo.o)
                0x0000b5bc                std::type_info::~type_info()
 .text._ZNKSt9type_infoeqERKS_
                0x0000b5d0       0x38 c:/users/montoya/documents/classes/cmpe146/lab/cmpe146package_lpc1758/yagarto/bin/../lib/gcc/arm-none-eabi/4.6.2/../../../../arm-none-eabi/lib/thumb/v7m\libstdc++.a(tinfo.o)
                0x0000b5d0                std::type_info::operator==(std::type_info const&) const
 .text._ZNKSt9type_info10__do_catchEPKS_PPvj
                0x0000b608        0x4 c:/users/montoya/documents/classes/cmpe146/lab/cmpe146package_lpc1758/yagarto/bin/../lib/gcc/arm-none-eabi/4.6.2/../../../../arm-none-eabi/lib/thumb/v7m\libstdc++.a(tinfo.o)
                0x0000b608                std::type_info::__do_catch(std::type_info const*, void**, unsigned int) const
 .text          0x0000b60c        0x0 c:/users/montoya/documents/classes/cmpe146/lab/cmpe146package_lpc1758/yagarto/bin/../lib/gcc/arm-none-eabi/4.6.2/../../../../arm-none-eabi/lib/thumb/v7m\libstdc++.a(class_type_info.o)
 .text._ZNK10__cxxabiv117__class_type_info11__do_upcastEPKS0_PPv
                0x0000b60c       0x38 c:/users/montoya/documents/classes/cmpe146/lab/cmpe146package_lpc1758/yagarto/bin/../lib/gcc/arm-none-eabi/4.6.2/../../../../arm-none-eabi/lib/thumb/v7m\libstdc++.a(class_type_info.o)
                0x0000b60c                __cxxabiv1::__class_type_info::__do_upcast(__cxxabiv1::__class_type_info const*, void**) const
 .text._ZNK10__cxxabiv117__class_type_info20__do_find_public_srcEiPKvPKS0_S2_
                0x0000b644        0xc c:/users/montoya/documents/classes/cmpe146/lab/cmpe146package_lpc1758/yagarto/bin/../lib/gcc/arm-none-eabi/4.6.2/../../../../arm-none-eabi/lib/thumb/v7m\libstdc++.a(class_type_info.o)
                0x0000b644                __cxxabiv1::__class_type_info::__do_find_public_src(int, void const*, __cxxabiv1::__class_type_info const*, void const*) const
 .text._ZNK10__cxxabiv117__class_type_info11__do_upcastEPKS0_PKvRNS0_15__upcast_resultE
                0x0000b650       0x1c c:/users/montoya/documents/classes/cmpe146/lab/cmpe146package_lpc1758/yagarto/bin/../lib/gcc/arm-none-eabi/4.6.2/../../../../arm-none-eabi/lib/thumb/v7m\libstdc++.a(class_type_info.o)
                0x0000b650                __cxxabiv1::__class_type_info::__do_upcast(__cxxabiv1::__class_type_info const*, void const*, __cxxabiv1::__class_type_info::__upcast_result&) const
 .text._ZN10__cxxabiv117__class_type_infoD2Ev
                0x0000b66c       0x14 c:/users/montoya/documents/classes/cmpe146/lab/cmpe146package_lpc1758/yagarto/bin/../lib/gcc/arm-none-eabi/4.6.2/../../../../arm-none-eabi/lib/thumb/v7m\libstdc++.a(class_type_info.o)
                0x0000b66c                __cxxabiv1::__class_type_info::~__class_type_info()
                0x0000b66c                __cxxabiv1::__class_type_info::~__class_type_info()
 .text._ZN10__cxxabiv117__class_type_infoD0Ev
                0x0000b680       0x1c c:/users/montoya/documents/classes/cmpe146/lab/cmpe146package_lpc1758/yagarto/bin/../lib/gcc/arm-none-eabi/4.6.2/../../../../arm-none-eabi/lib/thumb/v7m\libstdc++.a(class_type_info.o)
                0x0000b680                __cxxabiv1::__class_type_info::~__class_type_info()
 .text._ZNK10__cxxabiv117__class_type_info12__do_dyncastEiNS0_10__sub_kindEPKS0_PKvS3_S5_RNS0_16__dyncast_resultE
                0x0000b69c       0x3c c:/users/montoya/documents/classes/cmpe146/lab/cmpe146package_lpc1758/yagarto/bin/../lib/gcc/arm-none-eabi/4.6.2/../../../../arm-none-eabi/lib/thumb/v7m\libstdc++.a(class_type_info.o)
                0x0000b69c                __cxxabiv1::__class_type_info::__do_dyncast(int, __cxxabiv1::__class_type_info::__sub_kind, __cxxabiv1::__class_type_info const*, void const*, __cxxabiv1::__class_type_info const*, void const*, __cxxabiv1::__class_type_info::__dyncast_result&) const
 .text._ZNK10__cxxabiv117__class_type_info10__do_catchEPKSt9type_infoPPvj
                0x0000b6d8       0x28 c:/users/montoya/documents/classes/cmpe146/lab/cmpe146package_lpc1758/yagarto/bin/../lib/gcc/arm-none-eabi/4.6.2/../../../../arm-none-eabi/lib/thumb/v7m\libstdc++.a(class_type_info.o)
                0x0000b6d8                __cxxabiv1::__class_type_info::__do_catch(std::type_info const*, void**, unsigned int) const
 .text          0x0000b700        0x0 c:/users/montoya/documents/classes/cmpe146/lab/cmpe146package_lpc1758/yagarto/bin/../lib/gcc/arm-none-eabi/4.6.2/../../../../arm-none-eabi/lib/thumb/v7m\libstdc++.a(eh_alloc.o)
 .text.__cxa_allocate_exception
                0x0000b700       0x64 c:/users/montoya/documents/classes/cmpe146/lab/cmpe146package_lpc1758/yagarto/bin/../lib/gcc/arm-none-eabi/4.6.2/../../../../arm-none-eabi/lib/thumb/v7m\libstdc++.a(eh_alloc.o)
                0x0000b700                __cxa_allocate_exception
 .text.__cxa_free_exception
                0x0000b764       0x34 c:/users/montoya/documents/classes/cmpe146/lab/cmpe146package_lpc1758/yagarto/bin/../lib/gcc/arm-none-eabi/4.6.2/../../../../arm-none-eabi/lib/thumb/v7m\libstdc++.a(eh_alloc.o)
                0x0000b764                __cxa_free_exception
 .text.__cxa_allocate_dependent_exception
                0x0000b798       0x58 c:/users/montoya/documents/classes/cmpe146/lab/cmpe146package_lpc1758/yagarto/bin/../lib/gcc/arm-none-eabi/4.6.2/../../../../arm-none-eabi/lib/thumb/v7m\libstdc++.a(eh_alloc.o)
                0x0000b798                __cxa_allocate_dependent_exception
 .text.__cxa_free_dependent_exception
                0x0000b7f0       0x44 c:/users/montoya/documents/classes/cmpe146/lab/cmpe146package_lpc1758/yagarto/bin/../lib/gcc/arm-none-eabi/4.6.2/../../../../arm-none-eabi/lib/thumb/v7m\libstdc++.a(eh_alloc.o)
                0x0000b7f0                __cxa_free_dependent_exception
 .text          0x0000b834        0x0 c:/users/montoya/documents/classes/cmpe146/lab/cmpe146package_lpc1758/yagarto/bin/../lib/gcc/arm-none-eabi/4.6.2/../../../../arm-none-eabi/lib/thumb/v7m\libstdc++.a(eh_exception.o)
 .text._ZNSt9exceptionD2Ev
                0x0000b834        0xc c:/users/montoya/documents/classes/cmpe146/lab/cmpe146package_lpc1758/yagarto/bin/../lib/gcc/arm-none-eabi/4.6.2/../../../../arm-none-eabi/lib/thumb/v7m\libstdc++.a(eh_exception.o)
                0x0000b834                std::exception::~exception()
                0x0000b834                std::exception::~exception()
 .text._ZNSt13bad_exceptionD2Ev
                0x0000b840        0xc c:/users/montoya/documents/classes/cmpe146/lab/cmpe146package_lpc1758/yagarto/bin/../lib/gcc/arm-none-eabi/4.6.2/../../../../arm-none-eabi/lib/thumb/v7m\libstdc++.a(eh_exception.o)
                0x0000b840                std::bad_exception::~bad_exception()
                0x0000b840                std::bad_exception::~bad_exception()
 .text._ZN10__cxxabiv115__forced_unwindD2Ev
                0x0000b84c        0xc c:/users/montoya/documents/classes/cmpe146/lab/cmpe146package_lpc1758/yagarto/bin/../lib/gcc/arm-none-eabi/4.6.2/../../../../arm-none-eabi/lib/thumb/v7m\libstdc++.a(eh_exception.o)
                0x0000b84c                __cxxabiv1::__forced_unwind::~__forced_unwind()
                0x0000b84c                __cxxabiv1::__forced_unwind::~__forced_unwind()
 .text._ZN10__cxxabiv119__foreign_exceptionD2Ev
                0x0000b858        0xc c:/users/montoya/documents/classes/cmpe146/lab/cmpe146package_lpc1758/yagarto/bin/../lib/gcc/arm-none-eabi/4.6.2/../../../../arm-none-eabi/lib/thumb/v7m\libstdc++.a(eh_exception.o)
                0x0000b858                __cxxabiv1::__foreign_exception::~__foreign_exception()
                0x0000b858                __cxxabiv1::__foreign_exception::~__foreign_exception()
 .text._ZNKSt9exception4whatEv
                0x0000b864        0xc c:/users/montoya/documents/classes/cmpe146/lab/cmpe146package_lpc1758/yagarto/bin/../lib/gcc/arm-none-eabi/4.6.2/../../../../arm-none-eabi/lib/thumb/v7m\libstdc++.a(eh_exception.o)
                0x0000b864                std::exception::what() const
 .text._ZNKSt13bad_exception4whatEv
                0x0000b870        0xc c:/users/montoya/documents/classes/cmpe146/lab/cmpe146package_lpc1758/yagarto/bin/../lib/gcc/arm-none-eabi/4.6.2/../../../../arm-none-eabi/lib/thumb/v7m\libstdc++.a(eh_exception.o)
                0x0000b870                std::bad_exception::what() const
 .text._ZN10__cxxabiv119__foreign_exceptionD0Ev
                0x0000b87c       0x14 c:/users/montoya/documents/classes/cmpe146/lab/cmpe146package_lpc1758/yagarto/bin/../lib/gcc/arm-none-eabi/4.6.2/../../../../arm-none-eabi/lib/thumb/v7m\libstdc++.a(eh_exception.o)
                0x0000b87c                __cxxabiv1::__foreign_exception::~__foreign_exception()
 .text._ZN10__cxxabiv115__forced_unwindD0Ev
                0x0000b890       0x14 c:/users/montoya/documents/classes/cmpe146/lab/cmpe146package_lpc1758/yagarto/bin/../lib/gcc/arm-none-eabi/4.6.2/../../../../arm-none-eabi/lib/thumb/v7m\libstdc++.a(eh_exception.o)
                0x0000b890                __cxxabiv1::__forced_unwind::~__forced_unwind()
 .text._ZNSt13bad_exceptionD0Ev
                0x0000b8a4       0x14 c:/users/montoya/documents/classes/cmpe146/lab/cmpe146package_lpc1758/yagarto/bin/../lib/gcc/arm-none-eabi/4.6.2/../../../../arm-none-eabi/lib/thumb/v7m\libstdc++.a(eh_exception.o)
                0x0000b8a4                std::bad_exception::~bad_exception()
 .text._ZNSt9exceptionD0Ev
                0x0000b8b8       0x14 c:/users/montoya/documents/classes/cmpe146/lab/cmpe146package_lpc1758/yagarto/bin/../lib/gcc/arm-none-eabi/4.6.2/../../../../arm-none-eabi/lib/thumb/v7m\libstdc++.a(eh_exception.o)
                0x0000b8b8                std::exception::~exception()
 .text          0x0000b8cc        0x0 c:/users/montoya/documents/classes/cmpe146/lab/cmpe146package_lpc1758/yagarto/bin/../lib/gcc/arm-none-eabi/4.6.2/../../../../arm-none-eabi/lib/thumb/v7m\libstdc++.a(eh_globals.o)
 .text.__cxa_get_globals_fast
                0x0000b8cc        0xc c:/users/montoya/documents/classes/cmpe146/lab/cmpe146package_lpc1758/yagarto/bin/../lib/gcc/arm-none-eabi/4.6.2/../../../../arm-none-eabi/lib/thumb/v7m\libstdc++.a(eh_globals.o)
                0x0000b8cc                __cxa_get_globals_fast
 .text.__cxa_get_globals
                0x0000b8d8        0xc c:/users/montoya/documents/classes/cmpe146/lab/cmpe146package_lpc1758/yagarto/bin/../lib/gcc/arm-none-eabi/4.6.2/../../../../arm-none-eabi/lib/thumb/v7m\libstdc++.a(eh_globals.o)
                0x0000b8d8                __cxa_get_globals
 .text          0x0000b8e4        0x0 c:/users/montoya/documents/classes/cmpe146/lab/cmpe146package_lpc1758/yagarto/bin/../lib/gcc/arm-none-eabi/4.6.2/../../../../arm-none-eabi/lib/thumb/v7m\libstdc++.a(eh_terminate.o)
 .text._ZN10__cxxabiv111__terminateEPFvvE
                0x0000b8e4       0x28 c:/users/montoya/documents/classes/cmpe146/lab/cmpe146package_lpc1758/yagarto/bin/../lib/gcc/arm-none-eabi/4.6.2/../../../../arm-none-eabi/lib/thumb/v7m\libstdc++.a(eh_terminate.o)
                0x0000b8e4                __cxxabiv1::__terminate(void (*)())
 .text._ZSt9terminatev
                0x0000b90c       0x10 c:/users/montoya/documents/classes/cmpe146/lab/cmpe146package_lpc1758/yagarto/bin/../lib/gcc/arm-none-eabi/4.6.2/../../../../arm-none-eabi/lib/thumb/v7m\libstdc++.a(eh_terminate.o)
                0x0000b90c                std::terminate()
 .text._ZN10__cxxabiv112__unexpectedEPFvvE
                0x0000b91c        0x8 c:/users/montoya/documents/classes/cmpe146/lab/cmpe146package_lpc1758/yagarto/bin/../lib/gcc/arm-none-eabi/4.6.2/../../../../arm-none-eabi/lib/thumb/v7m\libstdc++.a(eh_terminate.o)
                0x0000b91c                __cxxabiv1::__unexpected(void (*)())
 .text._ZSt10unexpectedv
                0x0000b924       0x14 c:/users/montoya/documents/classes/cmpe146/lab/cmpe146package_lpc1758/yagarto/bin/../lib/gcc/arm-none-eabi/4.6.2/../../../../arm-none-eabi/lib/thumb/v7m\libstdc++.a(eh_terminate.o)
                0x0000b924                std::unexpected()
 .text._ZSt13set_terminatePFvvE
                0x0000b938       0x10 c:/users/montoya/documents/classes/cmpe146/lab/cmpe146package_lpc1758/yagarto/bin/../lib/gcc/arm-none-eabi/4.6.2/../../../../arm-none-eabi/lib/thumb/v7m\libstdc++.a(eh_terminate.o)
                0x0000b938                std::set_terminate(void (*)())
 .text._ZSt14set_unexpectedPFvvE
                0x0000b948       0x10 c:/users/montoya/documents/classes/cmpe146/lab/cmpe146package_lpc1758/yagarto/bin/../lib/gcc/arm-none-eabi/4.6.2/../../../../arm-none-eabi/lib/thumb/v7m\libstdc++.a(eh_terminate.o)
                0x0000b948                std::set_unexpected(void (*)())
 .text          0x0000b958        0x0 c:/users/montoya/documents/classes/cmpe146/lab/cmpe146package_lpc1758/yagarto/bin/../lib/gcc/arm-none-eabi/4.6.2/../../../../arm-none-eabi/lib/thumb/v7m\libstdc++.a(eh_term_handler.o)
 .text          0x0000b958        0x0 c:/users/montoya/documents/classes/cmpe146/lab/cmpe146package_lpc1758/yagarto/bin/../lib/gcc/arm-none-eabi/4.6.2/../../../../arm-none-eabi/lib/thumb/v7m\libstdc++.a(eh_throw.o)
 .text._ZL23__gxx_exception_cleanup19_Unwind_Reason_CodeP21_Unwind_Control_Block
                0x0000b958       0x4c c:/users/montoya/documents/classes/cmpe146/lab/cmpe146package_lpc1758/yagarto/bin/../lib/gcc/arm-none-eabi/4.6.2/../../../../arm-none-eabi/lib/thumb/v7m\libstdc++.a(eh_throw.o)
 .text.__cxa_throw
                0x0000b9a4       0x78 c:/users/montoya/documents/classes/cmpe146/lab/cmpe146package_lpc1758/yagarto/bin/../lib/gcc/arm-none-eabi/4.6.2/../../../../arm-none-eabi/lib/thumb/v7m\libstdc++.a(eh_throw.o)
                0x0000b9a4                __cxa_throw
 .text.__cxa_rethrow
                0x0000ba1c       0x70 c:/users/montoya/documents/classes/cmpe146/lab/cmpe146package_lpc1758/yagarto/bin/../lib/gcc/arm-none-eabi/4.6.2/../../../../arm-none-eabi/lib/thumb/v7m\libstdc++.a(eh_throw.o)
                0x0000ba1c                __cxa_rethrow
 .text          0x0000ba8c        0x0 c:/users/montoya/documents/classes/cmpe146/lab/cmpe146package_lpc1758/yagarto/bin/../lib/gcc/arm-none-eabi/4.6.2/../../../../arm-none-eabi/lib/thumb/v7m\libstdc++.a(eh_unex_handler.o)
 .text          0x0000ba8c        0x0 c:/users/montoya/documents/classes/cmpe146/lab/cmpe146package_lpc1758/yagarto/bin/../lib/gcc/arm-none-eabi/4.6.2/../../../../arm-none-eabi/lib/thumb/v7m\libstdc++.a(eh_arm.o)
 .text.__cxa_end_cleanup
                0x0000ba8c        0xc c:/users/montoya/documents/classes/cmpe146/lab/cmpe146package_lpc1758/yagarto/bin/../lib/gcc/arm-none-eabi/4.6.2/../../../../arm-none-eabi/lib/thumb/v7m\libstdc++.a(eh_arm.o)
                0x0000ba8c                __cxa_end_cleanup
 .text.__cxa_type_match
                0x0000ba98       0xe4 c:/users/montoya/documents/classes/cmpe146/lab/cmpe146package_lpc1758/yagarto/bin/../lib/gcc/arm-none-eabi/4.6.2/../../../../arm-none-eabi/lib/thumb/v7m\libstdc++.a(eh_arm.o)
                0x0000ba98                __cxa_type_match
 .text.__cxa_begin_cleanup
                0x0000bb7c       0x68 c:/users/montoya/documents/classes/cmpe146/lab/cmpe146package_lpc1758/yagarto/bin/../lib/gcc/arm-none-eabi/4.6.2/../../../../arm-none-eabi/lib/thumb/v7m\libstdc++.a(eh_arm.o)
                0x0000bb7c                __cxa_begin_cleanup
 .text.__gnu_end_cleanup
                0x0000bbe4       0x74 c:/users/montoya/documents/classes/cmpe146/lab/cmpe146package_lpc1758/yagarto/bin/../lib/gcc/arm-none-eabi/4.6.2/../../../../arm-none-eabi/lib/thumb/v7m\libstdc++.a(eh_arm.o)
                0x0000bbe4                __gnu_end_cleanup
 .text          0x0000bc58        0x0 c:/users/montoya/documents/classes/cmpe146/lab/cmpe146package_lpc1758/yagarto/bin/../lib/gcc/arm-none-eabi/4.6.2/../../../../arm-none-eabi/lib/thumb/v7m\libstdc++.a(eh_aux_runtime.o)
 .text.__cxa_bad_cast
                0x0000bc58       0x24 c:/users/montoya/documents/classes/cmpe146/lab/cmpe146package_lpc1758/yagarto/bin/../lib/gcc/arm-none-eabi/4.6.2/../../../../arm-none-eabi/lib/thumb/v7m\libstdc++.a(eh_aux_runtime.o)
                0x0000bc58                __cxa_bad_cast
 .text.__cxa_bad_typeid
                0x0000bc7c       0x24 c:/users/montoya/documents/classes/cmpe146/lab/cmpe146package_lpc1758/yagarto/bin/../lib/gcc/arm-none-eabi/4.6.2/../../../../arm-none-eabi/lib/thumb/v7m\libstdc++.a(eh_aux_runtime.o)
                0x0000bc7c                __cxa_bad_typeid
 .text          0x0000bca0        0x0 c:/users/montoya/documents/classes/cmpe146/lab/cmpe146package_lpc1758/yagarto/bin/../lib/gcc/arm-none-eabi/4.6.2/../../../../arm-none-eabi/lib/thumb/v7m\libstdc++.a(eh_call.o)
 .text.__cxa_call_terminate
                0x0000bca0       0x48 c:/users/montoya/documents/classes/cmpe146/lab/cmpe146package_lpc1758/yagarto/bin/../lib/gcc/arm-none-eabi/4.6.2/../../../../arm-none-eabi/lib/thumb/v7m\libstdc++.a(eh_call.o)
                0x0000bca0                __cxa_call_terminate
 .text.__cxa_call_unexpected
                0x0000bce8      0x11c c:/users/montoya/documents/classes/cmpe146/lab/cmpe146package_lpc1758/yagarto/bin/../lib/gcc/arm-none-eabi/4.6.2/../../../../arm-none-eabi/lib/thumb/v7m\libstdc++.a(eh_call.o)
                0x0000bce8                __cxa_call_unexpected
 .text          0x0000be04        0x0 c:/users/montoya/documents/classes/cmpe146/lab/cmpe146package_lpc1758/yagarto/bin/../lib/gcc/arm-none-eabi/4.6.2/../../../../arm-none-eabi/lib/thumb/v7m\libstdc++.a(eh_catch.o)
 .text.__cxa_get_exception_ptr
                0x0000be04        0x4 c:/users/montoya/documents/classes/cmpe146/lab/cmpe146package_lpc1758/yagarto/bin/../lib/gcc/arm-none-eabi/4.6.2/../../../../arm-none-eabi/lib/thumb/v7m\libstdc++.a(eh_catch.o)
                0x0000be04                __cxa_get_exception_ptr
 .text.__cxa_begin_catch
                0x0000be08       0x88 c:/users/montoya/documents/classes/cmpe146/lab/cmpe146package_lpc1758/yagarto/bin/../lib/gcc/arm-none-eabi/4.6.2/../../../../arm-none-eabi/lib/thumb/v7m\libstdc++.a(eh_catch.o)
                0x0000be08                __cxa_begin_catch
 .text.__cxa_end_catch
                0x0000be90       0x90 c:/users/montoya/documents/classes/cmpe146/lab/cmpe146package_lpc1758/yagarto/bin/../lib/gcc/arm-none-eabi/4.6.2/../../../../arm-none-eabi/lib/thumb/v7m\libstdc++.a(eh_catch.o)
                0x0000be90                __cxa_end_catch
 .text._ZSt18uncaught_exceptionv
                0x0000bf20       0x10 c:/users/montoya/documents/classes/cmpe146/lab/cmpe146package_lpc1758/yagarto/bin/../lib/gcc/arm-none-eabi/4.6.2/../../../../arm-none-eabi/lib/thumb/v7m\libstdc++.a(eh_catch.o)
                0x0000bf20                std::uncaught_exception()
 .text          0x0000bf30        0x0 c:/users/montoya/documents/classes/cmpe146/lab/cmpe146package_lpc1758/yagarto/bin/../lib/gcc/arm-none-eabi/4.6.2/../../../../arm-none-eabi/lib/thumb/v7m\libstdc++.a(eh_personality.o)
 .text._ZL12read_sleb128PKhPl
                0x0000bf30       0x3c c:/users/montoya/documents/classes/cmpe146/lab/cmpe146package_lpc1758/yagarto/bin/../lib/gcc/arm-none-eabi/4.6.2/../../../../arm-none-eabi/lib/thumb/v7m\libstdc++.a(eh_personality.o)
 .text._ZL28read_encoded_value_with_basehjPKhPj
                0x0000bf6c       0xc0 c:/users/montoya/documents/classes/cmpe146/lab/cmpe146package_lpc1758/yagarto/bin/../lib/gcc/arm-none-eabi/4.6.2/../../../../arm-none-eabi/lib/thumb/v7m\libstdc++.a(eh_personality.o)
 .text._ZL21base_of_encoded_valuehP15_Unwind_Context
                0x0000c02c       0x4c c:/users/montoya/documents/classes/cmpe146/lab/cmpe146package_lpc1758/yagarto/bin/../lib/gcc/arm-none-eabi/4.6.2/../../../../arm-none-eabi/lib/thumb/v7m\libstdc++.a(eh_personality.o)
 .text._ZL17parse_lsda_headerP15_Unwind_ContextPKhP16lsda_header_info.constprop.1
                0x0000c078       0x8c c:/users/montoya/documents/classes/cmpe146/lab/cmpe146package_lpc1758/yagarto/bin/../lib/gcc/arm-none-eabi/4.6.2/../../../../arm-none-eabi/lib/thumb/v7m\libstdc++.a(eh_personality.o)
 .text.__gxx_personality_v0
                0x0000c104      0x3a8 c:/users/montoya/documents/classes/cmpe146/lab/cmpe146package_lpc1758/yagarto/bin/../lib/gcc/arm-none-eabi/4.6.2/../../../../arm-none-eabi/lib/thumb/v7m\libstdc++.a(eh_personality.o)
                0x0000c104                __gxx_personality_v0
 .text          0x0000c4ac        0x0 c:/users/montoya/documents/classes/cmpe146/lab/cmpe146package_lpc1758/yagarto/bin/../lib/gcc/arm-none-eabi/4.6.2/../../../../arm-none-eabi/lib/thumb/v7m\libstdc++.a(fundamental_type_info.o)
 .text._ZN10__cxxabiv123__fundamental_type_infoD2Ev
                0x0000c4ac       0x14 c:/users/montoya/documents/classes/cmpe146/lab/cmpe146package_lpc1758/yagarto/bin/../lib/gcc/arm-none-eabi/4.6.2/../../../../arm-none-eabi/lib/thumb/v7m\libstdc++.a(fundamental_type_info.o)
                0x0000c4ac                __cxxabiv1::__fundamental_type_info::~__fundamental_type_info()
                0x0000c4ac                __cxxabiv1::__fundamental_type_info::~__fundamental_type_info()
 .text._ZN10__cxxabiv123__fundamental_type_infoD0Ev
                0x0000c4c0       0x1c c:/users/montoya/documents/classes/cmpe146/lab/cmpe146package_lpc1758/yagarto/bin/../lib/gcc/arm-none-eabi/4.6.2/../../../../arm-none-eabi/lib/thumb/v7m\libstdc++.a(fundamental_type_info.o)
                0x0000c4c0                __cxxabiv1::__fundamental_type_info::~__fundamental_type_info()
 .text          0x0000c4dc        0x0 c:/users/montoya/documents/classes/cmpe146/lab/cmpe146package_lpc1758/yagarto/bin/../lib/gcc/arm-none-eabi/4.6.2/../../../../arm-none-eabi/lib/thumb/v7m\libstdc++.a(pointer_type_info.o)
 .text._ZNK10__cxxabiv119__pointer_type_info14__is_pointer_pEv
                0x0000c4dc        0x4 c:/users/montoya/documents/classes/cmpe146/lab/cmpe146package_lpc1758/yagarto/bin/../lib/gcc/arm-none-eabi/4.6.2/../../../../arm-none-eabi/lib/thumb/v7m\libstdc++.a(pointer_type_info.o)
                0x0000c4dc                __cxxabiv1::__pointer_type_info::__is_pointer_p() const
 .text._ZN10__cxxabiv119__pointer_type_infoD2Ev
                0x0000c4e0       0x14 c:/users/montoya/documents/classes/cmpe146/lab/cmpe146package_lpc1758/yagarto/bin/../lib/gcc/arm-none-eabi/4.6.2/../../../../arm-none-eabi/lib/thumb/v7m\libstdc++.a(pointer_type_info.o)
                0x0000c4e0                __cxxabiv1::__pointer_type_info::~__pointer_type_info()
                0x0000c4e0                __cxxabiv1::__pointer_type_info::~__pointer_type_info()
 .text._ZN10__cxxabiv119__pointer_type_infoD0Ev
                0x0000c4f4       0x1c c:/users/montoya/documents/classes/cmpe146/lab/cmpe146package_lpc1758/yagarto/bin/../lib/gcc/arm-none-eabi/4.6.2/../../../../arm-none-eabi/lib/thumb/v7m\libstdc++.a(pointer_type_info.o)
                0x0000c4f4                __cxxabiv1::__pointer_type_info::~__pointer_type_info()
 .text._ZNK10__cxxabiv119__pointer_type_info15__pointer_catchEPKNS_17__pbase_type_infoEPPvj
                0x0000c510       0x48 c:/users/montoya/documents/classes/cmpe146/lab/cmpe146package_lpc1758/yagarto/bin/../lib/gcc/arm-none-eabi/4.6.2/../../../../arm-none-eabi/lib/thumb/v7m\libstdc++.a(pointer_type_info.o)
                0x0000c510                __cxxabiv1::__pointer_type_info::__pointer_catch(__cxxabiv1::__pbase_type_info const*, void**, unsigned int) const
 .text          0x0000c558        0x0 c:/users/montoya/documents/classes/cmpe146/lab/cmpe146package_lpc1758/yagarto/bin/../lib/gcc/arm-none-eabi/4.6.2/../../../../arm-none-eabi/lib/thumb/v7m\libstdc++.a(bad_cast.o)
 .text._ZNKSt8bad_cast4whatEv
                0x0000c558        0xc c:/users/montoya/documents/classes/cmpe146/lab/cmpe146package_lpc1758/yagarto/bin/../lib/gcc/arm-none-eabi/4.6.2/../../../../arm-none-eabi/lib/thumb/v7m\libstdc++.a(bad_cast.o)
                0x0000c558                std::bad_cast::what() const
 .text._ZNSt8bad_castD2Ev
                0x0000c564       0x14 c:/users/montoya/documents/classes/cmpe146/lab/cmpe146package_lpc1758/yagarto/bin/../lib/gcc/arm-none-eabi/4.6.2/../../../../arm-none-eabi/lib/thumb/v7m\libstdc++.a(bad_cast.o)
                0x0000c564                std::bad_cast::~bad_cast()
                0x0000c564                std::bad_cast::~bad_cast()
 .text._ZNSt8bad_castD0Ev
                0x0000c578       0x1c c:/users/montoya/documents/classes/cmpe146/lab/cmpe146package_lpc1758/yagarto/bin/../lib/gcc/arm-none-eabi/4.6.2/../../../../arm-none-eabi/lib/thumb/v7m\libstdc++.a(bad_cast.o)
                0x0000c578                std::bad_cast::~bad_cast()
 .text          0x0000c594        0x0 c:/users/montoya/documents/classes/cmpe146/lab/cmpe146package_lpc1758/yagarto/bin/../lib/gcc/arm-none-eabi/4.6.2/../../../../arm-none-eabi/lib/thumb/v7m\libstdc++.a(bad_typeid.o)
 .text._ZNKSt10bad_typeid4whatEv
                0x0000c594        0xc c:/users/montoya/documents/classes/cmpe146/lab/cmpe146package_lpc1758/yagarto/bin/../lib/gcc/arm-none-eabi/4.6.2/../../../../arm-none-eabi/lib/thumb/v7m\libstdc++.a(bad_typeid.o)
                0x0000c594                std::bad_typeid::what() const
 .text._ZNSt10bad_typeidD2Ev
                0x0000c5a0       0x14 c:/users/montoya/documents/classes/cmpe146/lab/cmpe146package_lpc1758/yagarto/bin/../lib/gcc/arm-none-eabi/4.6.2/../../../../arm-none-eabi/lib/thumb/v7m\libstdc++.a(bad_typeid.o)
                0x0000c5a0                std::bad_typeid::~bad_typeid()
                0x0000c5a0                std::bad_typeid::~bad_typeid()
 .text._ZNSt10bad_typeidD0Ev
                0x0000c5b4       0x1c c:/users/montoya/documents/classes/cmpe146/lab/cmpe146package_lpc1758/yagarto/bin/../lib/gcc/arm-none-eabi/4.6.2/../../../../arm-none-eabi/lib/thumb/v7m\libstdc++.a(bad_typeid.o)
                0x0000c5b4                std::bad_typeid::~bad_typeid()
 .text          0x0000c5d0        0x0 c:/users/montoya/documents/classes/cmpe146/lab/cmpe146package_lpc1758/yagarto/bin/../lib/gcc/arm-none-eabi/4.6.2/../../../../arm-none-eabi/lib/thumb/v7m\libstdc++.a(pbase_type_info.o)
 .text._ZNK10__cxxabiv117__pbase_type_info15__pointer_catchEPKS0_PPvj
                0x0000c5d0       0x14 c:/users/montoya/documents/classes/cmpe146/lab/cmpe146package_lpc1758/yagarto/bin/../lib/gcc/arm-none-eabi/4.6.2/../../../../arm-none-eabi/lib/thumb/v7m\libstdc++.a(pbase_type_info.o)
                0x0000c5d0                __cxxabiv1::__pbase_type_info::__pointer_catch(__cxxabiv1::__pbase_type_info const*, void**, unsigned int) const
 .text._ZN10__cxxabiv117__pbase_type_infoD2Ev
                0x0000c5e4       0x14 c:/users/montoya/documents/classes/cmpe146/lab/cmpe146package_lpc1758/yagarto/bin/../lib/gcc/arm-none-eabi/4.6.2/../../../../arm-none-eabi/lib/thumb/v7m\libstdc++.a(pbase_type_info.o)
                0x0000c5e4                __cxxabiv1::__pbase_type_info::~__pbase_type_info()
                0x0000c5e4                __cxxabiv1::__pbase_type_info::~__pbase_type_info()
 .text._ZN10__cxxabiv117__pbase_type_infoD0Ev
                0x0000c5f8       0x1c c:/users/montoya/documents/classes/cmpe146/lab/cmpe146package_lpc1758/yagarto/bin/../lib/gcc/arm-none-eabi/4.6.2/../../../../arm-none-eabi/lib/thumb/v7m\libstdc++.a(pbase_type_info.o)
                0x0000c5f8                __cxxabiv1::__pbase_type_info::~__pbase_type_info()
 .text._ZNK10__cxxabiv117__pbase_type_info10__do_catchEPKSt9type_infoPPvj
                0x0000c614       0x6c c:/users/montoya/documents/classes/cmpe146/lab/cmpe146package_lpc1758/yagarto/bin/../lib/gcc/arm-none-eabi/4.6.2/../../../../arm-none-eabi/lib/thumb/v7m\libstdc++.a(pbase_type_info.o)
                0x0000c614                __cxxabiv1::__pbase_type_info::__do_catch(std::type_info const*, void**, unsigned int) const
 .text          0x0000c680      0x370 c:/users/montoya/documents/classes/cmpe146/lab/cmpe146package_lpc1758/yagarto/bin/../lib/gcc/arm-none-eabi/4.6.2/thumb/v7m\libgcc.a(_arm_addsubdf3.o)
                0x0000c680                __aeabi_drsub
                0x0000c688                __aeabi_dsub
                0x0000c688                __subdf3
                0x0000c68c                __aeabi_dadd
                0x0000c68c                __adddf3
                0x0000c904                __floatunsidf
                0x0000c904                __aeabi_ui2d
                0x0000c924                __floatsidf
                0x0000c924                __aeabi_i2d
                0x0000c948                __aeabi_f2d
                0x0000c948                __extendsfdf2
                0x0000c984                __floatundidf
                0x0000c984                __aeabi_ul2d
                0x0000c994                __floatdidf
                0x0000c994                __aeabi_l2d
 .text          0x0000c9f0      0x424 c:/users/montoya/documents/classes/cmpe146/lab/cmpe146package_lpc1758/yagarto/bin/../lib/gcc/arm-none-eabi/4.6.2/thumb/v7m\libgcc.a(_arm_muldivdf3.o)
                0x0000c9f0                __aeabi_dmul
                0x0000c9f0                __muldf3
                0x0000cc44                __divdf3
                0x0000cc44                __aeabi_ddiv
 .text          0x0000ce14      0x110 c:/users/montoya/documents/classes/cmpe146/lab/cmpe146package_lpc1758/yagarto/bin/../lib/gcc/arm-none-eabi/4.6.2/thumb/v7m\libgcc.a(_arm_cmpdf2.o)
                0x0000ce14                __gtdf2
                0x0000ce14                __gedf2
                0x0000ce1c                __ltdf2
                0x0000ce1c                __ledf2
                0x0000ce24                __nedf2
                0x0000ce24                __eqdf2
                0x0000ce24                __cmpdf2
                0x0000cea0                __aeabi_cdrcmple
                0x0000ceb0                __aeabi_cdcmpeq
                0x0000ceb0                __aeabi_cdcmple
                0x0000cec0                __aeabi_dcmpeq
                0x0000ced4                __aeabi_dcmplt
                0x0000cee8                __aeabi_dcmple
                0x0000cefc                __aeabi_dcmpge
                0x0000cf10                __aeabi_dcmpgt
 .text          0x0000cf24       0x50 c:/users/montoya/documents/classes/cmpe146/lab/cmpe146package_lpc1758/yagarto/bin/../lib/gcc/arm-none-eabi/4.6.2/thumb/v7m\libgcc.a(_arm_fixdfsi.o)
                0x0000cf24                __aeabi_d2iz
                0x0000cf24                __fixdfsi
 .text          0x0000cf74       0x40 c:/users/montoya/documents/classes/cmpe146/lab/cmpe146package_lpc1758/yagarto/bin/../lib/gcc/arm-none-eabi/4.6.2/thumb/v7m\libgcc.a(_arm_fixunsdfsi.o)
                0x0000cf74                __aeabi_d2uiz
                0x0000cf74                __fixunsdfsi
 .text          0x0000cfb4       0xa0 c:/users/montoya/documents/classes/cmpe146/lab/cmpe146package_lpc1758/yagarto/bin/../lib/gcc/arm-none-eabi/4.6.2/thumb/v7m\libgcc.a(_arm_truncdfsf2.o)
                0x0000cfb4                __truncdfsf2
                0x0000cfb4                __aeabi_d2f
 .text          0x0000d054      0x21c c:/users/montoya/documents/classes/cmpe146/lab/cmpe146package_lpc1758/yagarto/bin/../lib/gcc/arm-none-eabi/4.6.2/thumb/v7m\libgcc.a(_arm_addsubsf3.o)
                0x0000d054                __aeabi_frsub
                0x0000d05c                __subsf3
                0x0000d05c                __aeabi_fsub
                0x0000d060                __aeabi_fadd
                0x0000d060                __addsf3
                0x0000d1c0                __aeabi_ui2f
                0x0000d1c0                __floatunsisf
                0x0000d1c8                __aeabi_i2f
                0x0000d1c8                __floatsisf
                0x0000d1e4                __aeabi_ul2f
                0x0000d1e4                __floatundisf
                0x0000d1f4                __aeabi_l2f
                0x0000d1f4                __floatdisf
 .text          0x0000d270      0x2a0 c:/users/montoya/documents/classes/cmpe146/lab/cmpe146package_lpc1758/yagarto/bin/../lib/gcc/arm-none-eabi/4.6.2/thumb/v7m\libgcc.a(_arm_muldivsf3.o)
                0x0000d270                __mulsf3
                0x0000d270                __aeabi_fmul
                0x0000d3d8                __aeabi_fdiv
                0x0000d3d8                __divsf3
 .text          0x0000d510       0xec c:/users/montoya/documents/classes/cmpe146/lab/cmpe146package_lpc1758/yagarto/bin/../lib/gcc/arm-none-eabi/4.6.2/thumb/v7m\libgcc.a(_arm_cmpsf2.o)
                0x0000d510                __gesf2
                0x0000d510                __gtsf2
                0x0000d518                __lesf2
                0x0000d518                __ltsf2
                0x0000d520                __nesf2
                0x0000d520                __eqsf2
                0x0000d520                __cmpsf2
                0x0000d580                __aeabi_cfrcmple
                0x0000d588                __aeabi_cfcmpeq
                0x0000d588                __aeabi_cfcmple
                0x0000d598                __aeabi_fcmpeq
                0x0000d5ac                __aeabi_fcmplt
                0x0000d5c0                __aeabi_fcmple
                0x0000d5d4                __aeabi_fcmpge
                0x0000d5e8                __aeabi_fcmpgt
 .text          0x0000d5fc       0x4c c:/users/montoya/documents/classes/cmpe146/lab/cmpe146package_lpc1758/yagarto/bin/../lib/gcc/arm-none-eabi/4.6.2/thumb/v7m\libgcc.a(_arm_fixsfsi.o)
                0x0000d5fc                __aeabi_f2iz
                0x0000d5fc                __fixsfsi
 .text          0x0000d648      0xa10 c:/users/montoya/documents/classes/cmpe146/lab/cmpe146package_lpc1758/yagarto/bin/../lib/gcc/arm-none-eabi/4.6.2/thumb/v7m\libgcc.a(unwind-arm.o)
                0x0000d904                _Unwind_VRS_Get
                0x0000d950                _Unwind_VRS_Set
                0x0000dc64                __aeabi_unwind_cpp_pr2
                0x0000dc68                __aeabi_unwind_cpp_pr1
                0x0000dc6c                __aeabi_unwind_cpp_pr0
                0x0000dc70                _Unwind_VRS_Pop
                0x0000df00                _Unwind_GetCFA
                0x0000df04                __gnu_Unwind_RaiseException
                0x0000df64                __gnu_Unwind_ForcedUnwind
                0x0000df78                __gnu_Unwind_Resume
                0x0000dfb4                __gnu_Unwind_Resume_or_Rethrow
                0x0000dfc4                _Unwind_Complete
                0x0000dfc8                _Unwind_DeleteException
                0x0000dfd8                __gnu_Unwind_Backtrace
 .text          0x0000e058      0x1ac c:/users/montoya/documents/classes/cmpe146/lab/cmpe146package_lpc1758/yagarto/bin/../lib/gcc/arm-none-eabi/4.6.2/thumb/v7m\libgcc.a(libunwind.o)
                0x0000e058                __restore_core_regs
                0x0000e058                restore_core_regs
                0x0000e070                __gnu_Unwind_Restore_VFP
                0x0000e078                __gnu_Unwind_Save_VFP
                0x0000e080                __gnu_Unwind_Restore_VFP_D
                0x0000e088                __gnu_Unwind_Save_VFP_D
                0x0000e090                __gnu_Unwind_Restore_VFP_D_16_to_31
                0x0000e098                __gnu_Unwind_Save_VFP_D_16_to_31
                0x0000e0a0                __gnu_Unwind_Restore_WMMXD
                0x0000e0e4                __gnu_Unwind_Save_WMMXD
                0x0000e128                __gnu_Unwind_Restore_WMMXC
                0x0000e13c                __gnu_Unwind_Save_WMMXC
                0x0000e150                ___Unwind_RaiseException
                0x0000e150                _Unwind_RaiseException
                0x0000e174                _Unwind_Resume
                0x0000e174                ___Unwind_Resume
                0x0000e198                _Unwind_Resume_or_Rethrow
                0x0000e198                ___Unwind_Resume_or_Rethrow
                0x0000e1bc                _Unwind_ForcedUnwind
                0x0000e1bc                ___Unwind_ForcedUnwind
                0x0000e1e0                ___Unwind_Backtrace
                0x0000e1e0                _Unwind_Backtrace
 .text          0x0000e204      0x3d4 c:/users/montoya/documents/classes/cmpe146/lab/cmpe146package_lpc1758/yagarto/bin/../lib/gcc/arm-none-eabi/4.6.2/thumb/v7m\libgcc.a(pr-support.o)
                0x0000e258                __gnu_unwind_execute
                0x0000e57c                __gnu_unwind_frame
                0x0000e5a8                _Unwind_GetRegionStart
                0x0000e5b4                _Unwind_GetLanguageSpecificData
                0x0000e5c8                _Unwind_GetDataRelBase
                0x0000e5d0                _Unwind_GetTextRelBase
 .text          0x0000e5d8       0x10 c:/users/montoya/documents/classes/cmpe146/lab/cmpe146package_lpc1758/yagarto/bin/../lib/gcc/arm-none-eabi/4.6.2/../../../../arm-none-eabi/lib/thumb/v7m\libc.a(lib_a-abort.o)
                0x0000e5d8                abort
 .text          0x0000e5e8       0x48 c:/users/montoya/documents/classes/cmpe146/lab/cmpe146package_lpc1758/yagarto/bin/../lib/gcc/arm-none-eabi/4.6.2/../../../../arm-none-eabi/lib/thumb/v7m\libc.a(lib_a-assert.o)
                0x0000e5e8                __assert_func
                0x0000e624                __assert
 .text          0x0000e630       0x10 c:/users/montoya/documents/classes/cmpe146/lab/cmpe146package_lpc1758/yagarto/bin/../lib/gcc/arm-none-eabi/4.6.2/../../../../arm-none-eabi/lib/thumb/v7m\libc.a(lib_a-atoi.o)
                0x0000e630                atoi
                0x0000e638                _atoi_r
 .text          0x0000e640       0x4c c:/users/montoya/documents/classes/cmpe146/lab/cmpe146package_lpc1758/yagarto/bin/../lib/gcc/arm-none-eabi/4.6.2/../../../../arm-none-eabi/lib/thumb/v7m\libc.a(lib_a-fiprintf.o)
                0x0000e640                _fiprintf_r
                0x0000e660                fiprintf
 .text          0x0000e68c        0x0 c:/users/montoya/documents/classes/cmpe146/lab/cmpe146package_lpc1758/yagarto/bin/../lib/gcc/arm-none-eabi/4.6.2/../../../../arm-none-eabi/lib/thumb/v7m\libc.a(lib_a-impure.o)
 .text          0x0000e68c       0x48 c:/users/montoya/documents/classes/cmpe146/lab/cmpe146package_lpc1758/yagarto/bin/../lib/gcc/arm-none-eabi/4.6.2/../../../../arm-none-eabi/lib/thumb/v7m\libc.a(lib_a-init.o)
                0x0000e68c                __libc_init_array
 .text          0x0000e6d4       0x14 c:/users/montoya/documents/classes/cmpe146/lab/cmpe146package_lpc1758/yagarto/bin/../lib/gcc/arm-none-eabi/4.6.2/../../../../arm-none-eabi/lib/thumb/v7m\libc.a(lib_a-isalnum.o)
                0x0000e6d4                isalnum
 .text          0x0000e6e8       0x14 c:/users/montoya/documents/classes/cmpe146/lab/cmpe146package_lpc1758/yagarto/bin/../lib/gcc/arm-none-eabi/4.6.2/../../../../arm-none-eabi/lib/thumb/v7m\libc.a(lib_a-isalpha.o)
                0x0000e6e8                isalpha
 .text          0x0000e6fc       0x20 c:/users/montoya/documents/classes/cmpe146/lab/cmpe146package_lpc1758/yagarto/bin/../lib/gcc/arm-none-eabi/4.6.2/../../../../arm-none-eabi/lib/thumb/v7m\libc.a(lib_a-malloc.o)
                0x0000e6fc                malloc
                0x0000e70c                free
 .text          0x0000e71c      0x564 c:/users/montoya/documents/classes/cmpe146/lab/cmpe146package_lpc1758/yagarto/bin/../lib/gcc/arm-none-eabi/4.6.2/../../../../arm-none-eabi/lib/thumb/v7m\libc.a(lib_a-mallocr.o)
                0x0000e71c                _malloc_r
 .text          0x0000ec80       0x60 c:/users/montoya/documents/classes/cmpe146/lab/cmpe146package_lpc1758/yagarto/bin/../lib/gcc/arm-none-eabi/4.6.2/../../../../arm-none-eabi/lib/thumb/v7m\libc.a(lib_a-memcmp.o)
                0x0000ec80                memcmp
 .text          0x0000ece0       0x84 c:/users/montoya/documents/classes/cmpe146/lab/cmpe146package_lpc1758/yagarto/bin/../lib/gcc/arm-none-eabi/4.6.2/../../../../arm-none-eabi/lib/thumb/v7m\libc.a(lib_a-memcpy.o)
                0x0000ece0                memcpy
 .text          0x0000ed64       0xc8 c:/users/montoya/documents/classes/cmpe146/lab/cmpe146package_lpc1758/yagarto/bin/../lib/gcc/arm-none-eabi/4.6.2/../../../../arm-none-eabi/lib/thumb/v7m\libc.a(lib_a-memmove.o)
                0x0000ed64                memmove
 .text          0x0000ee2c       0x94 c:/users/montoya/documents/classes/cmpe146/lab/cmpe146package_lpc1758/yagarto/bin/../lib/gcc/arm-none-eabi/4.6.2/../../../../arm-none-eabi/lib/thumb/v7m\libc.a(lib_a-memset.o)
                0x0000ee2c                memset
 .text          0x0000eec0        0x8 c:/users/montoya/documents/classes/cmpe146/lab/cmpe146package_lpc1758/yagarto/bin/../lib/gcc/arm-none-eabi/4.6.2/../../../../arm-none-eabi/lib/thumb/v7m\libc.a(lib_a-mlock.o)
                0x0000eec0                __malloc_lock
                0x0000eec4                __malloc_unlock
 .text          0x0000eec8       0x6c c:/users/montoya/documents/classes/cmpe146/lab/cmpe146package_lpc1758/yagarto/bin/../lib/gcc/arm-none-eabi/4.6.2/../../../../arm-none-eabi/lib/thumb/v7m\libc.a(lib_a-mstats.o)
                0x0000eec8                mallinfo
                0x0000eee0                malloc_stats
                0x0000eef0                mallopt
                0x0000ef04                _mstats_r
                0x0000ef24                mstats
 .text          0x0000ef34       0x74 c:/users/montoya/documents/classes/cmpe146/lab/cmpe146package_lpc1758/yagarto/bin/../lib/gcc/arm-none-eabi/4.6.2/../../../../arm-none-eabi/lib/thumb/v7m\libc.a(lib_a-puts.o)
                0x0000ef34                _puts_r
                0x0000ef98                puts
 .text          0x0000efa8       0x14 c:/users/montoya/documents/classes/cmpe146/lab/cmpe146package_lpc1758/yagarto/bin/../lib/gcc/arm-none-eabi/4.6.2/../../../../arm-none-eabi/lib/thumb/v7m\libc.a(lib_a-realloc.o)
                0x0000efa8                realloc
 .text          0x0000efbc      0x410 c:/users/montoya/documents/classes/cmpe146/lab/cmpe146package_lpc1758/yagarto/bin/../lib/gcc/arm-none-eabi/4.6.2/../../../../arm-none-eabi/lib/thumb/v7m\libc.a(lib_a-reallocr.o)
                0x0000efbc                _realloc_r
 .text          0x0000f3cc       0x24 c:/users/montoya/documents/classes/cmpe146/lab/cmpe146package_lpc1758/yagarto/bin/../lib/gcc/arm-none-eabi/4.6.2/../../../../arm-none-eabi/lib/thumb/v7m\libc.a(lib_a-sbrkr.o)
                0x0000f3cc                _sbrk_r
 .text          0x0000f3f0      0x114 c:/users/montoya/documents/classes/cmpe146/lab/cmpe146package_lpc1758/yagarto/bin/../lib/gcc/arm-none-eabi/4.6.2/../../../../arm-none-eabi/lib/thumb/v7m\libc.a(lib_a-setvbuf.o)
                0x0000f3f0                setvbuf
 .text          0x0000f504      0x158 c:/users/montoya/documents/classes/cmpe146/lab/cmpe146package_lpc1758/yagarto/bin/../lib/gcc/arm-none-eabi/4.6.2/../../../../arm-none-eabi/lib/thumb/v7m\libc.a(lib_a-signal.o)
                0x0000f504                _init_signal_r
                0x0000f538                _signal_r
                0x0000f578                _raise_r
                0x0000f5d0                __sigtramp_r
                0x0000f620                raise
                0x0000f630                signal
                0x0000f640                _init_signal
                0x0000f64c                __sigtramp
 .text          0x0000f65c       0x2c c:/users/montoya/documents/classes/cmpe146/lab/cmpe146package_lpc1758/yagarto/bin/../lib/gcc/arm-none-eabi/4.6.2/../../../../arm-none-eabi/lib/thumb/v7m\libc.a(lib_a-signalr.o)
                0x0000f65c                _kill_r
                0x0000f684                _getpid_r
 .text          0x0000f688       0x94 c:/users/montoya/documents/classes/cmpe146/lab/cmpe146package_lpc1758/yagarto/bin/../lib/gcc/arm-none-eabi/4.6.2/../../../../arm-none-eabi/lib/thumb/v7m\libc.a(lib_a-siprintf.o)
                0x0000f688                _siprintf_r
                0x0000f6cc                siprintf
 .text          0x0000f71c       0x48 c:/users/montoya/documents/classes/cmpe146/lab/cmpe146package_lpc1758/yagarto/bin/../lib/gcc/arm-none-eabi/4.6.2/../../../../arm-none-eabi/lib/thumb/v7m\libc.a(lib_a-strcasecmp.o)
                0x0000f71c                strcasecmp
 .text          0x0000f764       0x50 c:/users/montoya/documents/classes/cmpe146/lab/cmpe146package_lpc1758/yagarto/bin/../lib/gcc/arm-none-eabi/4.6.2/../../../../arm-none-eabi/lib/thumb/v7m\libc.a(lib_a-strcat.o)
                0x0000f764                strcat
 .text          0x0000f7b4       0xf4 c:/users/montoya/documents/classes/cmpe146/lab/cmpe146package_lpc1758/yagarto/bin/../lib/gcc/arm-none-eabi/4.6.2/../../../../arm-none-eabi/lib/thumb/v7m\libc.a(lib_a-strchr.o)
                0x0000f7b4                strchr
 .text          0x0000f8a8      0x1dc c:/users/montoya/documents/classes/cmpe146/lab/cmpe146package_lpc1758/yagarto/bin/../lib/gcc/arm-none-eabi/4.6.2/../../../../arm-none-eabi/lib/thumb/v7m\libc.a(lib_a-strcmp.o)
                0x0000f8a8                strcmp
 .text          0x0000fa84       0xbc c:/users/montoya/documents/classes/cmpe146/lab/cmpe146package_lpc1758/yagarto/bin/../lib/gcc/arm-none-eabi/4.6.2/../../../../arm-none-eabi/lib/thumb/v7m\libc.a(lib_a-strcpy.o)
                0x0000fa84                strcpy
 .text          0x0000fb40       0x60 c:/users/montoya/documents/classes/cmpe146/lab/cmpe146package_lpc1758/yagarto/bin/../lib/gcc/arm-none-eabi/4.6.2/../../../../arm-none-eabi/lib/thumb/v7m\libc.a(lib_a-strlen.o)
                0x0000fb40                strlen
 .text          0x0000fba0       0x54 c:/users/montoya/documents/classes/cmpe146/lab/cmpe146package_lpc1758/yagarto/bin/../lib/gcc/arm-none-eabi/4.6.2/../../../../arm-none-eabi/lib/thumb/v7m\libc.a(lib_a-strncasecmp.o)
                0x0000fba0                strncasecmp
 .text          0x0000fbf4       0xa8 c:/users/montoya/documents/classes/cmpe146/lab/cmpe146package_lpc1758/yagarto/bin/../lib/gcc/arm-none-eabi/4.6.2/../../../../arm-none-eabi/lib/thumb/v7m\libc.a(lib_a-strncmp.o)
                0x0000fbf4                strncmp
 .text          0x0000fc9c       0x70 c:/users/montoya/documents/classes/cmpe146/lab/cmpe146package_lpc1758/yagarto/bin/../lib/gcc/arm-none-eabi/4.6.2/../../../../arm-none-eabi/lib/thumb/v7m\libc.a(lib_a-strncpy.o)
                0x0000fc9c                strncpy
 .text          0x0000fd0c       0x54 c:/users/montoya/documents/classes/cmpe146/lab/cmpe146package_lpc1758/yagarto/bin/../lib/gcc/arm-none-eabi/4.6.2/../../../../arm-none-eabi/lib/thumb/v7m\libc.a(lib_a-strpbrk.o)
                0x0000fd0c                strpbrk
 .text          0x0000fd60       0x28 c:/users/montoya/documents/classes/cmpe146/lab/cmpe146package_lpc1758/yagarto/bin/../lib/gcc/arm-none-eabi/4.6.2/../../../../arm-none-eabi/lib/thumb/v7m\libc.a(lib_a-strrchr.o)
                0x0000fd60                strrchr
 .text          0x0000fd88      0x4cc c:/users/montoya/documents/classes/cmpe146/lab/cmpe146package_lpc1758/yagarto/bin/../lib/gcc/arm-none-eabi/4.6.2/../../../../arm-none-eabi/lib/thumb/v7m\libc.a(lib_a-strstr.o)
                0x0001003c                strstr
 .text          0x00010254      0x178 c:/users/montoya/documents/classes/cmpe146/lab/cmpe146package_lpc1758/yagarto/bin/../lib/gcc/arm-none-eabi/4.6.2/../../../../arm-none-eabi/lib/thumb/v7m\libc.a(lib_a-strtol.o)
                0x00010254                _strtol_r
                0x000103b4                strtol
 .text          0x000103cc      0xa00 c:/users/montoya/documents/classes/cmpe146/lab/cmpe146package_lpc1758/yagarto/bin/../lib/gcc/arm-none-eabi/4.6.2/../../../../arm-none-eabi/lib/thumb/v7m\libc.a(lib_a-svfiprintf.o)
                0x000103cc                __ssprint_r
                0x000104e4                _svfiprintf_r
 .text          0x00010dcc       0x1c c:/users/montoya/documents/classes/cmpe146/lab/cmpe146package_lpc1758/yagarto/bin/../lib/gcc/arm-none-eabi/4.6.2/../../../../arm-none-eabi/lib/thumb/v7m\libc.a(lib_a-syswrite.o)
                0x00010dcc                write
 .text          0x00010de8       0x18 c:/users/montoya/documents/classes/cmpe146/lab/cmpe146package_lpc1758/yagarto/bin/../lib/gcc/arm-none-eabi/4.6.2/../../../../arm-none-eabi/lib/thumb/v7m\libc.a(lib_a-tolower.o)
                0x00010de8                tolower
 .text          0x00010e00       0x18 c:/users/montoya/documents/classes/cmpe146/lab/cmpe146package_lpc1758/yagarto/bin/../lib/gcc/arm-none-eabi/4.6.2/../../../../arm-none-eabi/lib/thumb/v7m\libc.a(lib_a-toupper.o)
                0x00010e00                toupper
 .text          0x00010e18      0xb54 c:/users/montoya/documents/classes/cmpe146/lab/cmpe146package_lpc1758/yagarto/bin/../lib/gcc/arm-none-eabi/4.6.2/../../../../arm-none-eabi/lib/thumb/v7m\libc.a(lib_a-vfiprintf.o)
                0x00010e18                __sprint_r
                0x00010e98                _vfiprintf_r
                0x00011950                vfiprintf
 .text          0x0001196c       0x28 c:/users/montoya/documents/classes/cmpe146/lab/cmpe146package_lpc1758/yagarto/bin/../lib/gcc/arm-none-eabi/4.6.2/../../../../arm-none-eabi/lib/thumb/v7m\libc.a(lib_a-viprintf.o)
                0x0001196c                viprintf
                0x00011984                _viprintf_r
 .text          0x00011994       0x4c c:/users/montoya/documents/classes/cmpe146/lab/cmpe146package_lpc1758/yagarto/bin/../lib/gcc/arm-none-eabi/4.6.2/../../../../arm-none-eabi/lib/thumb/v7m\libc.a(lib_a-vsiprintf.o)
                0x00011994                _vsiprintf_r
                0x000119c8                vsiprintf
 .text          0x000119e0       0x64 c:/users/montoya/documents/classes/cmpe146/lab/cmpe146package_lpc1758/yagarto/bin/../lib/gcc/arm-none-eabi/4.6.2/../../../../arm-none-eabi/lib/thumb/v7m\libc.a(lib_a-vsiscanf.o)
                0x000119e0                _vsiscanf_r
                0x00011a2c                vsiscanf
 .text          0x00011a44       0x7c c:/users/montoya/documents/classes/cmpe146/lab/cmpe146package_lpc1758/yagarto/bin/../lib/gcc/arm-none-eabi/4.6.2/../../../../arm-none-eabi/lib/thumb/v7m\libc.a(lib_a-vsniprintf.o)
                0x00011a44                _vsniprintf_r
                0x00011a98                vsniprintf
 .text          0x00011ac0       0x7c c:/users/montoya/documents/classes/cmpe146/lab/cmpe146package_lpc1758/yagarto/bin/../lib/gcc/arm-none-eabi/4.6.2/../../../../arm-none-eabi/lib/thumb/v7m\libc.a(lib_a-vsnprintf.o)
                0x00011ac0                _vsnprintf_r
                0x00011b14                vsnprintf
 .text          0x00011b3c       0xc8 c:/users/montoya/documents/classes/cmpe146/lab/cmpe146package_lpc1758/yagarto/bin/../lib/gcc/arm-none-eabi/4.6.2/../../../../arm-none-eabi/lib/thumb/v7m\libc.a(lib_a-wbuf.o)
                0x00011b3c                __swbuf_r
                0x00011bf4                __swbuf
 .text          0x00011c04       0x2c c:/users/montoya/documents/classes/cmpe146/lab/cmpe146package_lpc1758/yagarto/bin/../lib/gcc/arm-none-eabi/4.6.2/../../../../arm-none-eabi/lib/thumb/v7m\libc.a(lib_a-writer.o)
                0x00011c04                _write_r
 .text          0x00011c30       0xb8 c:/users/montoya/documents/classes/cmpe146/lab/cmpe146package_lpc1758/yagarto/bin/../lib/gcc/arm-none-eabi/4.6.2/../../../../arm-none-eabi/lib/thumb/v7m\libc.a(lib_a-wsetup.o)
                0x00011c30                __swsetup_r
 .text          0x00011ce8        0x0 c:/users/montoya/documents/classes/cmpe146/lab/cmpe146package_lpc1758/yagarto/bin/../lib/gcc/arm-none-eabi/4.6.2/../../../../arm-none-eabi/lib/thumb/v7m\libc.a(lib_a-ctype_.o)
 .text          0x00011ce8      0x1a4 c:/users/montoya/documents/classes/cmpe146/lab/cmpe146package_lpc1758/yagarto/bin/../lib/gcc/arm-none-eabi/4.6.2/../../../../arm-none-eabi/lib/thumb/v7m\libc.a(lib_a-fflush.o)
                0x00011ce8                _fflush_r
                0x00011e6c                fflush
 .text          0x00011e8c      0x1c4 c:/users/montoya/documents/classes/cmpe146/lab/cmpe146package_lpc1758/yagarto/bin/../lib/gcc/arm-none-eabi/4.6.2/../../../../arm-none-eabi/lib/thumb/v7m\libc.a(lib_a-findfp.o)
                0x00011e94                _cleanup_r
                0x00011ef4                __sfmoreglue
                0x00011f20                _cleanup
                0x00011f2c                __sinit
                0x00011f74                __sfp
                0x00012010                __sfp_lock_acquire
                0x00012014                __sfp_lock_release
                0x00012018                __sinit_lock_acquire
                0x0001201c                __sinit_lock_release
                0x00012020                __fp_lock_all
                0x00012038                __fp_unlock_all
 .text          0x00012050      0x104 c:/users/montoya/documents/classes/cmpe146/lab/cmpe146package_lpc1758/yagarto/bin/../lib/gcc/arm-none-eabi/4.6.2/../../../../arm-none-eabi/lib/thumb/v7m\libc.a(lib_a-fputwc.o)
                0x00012050                _fputwc_r
                0x00012130                fputwc
 .text          0x00012154      0x224 c:/users/montoya/documents/classes/cmpe146/lab/cmpe146package_lpc1758/yagarto/bin/../lib/gcc/arm-none-eabi/4.6.2/../../../../arm-none-eabi/lib/thumb/v7m\libc.a(lib_a-freer.o)
                0x00012154                _malloc_trim_r
                0x000121f4                _free_r
 .text          0x00012378      0x334 c:/users/montoya/documents/classes/cmpe146/lab/cmpe146package_lpc1758/yagarto/bin/../lib/gcc/arm-none-eabi/4.6.2/../../../../arm-none-eabi/lib/thumb/v7m\libc.a(lib_a-fvwrite.o)
                0x00012378                __sfvwrite_r
 .text          0x000126ac       0xa0 c:/users/montoya/documents/classes/cmpe146/lab/cmpe146package_lpc1758/yagarto/bin/../lib/gcc/arm-none-eabi/4.6.2/../../../../arm-none-eabi/lib/thumb/v7m\libc.a(lib_a-fwalk.o)
                0x000126ac                _fwalk
                0x000126f8                _fwalk_reent
 .text          0x0001274c       0x88 c:/users/montoya/documents/classes/cmpe146/lab/cmpe146package_lpc1758/yagarto/bin/../lib/gcc/arm-none-eabi/4.6.2/../../../../arm-none-eabi/lib/thumb/v7m\libc.a(lib_a-locale.o)
                0x0001274c                _setlocale_r
                0x00012790                __locale_charset
                0x0001279c                __locale_mb_cur_max
                0x000127a8                __locale_msgcharset
                0x000127b0                __locale_cjk_lang
                0x000127b4                _localeconv_r
                0x000127bc                setlocale
                0x000127cc                localeconv
 .text          0x000127d4       0xe4 c:/users/montoya/documents/classes/cmpe146/lab/cmpe146package_lpc1758/yagarto/bin/../lib/gcc/arm-none-eabi/4.6.2/../../../../arm-none-eabi/lib/thumb/v7m\libc.a(lib_a-makebuf.o)
                0x000127d4                __smakebuf_r
 .text          0x000128b8       0x88 c:/users/montoya/documents/classes/cmpe146/lab/cmpe146package_lpc1758/yagarto/bin/../lib/gcc/arm-none-eabi/4.6.2/../../../../arm-none-eabi/lib/thumb/v7m\libc.a(lib_a-mallinfor.o)
                0x000128b8                __malloc_update_mallinfo
                0x0001290c                _mallinfo_r
 .text          0x00012940       0x5c c:/users/montoya/documents/classes/cmpe146/lab/cmpe146package_lpc1758/yagarto/bin/../lib/gcc/arm-none-eabi/4.6.2/../../../../arm-none-eabi/lib/thumb/v7m\libc.a(lib_a-malloptr.o)
                0x00012940                _mallopt_r
 .text          0x0001299c       0x60 c:/users/montoya/documents/classes/cmpe146/lab/cmpe146package_lpc1758/yagarto/bin/../lib/gcc/arm-none-eabi/4.6.2/../../../../arm-none-eabi/lib/thumb/v7m\libc.a(lib_a-mallstatsr.o)
                0x0001299c                _malloc_stats_r
 .text          0x000129fc       0x88 c:/users/montoya/documents/classes/cmpe146/lab/cmpe146package_lpc1758/yagarto/bin/../lib/gcc/arm-none-eabi/4.6.2/../../../../arm-none-eabi/lib/thumb/v7m\libc.a(lib_a-memchr.o)
                0x000129fc                memchr
 .text          0x00012a84       0xe8 c:/users/montoya/documents/classes/cmpe146/lab/cmpe146package_lpc1758/yagarto/bin/../lib/gcc/arm-none-eabi/4.6.2/../../../../arm-none-eabi/lib/thumb/v7m\libc.a(lib_a-reent.o)
                0x00012a84                cleanup_glue
                0x00012aa0                _reclaim_reent
                0x00012b2c                _wrapup_reent
 .text          0x00012b6c       0x8c c:/users/montoya/documents/classes/cmpe146/lab/cmpe146package_lpc1758/yagarto/bin/../lib/gcc/arm-none-eabi/4.6.2/../../../../arm-none-eabi/lib/thumb/v7m\libc.a(lib_a-stdio.o)
                0x00012b6c                __sread
                0x00012b90                __seofread
                0x00012b94                __swrite
                0x00012bcc                __sseek
                0x00012bf0                __sclose
 .text          0x00012bf8      0xb68 c:/users/montoya/documents/classes/cmpe146/lab/cmpe146package_lpc1758/yagarto/bin/../lib/gcc/arm-none-eabi/4.6.2/../../../../arm-none-eabi/lib/thumb/v7m\libc.a(lib_a-svfiscanf.o)
                0x00012bf8                _sungetc_r
                0x00012c7c                __ssrefill_r
                0x00012cb8                _sfread_r
                0x00012d30                __ssvfiscanf_r
 .text          0x00013760     0x1314 c:/users/montoya/documents/classes/cmpe146/lab/cmpe146package_lpc1758/yagarto/bin/../lib/gcc/arm-none-eabi/4.6.2/../../../../arm-none-eabi/lib/thumb/v7m\libc.a(lib_a-svfprintf.o)
                0x00013760                _svfprintf_r
 .text          0x00014a74      0x16c c:/users/montoya/documents/classes/cmpe146/lab/cmpe146package_lpc1758/yagarto/bin/../lib/gcc/arm-none-eabi/4.6.2/../../../../arm-none-eabi/lib/thumb/v7m\libc.a(lib_a-ungetc.o)
                0x00014a74                __submore
                0x00014af8                _ungetc_r
                0x00014bd0                ungetc
 .text          0x00014be0       0xac c:/users/montoya/documents/classes/cmpe146/lab/cmpe146package_lpc1758/yagarto/bin/../lib/gcc/arm-none-eabi/4.6.2/../../../../arm-none-eabi/lib/thumb/v7m\libc.a(lib_a-wcrtomb.o)
                0x00014be0                _wcrtomb_r
                0x00014c2c                wcrtomb
 .text          0x00014c8c       0x4c c:/users/montoya/documents/classes/cmpe146/lab/cmpe146package_lpc1758/yagarto/bin/../lib/gcc/arm-none-eabi/4.6.2/../../../../arm-none-eabi/lib/thumb/v7m\libc.a(lib_a-wctomb_r.o)
                0x00014c8c                __ascii_wctomb
                0x00014ca8                _wctomb_r
 .text          0x00014cd8       0x24 c:/users/montoya/documents/classes/cmpe146/lab/cmpe146package_lpc1758/yagarto/bin/../lib/gcc/arm-none-eabi/4.6.2/../../../../arm-none-eabi/lib/thumb/v7m\libc.a(lib_a-closer.o)
                0x00014cd8                _close_r
 *fill*         0x00014cfc        0x4 00
 .text          0x00014d00     0x1040 c:/users/montoya/documents/classes/cmpe146/lab/cmpe146package_lpc1758/yagarto/bin/../lib/gcc/arm-none-eabi/4.6.2/../../../../arm-none-eabi/lib/thumb/v7m\libc.a(lib_a-dtoa.o)
                0x00014e44                _dtoa_r
 .text          0x00015d40       0x9c c:/users/montoya/documents/classes/cmpe146/lab/cmpe146package_lpc1758/yagarto/bin/../lib/gcc/arm-none-eabi/4.6.2/../../../../arm-none-eabi/lib/thumb/v7m\libc.a(lib_a-fclose.o)
                0x00015d40                _fclose_r
                0x00015dcc                fclose
 .text          0x00015ddc       0x28 c:/users/montoya/documents/classes/cmpe146/lab/cmpe146package_lpc1758/yagarto/bin/../lib/gcc/arm-none-eabi/4.6.2/../../../../arm-none-eabi/lib/thumb/v7m\libc.a(lib_a-fstatr.o)
                0x00015ddc                _fstat_r
 .text          0x00015e04       0x24 c:/users/montoya/documents/classes/cmpe146/lab/cmpe146package_lpc1758/yagarto/bin/../lib/gcc/arm-none-eabi/4.6.2/../../../../arm-none-eabi/lib/thumb/v7m\libc.a(lib_a-isattyr.o)
                0x00015e04                _isatty_r
 .text          0x00015e28       0x1c c:/users/montoya/documents/classes/cmpe146/lab/cmpe146package_lpc1758/yagarto/bin/../lib/gcc/arm-none-eabi/4.6.2/../../../../arm-none-eabi/lib/thumb/v7m\libc.a(lib_a-iswspace.o)
                0x00015e28                iswspace
 .text          0x00015e44       0x2c c:/users/montoya/documents/classes/cmpe146/lab/cmpe146package_lpc1758/yagarto/bin/../lib/gcc/arm-none-eabi/4.6.2/../../../../arm-none-eabi/lib/thumb/v7m\libc.a(lib_a-lseekr.o)
                0x00015e44                _lseek_r
 .text          0x00015e70       0xc0 c:/users/montoya/documents/classes/cmpe146/lab/cmpe146package_lpc1758/yagarto/bin/../lib/gcc/arm-none-eabi/4.6.2/../../../../arm-none-eabi/lib/thumb/v7m\libc.a(lib_a-mbrtowc.o)
                0x00015e70                _mbrtowc_r
                0x00015ec8                mbrtowc
 .text          0x00015f30       0x58 c:/users/montoya/documents/classes/cmpe146/lab/cmpe146package_lpc1758/yagarto/bin/../lib/gcc/arm-none-eabi/4.6.2/../../../../arm-none-eabi/lib/thumb/v7m\libc.a(lib_a-mbtowc_r.o)
                0x00015f30                __ascii_mbtowc
                0x00015f54                _mbtowc_r
 .text          0x00015f88      0x8c8 c:/users/montoya/documents/classes/cmpe146/lab/cmpe146package_lpc1758/yagarto/bin/../lib/gcc/arm-none-eabi/4.6.2/../../../../arm-none-eabi/lib/thumb/v7m\libc.a(lib_a-mprec.o)
                0x00015f88                _Balloc
                0x00015fd4                _Bfree
                0x00015fe8                __multadd
                0x0001606c                __s2b
                0x00016100                __hi0bits
                0x0001613c                __lo0bits
                0x00016198                __i2b
                0x000161ac                __multiply
                0x000162e4                __pow5mult
                0x0001637c                __lshift
                0x0001643c                __mcmp
                0x0001647c                __mdiff
                0x00016560                __ulp
                0x000165a4                __b2d
                0x00016650                __d2b
                0x00016718                __ratio
                0x00016774                _mprec_log10
                0x000167a8                __copybits
                0x000167f0                __any_on
 .text          0x00016850       0x2c c:/users/montoya/documents/classes/cmpe146/lab/cmpe146package_lpc1758/yagarto/bin/../lib/gcc/arm-none-eabi/4.6.2/../../../../arm-none-eabi/lib/thumb/v7m\libc.a(lib_a-readr.o)
                0x00016850                _read_r
 .text          0x0001687c       0x90 c:/users/montoya/documents/classes/cmpe146/lab/cmpe146package_lpc1758/yagarto/bin/../lib/gcc/arm-none-eabi/4.6.2/../../../../arm-none-eabi/lib/thumb/v7m\libc.a(lib_a-s_fpclassify.o)
                0x0001687c                __fpclassifyd
 .text          0x0001690c       0x78 c:/users/montoya/documents/classes/cmpe146/lab/cmpe146package_lpc1758/yagarto/bin/../lib/gcc/arm-none-eabi/4.6.2/../../../../arm-none-eabi/lib/thumb/v7m\libc.a(lib_a-sccl.o)
                0x0001690c                __sccl
 .text          0x00016984      0x178 c:/users/montoya/documents/classes/cmpe146/lab/cmpe146package_lpc1758/yagarto/bin/../lib/gcc/arm-none-eabi/4.6.2/../../../../arm-none-eabi/lib/thumb/v7m\libc.a(lib_a-strtoul.o)
                0x00016984                _strtoul_r
                0x00016ae4                strtoul
 .text          0x00016afc       0x60 c:/users/montoya/documents/classes/cmpe146/lab/cmpe146package_lpc1758/yagarto/bin/../lib/gcc/arm-none-eabi/4.6.2/../../../../arm-none-eabi/lib/thumb/v7m\libc.a(lib_a-callocr.o)
                0x00016afc                _calloc_r
 *fill*         0x00016b5c        0x4 00
 .text          0x00016b60      0x278 c:/users/montoya/documents/classes/cmpe146/lab/cmpe146package_lpc1758/yagarto/bin/../lib/gcc/arm-none-eabi/4.6.2/thumb/v7m\libgcc.a(_udivsi3.o)
                0x00016b60                __aeabi_uidiv
                0x00016b60                __udivsi3
                0x00016dbc                __aeabi_uidivmod
 .text          0x00016dd8        0x4 c:/users/montoya/documents/classes/cmpe146/lab/cmpe146package_lpc1758/yagarto/bin/../lib/gcc/arm-none-eabi/4.6.2/thumb/v7m\libgcc.a(_dvmd_tls.o)
                0x00016dd8                __aeabi_idiv0
                0x00016dd8                __aeabi_ldiv0
 *(.rodata .rodata.*)
 .rodata        0x00016ddc        0xb ./L5_Application/source/handlers.o
 .rodata.str1.1
                0x00016de7      0x4e3 ./L5_Application/source/handlers.o
                                0x4ef (size before relaxing)
 .rodata.str1.1
                0x000172ca      0x21c ./L5_Application/source/high_level_init.o
                                0x22a (size before relaxing)
 *fill*         0x000174e6        0x2 00
 .rodata._ZTV14scheduler_task
                0x000174e8       0x20 ./L5_Application/source/tasks.o
                0x000174e8                vtable for scheduler_task
 .rodata        0x00017508       0x58 ./L5_Application/source/tasks.o
                0x00017508                vtable for remoteTask
                0x00017528                vtable for terminalTask
 .rodata.str1.1
                0x00017560      0x456 ./L5_Application/source/tasks.o
                                0x476 (size before relaxing)
 .rodata.str1.1
                0x000179b6       0x2a ./L5_Application/main.o
 .rodata        0x000179e0       0xff ./L4_IO/src/io_source.o
 .rodata.str1.1
                0x00017adf       0x24 ./L4_IO/src/io_source.o
 *fill*         0x00017b03        0x1 00
 .rodata        0x00017b04      0x4c0 ./L4_IO/fat/option/ccsbcs.o
 .rodata.str1.1
                0x00017fc4       0x48 ./L4_IO/fat/disk/spi_flash.o
 .rodata        0x0001800c       0xba ./L4_IO/fat/ff.o
 .rodata.str1.1
                0x000180c6       0x44 ./L4_IO/fat/ff.o
 .rodata        0x0001810a        0xa ./L3_Utils/tlm/src/c_list.o
 .rodata.str1.1
                0x00018114      0x4c2 ./L3_Utils/tlm/src/c_list.o
                                0x4e0 (size before relaxing)
 .rodata.str1.1
                0x000185d6       0xc5 ./L3_Utils/src/command_handler.o
                                 0xcd (size before relaxing)
 .rodata.str1.1
                0x0001869b      0x196 ./L3_Utils/src/cpp_task.o
 *fill*         0x00018831        0x7 00
 .rodata._ZTV10LoggerBase
                0x00018838       0x20 ./L3_Utils/src/file_logger.o
                0x00018838                vtable for LoggerBase
 .rodata        0x00018858       0x40 ./L3_Utils/src/file_logger.o
                0x00018858                vtable for SimpleLogger
                0x00018878                vtable for FileLogger
 .rodata.str1.1
                0x00018898       0x3d ./L3_Utils/src/file_logger.o
                                 0x41 (size before relaxing)
 .rodata.str1.1
                0x000188d5       0x26 ./L3_Utils/src/logger.o
                                 0x32 (size before relaxing)
 .rodata.str1.1
                0x000188fb        0x5 ./L3_Utils/src/str.o
                                  0xa (size before relaxing)
 .rodata.str1.1
                0x00018900       0xd4 ./L3_Utils/src/utilities.o
 .rodata.str1.1
                0x000189d4       0x11 ./L2_Drivers/src/pwm.o
 .rodata.str1.1
                0x000189e5       0x18 ./L2_Drivers/src/rtc.o
 *fill*         0x000189fd        0x3 00
 .rodata._ZTV5Uart0
                0x00018a00       0x18 ./L2_Drivers/src/uart0.o
                0x00018a00                vtable for Uart0
 .rodata._ZTV9UartIface
                0x00018a18       0x18 ./L2_Drivers/src/uart0.o
                0x00018a18                vtable for UartIface
 .rodata._ZTV5Uart2
                0x00018a30       0x18 ./L2_Drivers/src/uart2.o
                0x00018a30                vtable for Uart2
 .rodata._ZTV5Uart3
                0x00018a48       0x18 ./L2_Drivers/src/uart3.o
                0x00018a48                vtable for Uart3
 .rodata        0x00018a60       0x18 ./L2_Drivers/src/uart_base.o
                0x00018a60                vtable for UART_Base
 .rodata.str1.1
                0x00000000       0x18 ./L2_Drivers/src/uart_iface.o
                                  0x3 (size before relaxing)
 .rodata        0x00018a78       0x14 ./L1_FreeRTOS/src/tasks.o
 .rodata.str1.1
                0x00018a8c       0x5f ./L1_FreeRTOS/src/tasks.o
                                 0x62 (size before relaxing)
 *fill*         0x00018aeb        0x1 00
 .rodata        0x00018aec        0x4 ./L1_FreeRTOS/portable/port.o
                0x00018aec                ulKernelPriority
 .rodata.str1.1
                0x00018af0       0x8b ./L1_FreeRTOS/hooks/hooks.o
 .rodata.str1.1
                0x00018b7b      0x137 ./L0_LowLevel/source/cr_startup_lpc175x.o
 .rodata.str1.1
                0x00018cb2       0x5d ./L0_LowLevel/source/system_init.o
                                 0x77 (size before relaxing)
 *fill*         0x00018d0f        0x1 00
 .rodata._ZTIN9__gnu_cxx20recursive_init_errorE
                0x00018d10        0xc c:/users/montoya/documents/classes/cmpe146/lab/cmpe146package_lpc1758/yagarto/bin/../lib/gcc/arm-none-eabi/4.6.2/../../../../arm-none-eabi/lib/thumb/v7m\libstdc++.a(guard_error.o)
                0x00018d10                typeinfo for __gnu_cxx::recursive_init_error
 .rodata._ZTSN9__gnu_cxx20recursive_init_errorE
                0x00018d1c       0x24 c:/users/montoya/documents/classes/cmpe146/lab/cmpe146package_lpc1758/yagarto/bin/../lib/gcc/arm-none-eabi/4.6.2/../../../../arm-none-eabi/lib/thumb/v7m\libstdc++.a(guard_error.o)
                0x00018d1c                typeinfo name for __gnu_cxx::recursive_init_error
 .rodata._ZTVN9__gnu_cxx20recursive_init_errorE
                0x00018d40       0x18 c:/users/montoya/documents/classes/cmpe146/lab/cmpe146package_lpc1758/yagarto/bin/../lib/gcc/arm-none-eabi/4.6.2/../../../../arm-none-eabi/lib/thumb/v7m\libstdc++.a(guard_error.o)
                0x00018d40                vtable for __gnu_cxx::recursive_init_error
 .rodata.str1.4
                0x00018d58       0x1c c:/users/montoya/documents/classes/cmpe146/lab/cmpe146package_lpc1758/yagarto/bin/../lib/gcc/arm-none-eabi/4.6.2/../../../../arm-none-eabi/lib/thumb/v7m\libstdc++.a(pure.o)
 *fill*         0x00018d74        0x4 00
 .rodata._ZTVN10__cxxabiv120__si_class_type_infoE
                0x00018d78       0x30 c:/users/montoya/documents/classes/cmpe146/lab/cmpe146package_lpc1758/yagarto/bin/../lib/gcc/arm-none-eabi/4.6.2/../../../../arm-none-eabi/lib/thumb/v7m\libstdc++.a(si_class_type_info.o)
                0x00018d78                vtable for __cxxabiv1::__si_class_type_info
 .rodata._ZTIN10__cxxabiv120__si_class_type_infoE
                0x00018da8        0xc c:/users/montoya/documents/classes/cmpe146/lab/cmpe146package_lpc1758/yagarto/bin/../lib/gcc/arm-none-eabi/4.6.2/../../../../arm-none-eabi/lib/thumb/v7m\libstdc++.a(si_class_type_info.o)
                0x00018da8                typeinfo for __cxxabiv1::__si_class_type_info
 .rodata._ZTSN10__cxxabiv120__si_class_type_infoE
                0x00018db4       0x28 c:/users/montoya/documents/classes/cmpe146/lab/cmpe146package_lpc1758/yagarto/bin/../lib/gcc/arm-none-eabi/4.6.2/../../../../arm-none-eabi/lib/thumb/v7m\libstdc++.a(si_class_type_info.o)
                0x00018db4                typeinfo name for __cxxabiv1::__si_class_type_info
 .rodata._ZTISt9type_info
                0x00018ddc        0x8 c:/users/montoya/documents/classes/cmpe146/lab/cmpe146package_lpc1758/yagarto/bin/../lib/gcc/arm-none-eabi/4.6.2/../../../../arm-none-eabi/lib/thumb/v7m\libstdc++.a(tinfo.o)
                0x00018ddc                typeinfo for std::type_info
 .rodata._ZTSSt9type_info
                0x00018de4       0x10 c:/users/montoya/documents/classes/cmpe146/lab/cmpe146package_lpc1758/yagarto/bin/../lib/gcc/arm-none-eabi/4.6.2/../../../../arm-none-eabi/lib/thumb/v7m\libstdc++.a(tinfo.o)
                0x00018de4                typeinfo name for std::type_info
 *fill*         0x00018df4        0x4 00
 .rodata._ZTVSt9type_info
                0x00018df8       0x20 c:/users/montoya/documents/classes/cmpe146/lab/cmpe146package_lpc1758/yagarto/bin/../lib/gcc/arm-none-eabi/4.6.2/../../../../arm-none-eabi/lib/thumb/v7m\libstdc++.a(tinfo.o)
                0x00018df8                vtable for std::type_info
 .rodata._ZTVN10__cxxabiv117__class_type_infoE
                0x00018e18       0x30 c:/users/montoya/documents/classes/cmpe146/lab/cmpe146package_lpc1758/yagarto/bin/../lib/gcc/arm-none-eabi/4.6.2/../../../../arm-none-eabi/lib/thumb/v7m\libstdc++.a(class_type_info.o)
                0x00018e18                vtable for __cxxabiv1::__class_type_info
 .rodata._ZTIN10__cxxabiv117__class_type_infoE
                0x00018e48        0xc c:/users/montoya/documents/classes/cmpe146/lab/cmpe146package_lpc1758/yagarto/bin/../lib/gcc/arm-none-eabi/4.6.2/../../../../arm-none-eabi/lib/thumb/v7m\libstdc++.a(class_type_info.o)
                0x00018e48                typeinfo for __cxxabiv1::__class_type_info
 .rodata._ZTSN10__cxxabiv117__class_type_infoE
                0x00018e54       0x24 c:/users/montoya/documents/classes/cmpe146/lab/cmpe146package_lpc1758/yagarto/bin/../lib/gcc/arm-none-eabi/4.6.2/../../../../arm-none-eabi/lib/thumb/v7m\libstdc++.a(class_type_info.o)
                0x00018e54                typeinfo name for __cxxabiv1::__class_type_info
 .rodata._ZTVN10__cxxabiv115__forced_unwindE
                0x00018e78       0x18 c:/users/montoya/documents/classes/cmpe146/lab/cmpe146package_lpc1758/yagarto/bin/../lib/gcc/arm-none-eabi/4.6.2/../../../../arm-none-eabi/lib/thumb/v7m\libstdc++.a(eh_exception.o)
                0x00018e78                vtable for __cxxabiv1::__forced_unwind
 .rodata._ZTVSt9exception
                0x00018e90       0x18 c:/users/montoya/documents/classes/cmpe146/lab/cmpe146package_lpc1758/yagarto/bin/../lib/gcc/arm-none-eabi/4.6.2/../../../../arm-none-eabi/lib/thumb/v7m\libstdc++.a(eh_exception.o)
                0x00018e90                vtable for std::exception
 .rodata._ZTIN10__cxxabiv115__forced_unwindE
                0x00018ea8        0x8 c:/users/montoya/documents/classes/cmpe146/lab/cmpe146package_lpc1758/yagarto/bin/../lib/gcc/arm-none-eabi/4.6.2/../../../../arm-none-eabi/lib/thumb/v7m\libstdc++.a(eh_exception.o)
                0x00018ea8                typeinfo for __cxxabiv1::__forced_unwind
 .rodata._ZTISt9exception
                0x00018eb0        0x8 c:/users/montoya/documents/classes/cmpe146/lab/cmpe146package_lpc1758/yagarto/bin/../lib/gcc/arm-none-eabi/4.6.2/../../../../arm-none-eabi/lib/thumb/v7m\libstdc++.a(eh_exception.o)
                0x00018eb0                typeinfo for std::exception
 .rodata._ZTSSt13bad_exception
                0x00018eb8       0x14 c:/users/montoya/documents/classes/cmpe146/lab/cmpe146package_lpc1758/yagarto/bin/../lib/gcc/arm-none-eabi/4.6.2/../../../../arm-none-eabi/lib/thumb/v7m\libstdc++.a(eh_exception.o)
                0x00018eb8                typeinfo name for std::bad_exception
 .rodata.str1.4
                0x00018ecc       0x23 c:/users/montoya/documents/classes/cmpe146/lab/cmpe146package_lpc1758/yagarto/bin/../lib/gcc/arm-none-eabi/4.6.2/../../../../arm-none-eabi/lib/thumb/v7m\libstdc++.a(eh_exception.o)
                                 0x24 (size before relaxing)
 *fill*         0x00018eef        0x1 00
 .rodata._ZTSN10__cxxabiv119__foreign_exceptionE
                0x00018ef0       0x24 c:/users/montoya/documents/classes/cmpe146/lab/cmpe146package_lpc1758/yagarto/bin/../lib/gcc/arm-none-eabi/4.6.2/../../../../arm-none-eabi/lib/thumb/v7m\libstdc++.a(eh_exception.o)
                0x00018ef0                typeinfo name for __cxxabiv1::__foreign_exception
 .rodata._ZTIN10__cxxabiv119__foreign_exceptionE
                0x00018f14        0x8 c:/users/montoya/documents/classes/cmpe146/lab/cmpe146package_lpc1758/yagarto/bin/../lib/gcc/arm-none-eabi/4.6.2/../../../../arm-none-eabi/lib/thumb/v7m\libstdc++.a(eh_exception.o)
                0x00018f14                typeinfo for __cxxabiv1::__foreign_exception
 *fill*         0x00018f1c        0x4 00
 .rodata._ZTVSt13bad_exception
                0x00018f20       0x18 c:/users/montoya/documents/classes/cmpe146/lab/cmpe146package_lpc1758/yagarto/bin/../lib/gcc/arm-none-eabi/4.6.2/../../../../arm-none-eabi/lib/thumb/v7m\libstdc++.a(eh_exception.o)
                0x00018f20                vtable for std::bad_exception
 .rodata._ZTSSt9exception
                0x00018f38       0x10 c:/users/montoya/documents/classes/cmpe146/lab/cmpe146package_lpc1758/yagarto/bin/../lib/gcc/arm-none-eabi/4.6.2/../../../../arm-none-eabi/lib/thumb/v7m\libstdc++.a(eh_exception.o)
                0x00018f38                typeinfo name for std::exception
 .rodata._ZTVN10__cxxabiv119__foreign_exceptionE
                0x00018f48       0x18 c:/users/montoya/documents/classes/cmpe146/lab/cmpe146package_lpc1758/yagarto/bin/../lib/gcc/arm-none-eabi/4.6.2/../../../../arm-none-eabi/lib/thumb/v7m\libstdc++.a(eh_exception.o)
                0x00018f48                vtable for __cxxabiv1::__foreign_exception
 .rodata._ZTSN10__cxxabiv115__forced_unwindE
                0x00018f60       0x20 c:/users/montoya/documents/classes/cmpe146/lab/cmpe146package_lpc1758/yagarto/bin/../lib/gcc/arm-none-eabi/4.6.2/../../../../arm-none-eabi/lib/thumb/v7m\libstdc++.a(eh_exception.o)
                0x00018f60                typeinfo name for __cxxabiv1::__forced_unwind
 .rodata._ZTISt13bad_exception
                0x00018f80        0xc c:/users/montoya/documents/classes/cmpe146/lab/cmpe146package_lpc1758/yagarto/bin/../lib/gcc/arm-none-eabi/4.6.2/../../../../arm-none-eabi/lib/thumb/v7m\libstdc++.a(eh_exception.o)
                0x00018f80                typeinfo for std::bad_exception
 .rodata._ZTIPKDn
                0x00018f8c       0x10 c:/users/montoya/documents/classes/cmpe146/lab/cmpe146package_lpc1758/yagarto/bin/../lib/gcc/arm-none-eabi/4.6.2/../../../../arm-none-eabi/lib/thumb/v7m\libstdc++.a(fundamental_type_info.o)
                0x00018f8c                typeinfo for decltype(nullptr) const*
 .rodata._ZTIPDn
                0x00018f9c       0x10 c:/users/montoya/documents/classes/cmpe146/lab/cmpe146package_lpc1758/yagarto/bin/../lib/gcc/arm-none-eabi/4.6.2/../../../../arm-none-eabi/lib/thumb/v7m\libstdc++.a(fundamental_type_info.o)
                0x00018f9c                typeinfo for decltype(nullptr)*
 .rodata._ZTIDn
                0x00018fac        0x8 c:/users/montoya/documents/classes/cmpe146/lab/cmpe146package_lpc1758/yagarto/bin/../lib/gcc/arm-none-eabi/4.6.2/../../../../arm-none-eabi/lib/thumb/v7m\libstdc++.a(fundamental_type_info.o)
                0x00018fac                typeinfo for decltype(nullptr)
 .rodata._ZTIPKDe
                0x00018fb4       0x10 c:/users/montoya/documents/classes/cmpe146/lab/cmpe146package_lpc1758/yagarto/bin/../lib/gcc/arm-none-eabi/4.6.2/../../../../arm-none-eabi/lib/thumb/v7m\libstdc++.a(fundamental_type_info.o)
                0x00018fb4                typeinfo for decimal128 const*
 .rodata._ZTIPDe
                0x00018fc4       0x10 c:/users/montoya/documents/classes/cmpe146/lab/cmpe146package_lpc1758/yagarto/bin/../lib/gcc/arm-none-eabi/4.6.2/../../../../arm-none-eabi/lib/thumb/v7m\libstdc++.a(fundamental_type_info.o)
                0x00018fc4                typeinfo for decimal128*
 .rodata._ZTIDe
                0x00018fd4        0x8 c:/users/montoya/documents/classes/cmpe146/lab/cmpe146package_lpc1758/yagarto/bin/../lib/gcc/arm-none-eabi/4.6.2/../../../../arm-none-eabi/lib/thumb/v7m\libstdc++.a(fundamental_type_info.o)
                0x00018fd4                typeinfo for decimal128
 .rodata._ZTIPKDd
                0x00018fdc       0x10 c:/users/montoya/documents/classes/cmpe146/lab/cmpe146package_lpc1758/yagarto/bin/../lib/gcc/arm-none-eabi/4.6.2/../../../../arm-none-eabi/lib/thumb/v7m\libstdc++.a(fundamental_type_info.o)
                0x00018fdc                typeinfo for decimal64 const*
 .rodata._ZTIPDd
                0x00018fec       0x10 c:/users/montoya/documents/classes/cmpe146/lab/cmpe146package_lpc1758/yagarto/bin/../lib/gcc/arm-none-eabi/4.6.2/../../../../arm-none-eabi/lib/thumb/v7m\libstdc++.a(fundamental_type_info.o)
                0x00018fec                typeinfo for decimal64*
 .rodata._ZTIDd
                0x00018ffc        0x8 c:/users/montoya/documents/classes/cmpe146/lab/cmpe146package_lpc1758/yagarto/bin/../lib/gcc/arm-none-eabi/4.6.2/../../../../arm-none-eabi/lib/thumb/v7m\libstdc++.a(fundamental_type_info.o)
                0x00018ffc                typeinfo for decimal64
 .rodata._ZTIPKDf
                0x00019004       0x10 c:/users/montoya/documents/classes/cmpe146/lab/cmpe146package_lpc1758/yagarto/bin/../lib/gcc/arm-none-eabi/4.6.2/../../../../arm-none-eabi/lib/thumb/v7m\libstdc++.a(fundamental_type_info.o)
                0x00019004                typeinfo for decimal32 const*
 .rodata._ZTIPDf
                0x00019014       0x10 c:/users/montoya/documents/classes/cmpe146/lab/cmpe146package_lpc1758/yagarto/bin/../lib/gcc/arm-none-eabi/4.6.2/../../../../arm-none-eabi/lib/thumb/v7m\libstdc++.a(fundamental_type_info.o)
                0x00019014                typeinfo for decimal32*
 .rodata._ZTIDf
                0x00019024        0x8 c:/users/montoya/documents/classes/cmpe146/lab/cmpe146package_lpc1758/yagarto/bin/../lib/gcc/arm-none-eabi/4.6.2/../../../../arm-none-eabi/lib/thumb/v7m\libstdc++.a(fundamental_type_info.o)
                0x00019024                typeinfo for decimal32
 .rodata._ZTIPKe
                0x0001902c       0x10 c:/users/montoya/documents/classes/cmpe146/lab/cmpe146package_lpc1758/yagarto/bin/../lib/gcc/arm-none-eabi/4.6.2/../../../../arm-none-eabi/lib/thumb/v7m\libstdc++.a(fundamental_type_info.o)
                0x0001902c                typeinfo for long double const*
 .rodata._ZTIPe
                0x0001903c       0x10 c:/users/montoya/documents/classes/cmpe146/lab/cmpe146package_lpc1758/yagarto/bin/../lib/gcc/arm-none-eabi/4.6.2/../../../../arm-none-eabi/lib/thumb/v7m\libstdc++.a(fundamental_type_info.o)
                0x0001903c                typeinfo for long double*
 .rodata._ZTIe  0x0001904c        0x8 c:/users/montoya/documents/classes/cmpe146/lab/cmpe146package_lpc1758/yagarto/bin/../lib/gcc/arm-none-eabi/4.6.2/../../../../arm-none-eabi/lib/thumb/v7m\libstdc++.a(fundamental_type_info.o)
                0x0001904c                typeinfo for long double
 .rodata._ZTIPKd
                0x00019054       0x10 c:/users/montoya/documents/classes/cmpe146/lab/cmpe146package_lpc1758/yagarto/bin/../lib/gcc/arm-none-eabi/4.6.2/../../../../arm-none-eabi/lib/thumb/v7m\libstdc++.a(fundamental_type_info.o)
                0x00019054                typeinfo for double const*
 .rodata._ZTIPd
                0x00019064       0x10 c:/users/montoya/documents/classes/cmpe146/lab/cmpe146package_lpc1758/yagarto/bin/../lib/gcc/arm-none-eabi/4.6.2/../../../../arm-none-eabi/lib/thumb/v7m\libstdc++.a(fundamental_type_info.o)
                0x00019064                typeinfo for double*
 .rodata._ZTId  0x00019074        0x8 c:/users/montoya/documents/classes/cmpe146/lab/cmpe146package_lpc1758/yagarto/bin/../lib/gcc/arm-none-eabi/4.6.2/../../../../arm-none-eabi/lib/thumb/v7m\libstdc++.a(fundamental_type_info.o)
                0x00019074                typeinfo for double
 .rodata._ZTIPKf
                0x0001907c       0x10 c:/users/montoya/documents/classes/cmpe146/lab/cmpe146package_lpc1758/yagarto/bin/../lib/gcc/arm-none-eabi/4.6.2/../../../../arm-none-eabi/lib/thumb/v7m\libstdc++.a(fundamental_type_info.o)
                0x0001907c                typeinfo for float const*
 .rodata._ZTIPf
                0x0001908c       0x10 c:/users/montoya/documents/classes/cmpe146/lab/cmpe146package_lpc1758/yagarto/bin/../lib/gcc/arm-none-eabi/4.6.2/../../../../arm-none-eabi/lib/thumb/v7m\libstdc++.a(fundamental_type_info.o)
                0x0001908c                typeinfo for float*
 .rodata._ZTIf  0x0001909c        0x8 c:/users/montoya/documents/classes/cmpe146/lab/cmpe146package_lpc1758/yagarto/bin/../lib/gcc/arm-none-eabi/4.6.2/../../../../arm-none-eabi/lib/thumb/v7m\libstdc++.a(fundamental_type_info.o)
                0x0001909c                typeinfo for float
 .rodata._ZTIPKy
                0x000190a4       0x10 c:/users/montoya/documents/classes/cmpe146/lab/cmpe146package_lpc1758/yagarto/bin/../lib/gcc/arm-none-eabi/4.6.2/../../../../arm-none-eabi/lib/thumb/v7m\libstdc++.a(fundamental_type_info.o)
                0x000190a4                typeinfo for unsigned long long const*
 .rodata._ZTIPy
                0x000190b4       0x10 c:/users/montoya/documents/classes/cmpe146/lab/cmpe146package_lpc1758/yagarto/bin/../lib/gcc/arm-none-eabi/4.6.2/../../../../arm-none-eabi/lib/thumb/v7m\libstdc++.a(fundamental_type_info.o)
                0x000190b4                typeinfo for unsigned long long*
 .rodata._ZTIy  0x000190c4        0x8 c:/users/montoya/documents/classes/cmpe146/lab/cmpe146package_lpc1758/yagarto/bin/../lib/gcc/arm-none-eabi/4.6.2/../../../../arm-none-eabi/lib/thumb/v7m\libstdc++.a(fundamental_type_info.o)
                0x000190c4                typeinfo for unsigned long long
 .rodata._ZTIPKx
                0x000190cc       0x10 c:/users/montoya/documents/classes/cmpe146/lab/cmpe146package_lpc1758/yagarto/bin/../lib/gcc/arm-none-eabi/4.6.2/../../../../arm-none-eabi/lib/thumb/v7m\libstdc++.a(fundamental_type_info.o)
                0x000190cc                typeinfo for long long const*
 .rodata._ZTIPx
                0x000190dc       0x10 c:/users/montoya/documents/classes/cmpe146/lab/cmpe146package_lpc1758/yagarto/bin/../lib/gcc/arm-none-eabi/4.6.2/../../../../arm-none-eabi/lib/thumb/v7m\libstdc++.a(fundamental_type_info.o)
                0x000190dc                typeinfo for long long*
 .rodata._ZTIx  0x000190ec        0x8 c:/users/montoya/documents/classes/cmpe146/lab/cmpe146package_lpc1758/yagarto/bin/../lib/gcc/arm-none-eabi/4.6.2/../../../../arm-none-eabi/lib/thumb/v7m\libstdc++.a(fundamental_type_info.o)
                0x000190ec                typeinfo for long long
 .rodata._ZTIPKm
                0x000190f4       0x10 c:/users/montoya/documents/classes/cmpe146/lab/cmpe146package_lpc1758/yagarto/bin/../lib/gcc/arm-none-eabi/4.6.2/../../../../arm-none-eabi/lib/thumb/v7m\libstdc++.a(fundamental_type_info.o)
                0x000190f4                typeinfo for unsigned long const*
 .rodata._ZTIPm
                0x00019104       0x10 c:/users/montoya/documents/classes/cmpe146/lab/cmpe146package_lpc1758/yagarto/bin/../lib/gcc/arm-none-eabi/4.6.2/../../../../arm-none-eabi/lib/thumb/v7m\libstdc++.a(fundamental_type_info.o)
                0x00019104                typeinfo for unsigned long*
 .rodata._ZTIm  0x00019114        0x8 c:/users/montoya/documents/classes/cmpe146/lab/cmpe146package_lpc1758/yagarto/bin/../lib/gcc/arm-none-eabi/4.6.2/../../../../arm-none-eabi/lib/thumb/v7m\libstdc++.a(fundamental_type_info.o)
                0x00019114                typeinfo for unsigned long
 .rodata._ZTIPKl
                0x0001911c       0x10 c:/users/montoya/documents/classes/cmpe146/lab/cmpe146package_lpc1758/yagarto/bin/../lib/gcc/arm-none-eabi/4.6.2/../../../../arm-none-eabi/lib/thumb/v7m\libstdc++.a(fundamental_type_info.o)
                0x0001911c                typeinfo for long const*
 .rodata._ZTIPl
                0x0001912c       0x10 c:/users/montoya/documents/classes/cmpe146/lab/cmpe146package_lpc1758/yagarto/bin/../lib/gcc/arm-none-eabi/4.6.2/../../../../arm-none-eabi/lib/thumb/v7m\libstdc++.a(fundamental_type_info.o)
                0x0001912c                typeinfo for long*
 .rodata._ZTIl  0x0001913c        0x8 c:/users/montoya/documents/classes/cmpe146/lab/cmpe146package_lpc1758/yagarto/bin/../lib/gcc/arm-none-eabi/4.6.2/../../../../arm-none-eabi/lib/thumb/v7m\libstdc++.a(fundamental_type_info.o)
                0x0001913c                typeinfo for long
 .rodata._ZTIPKj
                0x00019144       0x10 c:/users/montoya/documents/classes/cmpe146/lab/cmpe146package_lpc1758/yagarto/bin/../lib/gcc/arm-none-eabi/4.6.2/../../../../arm-none-eabi/lib/thumb/v7m\libstdc++.a(fundamental_type_info.o)
                0x00019144                typeinfo for unsigned int const*
 .rodata._ZTIPj
                0x00019154       0x10 c:/users/montoya/documents/classes/cmpe146/lab/cmpe146package_lpc1758/yagarto/bin/../lib/gcc/arm-none-eabi/4.6.2/../../../../arm-none-eabi/lib/thumb/v7m\libstdc++.a(fundamental_type_info.o)
                0x00019154                typeinfo for unsigned int*
 .rodata._ZTIj  0x00019164        0x8 c:/users/montoya/documents/classes/cmpe146/lab/cmpe146package_lpc1758/yagarto/bin/../lib/gcc/arm-none-eabi/4.6.2/../../../../arm-none-eabi/lib/thumb/v7m\libstdc++.a(fundamental_type_info.o)
                0x00019164                typeinfo for unsigned int
 .rodata._ZTIPKi
                0x0001916c       0x10 c:/users/montoya/documents/classes/cmpe146/lab/cmpe146package_lpc1758/yagarto/bin/../lib/gcc/arm-none-eabi/4.6.2/../../../../arm-none-eabi/lib/thumb/v7m\libstdc++.a(fundamental_type_info.o)
                0x0001916c                typeinfo for int const*
 .rodata._ZTIPi
                0x0001917c       0x10 c:/users/montoya/documents/classes/cmpe146/lab/cmpe146package_lpc1758/yagarto/bin/../lib/gcc/arm-none-eabi/4.6.2/../../../../arm-none-eabi/lib/thumb/v7m\libstdc++.a(fundamental_type_info.o)
                0x0001917c                typeinfo for int*
 .rodata._ZTIi  0x0001918c        0x8 c:/users/montoya/documents/classes/cmpe146/lab/cmpe146package_lpc1758/yagarto/bin/../lib/gcc/arm-none-eabi/4.6.2/../../../../arm-none-eabi/lib/thumb/v7m\libstdc++.a(fundamental_type_info.o)
                0x0001918c                typeinfo for int
 .rodata._ZTIPKt
                0x00019194       0x10 c:/users/montoya/documents/classes/cmpe146/lab/cmpe146package_lpc1758/yagarto/bin/../lib/gcc/arm-none-eabi/4.6.2/../../../../arm-none-eabi/lib/thumb/v7m\libstdc++.a(fundamental_type_info.o)
                0x00019194                typeinfo for unsigned short const*
 .rodata._ZTIPt
                0x000191a4       0x10 c:/users/montoya/documents/classes/cmpe146/lab/cmpe146package_lpc1758/yagarto/bin/../lib/gcc/arm-none-eabi/4.6.2/../../../../arm-none-eabi/lib/thumb/v7m\libstdc++.a(fundamental_type_info.o)
                0x000191a4                typeinfo for unsigned short*
 .rodata._ZTIt  0x000191b4        0x8 c:/users/montoya/documents/classes/cmpe146/lab/cmpe146package_lpc1758/yagarto/bin/../lib/gcc/arm-none-eabi/4.6.2/../../../../arm-none-eabi/lib/thumb/v7m\libstdc++.a(fundamental_type_info.o)
                0x000191b4                typeinfo for unsigned short
 .rodata._ZTIPKs
                0x000191bc       0x10 c:/users/montoya/documents/classes/cmpe146/lab/cmpe146package_lpc1758/yagarto/bin/../lib/gcc/arm-none-eabi/4.6.2/../../../../arm-none-eabi/lib/thumb/v7m\libstdc++.a(fundamental_type_info.o)
                0x000191bc                typeinfo for short const*
 .rodata._ZTIPs
                0x000191cc       0x10 c:/users/montoya/documents/classes/cmpe146/lab/cmpe146package_lpc1758/yagarto/bin/../lib/gcc/arm-none-eabi/4.6.2/../../../../arm-none-eabi/lib/thumb/v7m\libstdc++.a(fundamental_type_info.o)
                0x000191cc                typeinfo for short*
 .rodata._ZTIs  0x000191dc        0x8 c:/users/montoya/documents/classes/cmpe146/lab/cmpe146package_lpc1758/yagarto/bin/../lib/gcc/arm-none-eabi/4.6.2/../../../../arm-none-eabi/lib/thumb/v7m\libstdc++.a(fundamental_type_info.o)
                0x000191dc                typeinfo for short
 .rodata._ZTIPKh
                0x000191e4       0x10 c:/users/montoya/documents/classes/cmpe146/lab/cmpe146package_lpc1758/yagarto/bin/../lib/gcc/arm-none-eabi/4.6.2/../../../../arm-none-eabi/lib/thumb/v7m\libstdc++.a(fundamental_type_info.o)
                0x000191e4                typeinfo for unsigned char const*
 .rodata._ZTIPh
                0x000191f4       0x10 c:/users/montoya/documents/classes/cmpe146/lab/cmpe146package_lpc1758/yagarto/bin/../lib/gcc/arm-none-eabi/4.6.2/../../../../arm-none-eabi/lib/thumb/v7m\libstdc++.a(fundamental_type_info.o)
                0x000191f4                typeinfo for unsigned char*
 .rodata._ZTIh  0x00019204        0x8 c:/users/montoya/documents/classes/cmpe146/lab/cmpe146package_lpc1758/yagarto/bin/../lib/gcc/arm-none-eabi/4.6.2/../../../../arm-none-eabi/lib/thumb/v7m\libstdc++.a(fundamental_type_info.o)
                0x00019204                typeinfo for unsigned char
 .rodata._ZTIPKa
                0x0001920c       0x10 c:/users/montoya/documents/classes/cmpe146/lab/cmpe146package_lpc1758/yagarto/bin/../lib/gcc/arm-none-eabi/4.6.2/../../../../arm-none-eabi/lib/thumb/v7m\libstdc++.a(fundamental_type_info.o)
                0x0001920c                typeinfo for signed char const*
 .rodata._ZTIPa
                0x0001921c       0x10 c:/users/montoya/documents/classes/cmpe146/lab/cmpe146package_lpc1758/yagarto/bin/../lib/gcc/arm-none-eabi/4.6.2/../../../../arm-none-eabi/lib/thumb/v7m\libstdc++.a(fundamental_type_info.o)
                0x0001921c                typeinfo for signed char*
 .rodata._ZTIa  0x0001922c        0x8 c:/users/montoya/documents/classes/cmpe146/lab/cmpe146package_lpc1758/yagarto/bin/../lib/gcc/arm-none-eabi/4.6.2/../../../../arm-none-eabi/lib/thumb/v7m\libstdc++.a(fundamental_type_info.o)
                0x0001922c                typeinfo for signed char
 .rodata._ZTIPKc
                0x00019234       0x10 c:/users/montoya/documents/classes/cmpe146/lab/cmpe146package_lpc1758/yagarto/bin/../lib/gcc/arm-none-eabi/4.6.2/../../../../arm-none-eabi/lib/thumb/v7m\libstdc++.a(fundamental_type_info.o)
                0x00019234                typeinfo for char const*
 .rodata._ZTIPc
                0x00019244       0x10 c:/users/montoya/documents/classes/cmpe146/lab/cmpe146package_lpc1758/yagarto/bin/../lib/gcc/arm-none-eabi/4.6.2/../../../../arm-none-eabi/lib/thumb/v7m\libstdc++.a(fundamental_type_info.o)
                0x00019244                typeinfo for char*
 .rodata._ZTIc  0x00019254        0x8 c:/users/montoya/documents/classes/cmpe146/lab/cmpe146package_lpc1758/yagarto/bin/../lib/gcc/arm-none-eabi/4.6.2/../../../../arm-none-eabi/lib/thumb/v7m\libstdc++.a(fundamental_type_info.o)
                0x00019254                typeinfo for char
 .rodata._ZTIPKDi
                0x0001925c       0x10 c:/users/montoya/documents/classes/cmpe146/lab/cmpe146package_lpc1758/yagarto/bin/../lib/gcc/arm-none-eabi/4.6.2/../../../../arm-none-eabi/lib/thumb/v7m\libstdc++.a(fundamental_type_info.o)
                0x0001925c                typeinfo for char32_t const*
 .rodata._ZTIPDi
                0x0001926c       0x10 c:/users/montoya/documents/classes/cmpe146/lab/cmpe146package_lpc1758/yagarto/bin/../lib/gcc/arm-none-eabi/4.6.2/../../../../arm-none-eabi/lib/thumb/v7m\libstdc++.a(fundamental_type_info.o)
                0x0001926c                typeinfo for char32_t*
 .rodata._ZTIDi
                0x0001927c        0x8 c:/users/montoya/documents/classes/cmpe146/lab/cmpe146package_lpc1758/yagarto/bin/../lib/gcc/arm-none-eabi/4.6.2/../../../../arm-none-eabi/lib/thumb/v7m\libstdc++.a(fundamental_type_info.o)
                0x0001927c                typeinfo for char32_t
 .rodata._ZTIPKDs
                0x00019284       0x10 c:/users/montoya/documents/classes/cmpe146/lab/cmpe146package_lpc1758/yagarto/bin/../lib/gcc/arm-none-eabi/4.6.2/../../../../arm-none-eabi/lib/thumb/v7m\libstdc++.a(fundamental_type_info.o)
                0x00019284                typeinfo for char16_t const*
 .rodata._ZTIPDs
                0x00019294       0x10 c:/users/montoya/documents/classes/cmpe146/lab/cmpe146package_lpc1758/yagarto/bin/../lib/gcc/arm-none-eabi/4.6.2/../../../../arm-none-eabi/lib/thumb/v7m\libstdc++.a(fundamental_type_info.o)
                0x00019294                typeinfo for char16_t*
 .rodata._ZTIDs
                0x000192a4        0x8 c:/users/montoya/documents/classes/cmpe146/lab/cmpe146package_lpc1758/yagarto/bin/../lib/gcc/arm-none-eabi/4.6.2/../../../../arm-none-eabi/lib/thumb/v7m\libstdc++.a(fundamental_type_info.o)
                0x000192a4                typeinfo for char16_t
 .rodata._ZTIPKw
                0x000192ac       0x10 c:/users/montoya/documents/classes/cmpe146/lab/cmpe146package_lpc1758/yagarto/bin/../lib/gcc/arm-none-eabi/4.6.2/../../../../arm-none-eabi/lib/thumb/v7m\libstdc++.a(fundamental_type_info.o)
                0x000192ac                typeinfo for wchar_t const*
 .rodata._ZTIPw
                0x000192bc       0x10 c:/users/montoya/documents/classes/cmpe146/lab/cmpe146package_lpc1758/yagarto/bin/../lib/gcc/arm-none-eabi/4.6.2/../../../../arm-none-eabi/lib/thumb/v7m\libstdc++.a(fundamental_type_info.o)
                0x000192bc                typeinfo for wchar_t*
 .rodata._ZTIw  0x000192cc        0x8 c:/users/montoya/documents/classes/cmpe146/lab/cmpe146package_lpc1758/yagarto/bin/../lib/gcc/arm-none-eabi/4.6.2/../../../../arm-none-eabi/lib/thumb/v7m\libstdc++.a(fundamental_type_info.o)
                0x000192cc                typeinfo for wchar_t
 .rodata._ZTIPKb
                0x000192d4       0x10 c:/users/montoya/documents/classes/cmpe146/lab/cmpe146package_lpc1758/yagarto/bin/../lib/gcc/arm-none-eabi/4.6.2/../../../../arm-none-eabi/lib/thumb/v7m\libstdc++.a(fundamental_type_info.o)
                0x000192d4                typeinfo for bool const*
 .rodata._ZTIPb
                0x000192e4       0x10 c:/users/montoya/documents/classes/cmpe146/lab/cmpe146package_lpc1758/yagarto/bin/../lib/gcc/arm-none-eabi/4.6.2/../../../../arm-none-eabi/lib/thumb/v7m\libstdc++.a(fundamental_type_info.o)
                0x000192e4                typeinfo for bool*
 .rodata._ZTIb  0x000192f4        0x8 c:/users/montoya/documents/classes/cmpe146/lab/cmpe146package_lpc1758/yagarto/bin/../lib/gcc/arm-none-eabi/4.6.2/../../../../arm-none-eabi/lib/thumb/v7m\libstdc++.a(fundamental_type_info.o)
                0x000192f4                typeinfo for bool
 .rodata._ZTIPKv
                0x000192fc       0x10 c:/users/montoya/documents/classes/cmpe146/lab/cmpe146package_lpc1758/yagarto/bin/../lib/gcc/arm-none-eabi/4.6.2/../../../../arm-none-eabi/lib/thumb/v7m\libstdc++.a(fundamental_type_info.o)
                0x000192fc                typeinfo for void const*
 .rodata._ZTIPv
                0x0001930c       0x10 c:/users/montoya/documents/classes/cmpe146/lab/cmpe146package_lpc1758/yagarto/bin/../lib/gcc/arm-none-eabi/4.6.2/../../../../arm-none-eabi/lib/thumb/v7m\libstdc++.a(fundamental_type_info.o)
                0x0001930c                typeinfo for void*
 .rodata._ZTIv  0x0001931c        0x8 c:/users/montoya/documents/classes/cmpe146/lab/cmpe146package_lpc1758/yagarto/bin/../lib/gcc/arm-none-eabi/4.6.2/../../../../arm-none-eabi/lib/thumb/v7m\libstdc++.a(fundamental_type_info.o)
                0x0001931c                typeinfo for void
 .rodata._ZTSPKDn
                0x00019324        0x8 c:/users/montoya/documents/classes/cmpe146/lab/cmpe146package_lpc1758/yagarto/bin/../lib/gcc/arm-none-eabi/4.6.2/../../../../arm-none-eabi/lib/thumb/v7m\libstdc++.a(fundamental_type_info.o)
                0x00019324                typeinfo name for decltype(nullptr) const*
 .rodata._ZTSPDn
                0x0001932c        0x4 c:/users/montoya/documents/classes/cmpe146/lab/cmpe146package_lpc1758/yagarto/bin/../lib/gcc/arm-none-eabi/4.6.2/../../../../arm-none-eabi/lib/thumb/v7m\libstdc++.a(fundamental_type_info.o)
                0x0001932c                typeinfo name for decltype(nullptr)*
 .rodata._ZTSDn
                0x00019330        0x4 c:/users/montoya/documents/classes/cmpe146/lab/cmpe146package_lpc1758/yagarto/bin/../lib/gcc/arm-none-eabi/4.6.2/../../../../arm-none-eabi/lib/thumb/v7m\libstdc++.a(fundamental_type_info.o)
                0x00019330                typeinfo name for decltype(nullptr)
 .rodata._ZTSPKDe
                0x00019334        0x8 c:/users/montoya/documents/classes/cmpe146/lab/cmpe146package_lpc1758/yagarto/bin/../lib/gcc/arm-none-eabi/4.6.2/../../../../arm-none-eabi/lib/thumb/v7m\libstdc++.a(fundamental_type_info.o)
                0x00019334                typeinfo name for decimal128 const*
 .rodata._ZTSPDe
                0x0001933c        0x4 c:/users/montoya/documents/classes/cmpe146/lab/cmpe146package_lpc1758/yagarto/bin/../lib/gcc/arm-none-eabi/4.6.2/../../../../arm-none-eabi/lib/thumb/v7m\libstdc++.a(fundamental_type_info.o)
                0x0001933c                typeinfo name for decimal128*
 .rodata._ZTSDe
                0x00019340        0x4 c:/users/montoya/documents/classes/cmpe146/lab/cmpe146package_lpc1758/yagarto/bin/../lib/gcc/arm-none-eabi/4.6.2/../../../../arm-none-eabi/lib/thumb/v7m\libstdc++.a(fundamental_type_info.o)
                0x00019340                typeinfo name for decimal128
 .rodata._ZTSPKDd
                0x00019344        0x8 c:/users/montoya/documents/classes/cmpe146/lab/cmpe146package_lpc1758/yagarto/bin/../lib/gcc/arm-none-eabi/4.6.2/../../../../arm-none-eabi/lib/thumb/v7m\libstdc++.a(fundamental_type_info.o)
                0x00019344                typeinfo name for decimal64 const*
 .rodata._ZTSPDd
                0x0001934c        0x4 c:/users/montoya/documents/classes/cmpe146/lab/cmpe146package_lpc1758/yagarto/bin/../lib/gcc/arm-none-eabi/4.6.2/../../../../arm-none-eabi/lib/thumb/v7m\libstdc++.a(fundamental_type_info.o)
                0x0001934c                typeinfo name for decimal64*
 .rodata._ZTSDd
                0x00019350        0x4 c:/users/montoya/documents/classes/cmpe146/lab/cmpe146package_lpc1758/yagarto/bin/../lib/gcc/arm-none-eabi/4.6.2/../../../../arm-none-eabi/lib/thumb/v7m\libstdc++.a(fundamental_type_info.o)
                0x00019350                typeinfo name for decimal64
 .rodata._ZTSPKDf
                0x00019354        0x8 c:/users/montoya/documents/classes/cmpe146/lab/cmpe146package_lpc1758/yagarto/bin/../lib/gcc/arm-none-eabi/4.6.2/../../../../arm-none-eabi/lib/thumb/v7m\libstdc++.a(fundamental_type_info.o)
                0x00019354                typeinfo name for decimal32 const*
 .rodata._ZTSPDf
                0x0001935c        0x4 c:/users/montoya/documents/classes/cmpe146/lab/cmpe146package_lpc1758/yagarto/bin/../lib/gcc/arm-none-eabi/4.6.2/../../../../arm-none-eabi/lib/thumb/v7m\libstdc++.a(fundamental_type_info.o)
                0x0001935c                typeinfo name for decimal32*
 .rodata._ZTSDf
                0x00019360        0x4 c:/users/montoya/documents/classes/cmpe146/lab/cmpe146package_lpc1758/yagarto/bin/../lib/gcc/arm-none-eabi/4.6.2/../../../../arm-none-eabi/lib/thumb/v7m\libstdc++.a(fundamental_type_info.o)
                0x00019360                typeinfo name for decimal32
 .rodata._ZTSPKe
                0x00019364        0x4 c:/users/montoya/documents/classes/cmpe146/lab/cmpe146package_lpc1758/yagarto/bin/../lib/gcc/arm-none-eabi/4.6.2/../../../../arm-none-eabi/lib/thumb/v7m\libstdc++.a(fundamental_type_info.o)
                0x00019364                typeinfo name for long double const*
 .rodata._ZTSPe
                0x00019368        0x4 c:/users/montoya/documents/classes/cmpe146/lab/cmpe146package_lpc1758/yagarto/bin/../lib/gcc/arm-none-eabi/4.6.2/../../../../arm-none-eabi/lib/thumb/v7m\libstdc++.a(fundamental_type_info.o)
                0x00019368                typeinfo name for long double*
 .rodata._ZTSe  0x0001936c        0x4 c:/users/montoya/documents/classes/cmpe146/lab/cmpe146package_lpc1758/yagarto/bin/../lib/gcc/arm-none-eabi/4.6.2/../../../../arm-none-eabi/lib/thumb/v7m\libstdc++.a(fundamental_type_info.o)
                0x0001936c                typeinfo name for long double
 .rodata._ZTSPKd
                0x00019370        0x4 c:/users/montoya/documents/classes/cmpe146/lab/cmpe146package_lpc1758/yagarto/bin/../lib/gcc/arm-none-eabi/4.6.2/../../../../arm-none-eabi/lib/thumb/v7m\libstdc++.a(fundamental_type_info.o)
                0x00019370                typeinfo name for double const*
 .rodata._ZTSPd
                0x00019374        0x4 c:/users/montoya/documents/classes/cmpe146/lab/cmpe146package_lpc1758/yagarto/bin/../lib/gcc/arm-none-eabi/4.6.2/../../../../arm-none-eabi/lib/thumb/v7m\libstdc++.a(fundamental_type_info.o)
                0x00019374                typeinfo name for double*
 .rodata._ZTSd  0x00019378        0x4 c:/users/montoya/documents/classes/cmpe146/lab/cmpe146package_lpc1758/yagarto/bin/../lib/gcc/arm-none-eabi/4.6.2/../../../../arm-none-eabi/lib/thumb/v7m\libstdc++.a(fundamental_type_info.o)
                0x00019378                typeinfo name for double
 .rodata._ZTSPKf
                0x0001937c        0x4 c:/users/montoya/documents/classes/cmpe146/lab/cmpe146package_lpc1758/yagarto/bin/../lib/gcc/arm-none-eabi/4.6.2/../../../../arm-none-eabi/lib/thumb/v7m\libstdc++.a(fundamental_type_info.o)
                0x0001937c                typeinfo name for float const*
 .rodata._ZTSPf
                0x00019380        0x4 c:/users/montoya/documents/classes/cmpe146/lab/cmpe146package_lpc1758/yagarto/bin/../lib/gcc/arm-none-eabi/4.6.2/../../../../arm-none-eabi/lib/thumb/v7m\libstdc++.a(fundamental_type_info.o)
                0x00019380                typeinfo name for float*
 .rodata._ZTSf  0x00019384        0x4 c:/users/montoya/documents/classes/cmpe146/lab/cmpe146package_lpc1758/yagarto/bin/../lib/gcc/arm-none-eabi/4.6.2/../../../../arm-none-eabi/lib/thumb/v7m\libstdc++.a(fundamental_type_info.o)
                0x00019384                typeinfo name for float
 .rodata._ZTSPKy
                0x00019388        0x4 c:/users/montoya/documents/classes/cmpe146/lab/cmpe146package_lpc1758/yagarto/bin/../lib/gcc/arm-none-eabi/4.6.2/../../../../arm-none-eabi/lib/thumb/v7m\libstdc++.a(fundamental_type_info.o)
                0x00019388                typeinfo name for unsigned long long const*
 .rodata._ZTSPy
                0x0001938c        0x4 c:/users/montoya/documents/classes/cmpe146/lab/cmpe146package_lpc1758/yagarto/bin/../lib/gcc/arm-none-eabi/4.6.2/../../../../arm-none-eabi/lib/thumb/v7m\libstdc++.a(fundamental_type_info.o)
                0x0001938c                typeinfo name for unsigned long long*
 .rodata._ZTSy  0x00019390        0x4 c:/users/montoya/documents/classes/cmpe146/lab/cmpe146package_lpc1758/yagarto/bin/../lib/gcc/arm-none-eabi/4.6.2/../../../../arm-none-eabi/lib/thumb/v7m\libstdc++.a(fundamental_type_info.o)
                0x00019390                typeinfo name for unsigned long long
 .rodata._ZTSPKx
                0x00019394        0x4 c:/users/montoya/documents/classes/cmpe146/lab/cmpe146package_lpc1758/yagarto/bin/../lib/gcc/arm-none-eabi/4.6.2/../../../../arm-none-eabi/lib/thumb/v7m\libstdc++.a(fundamental_type_info.o)
                0x00019394                typeinfo name for long long const*
 .rodata._ZTSPx
                0x00019398        0x4 c:/users/montoya/documents/classes/cmpe146/lab/cmpe146package_lpc1758/yagarto/bin/../lib/gcc/arm-none-eabi/4.6.2/../../../../arm-none-eabi/lib/thumb/v7m\libstdc++.a(fundamental_type_info.o)
                0x00019398                typeinfo name for long long*
 .rodata._ZTSx  0x0001939c        0x4 c:/users/montoya/documents/classes/cmpe146/lab/cmpe146package_lpc1758/yagarto/bin/../lib/gcc/arm-none-eabi/4.6.2/../../../../arm-none-eabi/lib/thumb/v7m\libstdc++.a(fundamental_type_info.o)
                0x0001939c                typeinfo name for long long
 .rodata._ZTSPKm
                0x000193a0        0x4 c:/users/montoya/documents/classes/cmpe146/lab/cmpe146package_lpc1758/yagarto/bin/../lib/gcc/arm-none-eabi/4.6.2/../../../../arm-none-eabi/lib/thumb/v7m\libstdc++.a(fundamental_type_info.o)
                0x000193a0                typeinfo name for unsigned long const*
 .rodata._ZTSPm
                0x000193a4        0x4 c:/users/montoya/documents/classes/cmpe146/lab/cmpe146package_lpc1758/yagarto/bin/../lib/gcc/arm-none-eabi/4.6.2/../../../../arm-none-eabi/lib/thumb/v7m\libstdc++.a(fundamental_type_info.o)
                0x000193a4                typeinfo name for unsigned long*
 .rodata._ZTSm  0x000193a8        0x4 c:/users/montoya/documents/classes/cmpe146/lab/cmpe146package_lpc1758/yagarto/bin/../lib/gcc/arm-none-eabi/4.6.2/../../../../arm-none-eabi/lib/thumb/v7m\libstdc++.a(fundamental_type_info.o)
                0x000193a8                typeinfo name for unsigned long
 .rodata._ZTSPKl
                0x000193ac        0x4 c:/users/montoya/documents/classes/cmpe146/lab/cmpe146package_lpc1758/yagarto/bin/../lib/gcc/arm-none-eabi/4.6.2/../../../../arm-none-eabi/lib/thumb/v7m\libstdc++.a(fundamental_type_info.o)
                0x000193ac                typeinfo name for long const*
 .rodata._ZTSPl
                0x000193b0        0x4 c:/users/montoya/documents/classes/cmpe146/lab/cmpe146package_lpc1758/yagarto/bin/../lib/gcc/arm-none-eabi/4.6.2/../../../../arm-none-eabi/lib/thumb/v7m\libstdc++.a(fundamental_type_info.o)
                0x000193b0                typeinfo name for long*
 .rodata._ZTSl  0x000193b4        0x4 c:/users/montoya/documents/classes/cmpe146/lab/cmpe146package_lpc1758/yagarto/bin/../lib/gcc/arm-none-eabi/4.6.2/../../../../arm-none-eabi/lib/thumb/v7m\libstdc++.a(fundamental_type_info.o)
                0x000193b4                typeinfo name for long
 .rodata._ZTSPKj
                0x000193b8        0x4 c:/users/montoya/documents/classes/cmpe146/lab/cmpe146package_lpc1758/yagarto/bin/../lib/gcc/arm-none-eabi/4.6.2/../../../../arm-none-eabi/lib/thumb/v7m\libstdc++.a(fundamental_type_info.o)
                0x000193b8                typeinfo name for unsigned int const*
 .rodata._ZTSPj
                0x000193bc        0x4 c:/users/montoya/documents/classes/cmpe146/lab/cmpe146package_lpc1758/yagarto/bin/../lib/gcc/arm-none-eabi/4.6.2/../../../../arm-none-eabi/lib/thumb/v7m\libstdc++.a(fundamental_type_info.o)
                0x000193bc                typeinfo name for unsigned int*
 .rodata._ZTSj  0x000193c0        0x4 c:/users/montoya/documents/classes/cmpe146/lab/cmpe146package_lpc1758/yagarto/bin/../lib/gcc/arm-none-eabi/4.6.2/../../../../arm-none-eabi/lib/thumb/v7m\libstdc++.a(fundamental_type_info.o)
                0x000193c0                typeinfo name for unsigned int
 .rodata._ZTSPKi
                0x000193c4        0x4 c:/users/montoya/documents/classes/cmpe146/lab/cmpe146package_lpc1758/yagarto/bin/../lib/gcc/arm-none-eabi/4.6.2/../../../../arm-none-eabi/lib/thumb/v7m\libstdc++.a(fundamental_type_info.o)
                0x000193c4                typeinfo name for int const*
 .rodata._ZTSPi
                0x000193c8        0x4 c:/users/montoya/documents/classes/cmpe146/lab/cmpe146package_lpc1758/yagarto/bin/../lib/gcc/arm-none-eabi/4.6.2/../../../../arm-none-eabi/lib/thumb/v7m\libstdc++.a(fundamental_type_info.o)
                0x000193c8                typeinfo name for int*
 .rodata._ZTSi  0x000193cc        0x4 c:/users/montoya/documents/classes/cmpe146/lab/cmpe146package_lpc1758/yagarto/bin/../lib/gcc/arm-none-eabi/4.6.2/../../../../arm-none-eabi/lib/thumb/v7m\libstdc++.a(fundamental_type_info.o)
                0x000193cc                typeinfo name for int
 .rodata._ZTSPKt
                0x000193d0        0x4 c:/users/montoya/documents/classes/cmpe146/lab/cmpe146package_lpc1758/yagarto/bin/../lib/gcc/arm-none-eabi/4.6.2/../../../../arm-none-eabi/lib/thumb/v7m\libstdc++.a(fundamental_type_info.o)
                0x000193d0                typeinfo name for unsigned short const*
 .rodata._ZTSPt
                0x000193d4        0x4 c:/users/montoya/documents/classes/cmpe146/lab/cmpe146package_lpc1758/yagarto/bin/../lib/gcc/arm-none-eabi/4.6.2/../../../../arm-none-eabi/lib/thumb/v7m\libstdc++.a(fundamental_type_info.o)
                0x000193d4                typeinfo name for unsigned short*
 .rodata._ZTSt  0x000193d8        0x4 c:/users/montoya/documents/classes/cmpe146/lab/cmpe146package_lpc1758/yagarto/bin/../lib/gcc/arm-none-eabi/4.6.2/../../../../arm-none-eabi/lib/thumb/v7m\libstdc++.a(fundamental_type_info.o)
                0x000193d8                typeinfo name for unsigned short
 .rodata._ZTSPKs
                0x000193dc        0x4 c:/users/montoya/documents/classes/cmpe146/lab/cmpe146package_lpc1758/yagarto/bin/../lib/gcc/arm-none-eabi/4.6.2/../../../../arm-none-eabi/lib/thumb/v7m\libstdc++.a(fundamental_type_info.o)
                0x000193dc                typeinfo name for short const*
 .rodata._ZTSPs
                0x000193e0        0x4 c:/users/montoya/documents/classes/cmpe146/lab/cmpe146package_lpc1758/yagarto/bin/../lib/gcc/arm-none-eabi/4.6.2/../../../../arm-none-eabi/lib/thumb/v7m\libstdc++.a(fundamental_type_info.o)
                0x000193e0                typeinfo name for short*
 .rodata._ZTSs  0x000193e4        0x4 c:/users/montoya/documents/classes/cmpe146/lab/cmpe146package_lpc1758/yagarto/bin/../lib/gcc/arm-none-eabi/4.6.2/../../../../arm-none-eabi/lib/thumb/v7m\libstdc++.a(fundamental_type_info.o)
                0x000193e4                typeinfo name for short
 .rodata._ZTSPKh
                0x000193e8        0x4 c:/users/montoya/documents/classes/cmpe146/lab/cmpe146package_lpc1758/yagarto/bin/../lib/gcc/arm-none-eabi/4.6.2/../../../../arm-none-eabi/lib/thumb/v7m\libstdc++.a(fundamental_type_info.o)
                0x000193e8                typeinfo name for unsigned char const*
 .rodata._ZTSPh
                0x000193ec        0x4 c:/users/montoya/documents/classes/cmpe146/lab/cmpe146package_lpc1758/yagarto/bin/../lib/gcc/arm-none-eabi/4.6.2/../../../../arm-none-eabi/lib/thumb/v7m\libstdc++.a(fundamental_type_info.o)
                0x000193ec                typeinfo name for unsigned char*
 .rodata._ZTSh  0x000193f0        0x4 c:/users/montoya/documents/classes/cmpe146/lab/cmpe146package_lpc1758/yagarto/bin/../lib/gcc/arm-none-eabi/4.6.2/../../../../arm-none-eabi/lib/thumb/v7m\libstdc++.a(fundamental_type_info.o)
                0x000193f0                typeinfo name for unsigned char
 .rodata._ZTSPKa
                0x000193f4        0x4 c:/users/montoya/documents/classes/cmpe146/lab/cmpe146package_lpc1758/yagarto/bin/../lib/gcc/arm-none-eabi/4.6.2/../../../../arm-none-eabi/lib/thumb/v7m\libstdc++.a(fundamental_type_info.o)
                0x000193f4                typeinfo name for signed char const*
 .rodata._ZTSPa
                0x000193f8        0x4 c:/users/montoya/documents/classes/cmpe146/lab/cmpe146package_lpc1758/yagarto/bin/../lib/gcc/arm-none-eabi/4.6.2/../../../../arm-none-eabi/lib/thumb/v7m\libstdc++.a(fundamental_type_info.o)
                0x000193f8                typeinfo name for signed char*
 .rodata._ZTSa  0x000193fc        0x4 c:/users/montoya/documents/classes/cmpe146/lab/cmpe146package_lpc1758/yagarto/bin/../lib/gcc/arm-none-eabi/4.6.2/../../../../arm-none-eabi/lib/thumb/v7m\libstdc++.a(fundamental_type_info.o)
                0x000193fc                typeinfo name for signed char
 .rodata._ZTSPKc
                0x00019400        0x4 c:/users/montoya/documents/classes/cmpe146/lab/cmpe146package_lpc1758/yagarto/bin/../lib/gcc/arm-none-eabi/4.6.2/../../../../arm-none-eabi/lib/thumb/v7m\libstdc++.a(fundamental_type_info.o)
                0x00019400                typeinfo name for char const*
 .rodata._ZTSPc
                0x00019404        0x4 c:/users/montoya/documents/classes/cmpe146/lab/cmpe146package_lpc1758/yagarto/bin/../lib/gcc/arm-none-eabi/4.6.2/../../../../arm-none-eabi/lib/thumb/v7m\libstdc++.a(fundamental_type_info.o)
                0x00019404                typeinfo name for char*
 .rodata._ZTSc  0x00019408        0x4 c:/users/montoya/documents/classes/cmpe146/lab/cmpe146package_lpc1758/yagarto/bin/../lib/gcc/arm-none-eabi/4.6.2/../../../../arm-none-eabi/lib/thumb/v7m\libstdc++.a(fundamental_type_info.o)
                0x00019408                typeinfo name for char
 .rodata._ZTSPKDi
                0x0001940c        0x8 c:/users/montoya/documents/classes/cmpe146/lab/cmpe146package_lpc1758/yagarto/bin/../lib/gcc/arm-none-eabi/4.6.2/../../../../arm-none-eabi/lib/thumb/v7m\libstdc++.a(fundamental_type_info.o)
                0x0001940c                typeinfo name for char32_t const*
 .rodata._ZTSPDi
                0x00019414        0x4 c:/users/montoya/documents/classes/cmpe146/lab/cmpe146package_lpc1758/yagarto/bin/../lib/gcc/arm-none-eabi/4.6.2/../../../../arm-none-eabi/lib/thumb/v7m\libstdc++.a(fundamental_type_info.o)
                0x00019414                typeinfo name for char32_t*
 .rodata._ZTSDi
                0x00019418        0x4 c:/users/montoya/documents/classes/cmpe146/lab/cmpe146package_lpc1758/yagarto/bin/../lib/gcc/arm-none-eabi/4.6.2/../../../../arm-none-eabi/lib/thumb/v7m\libstdc++.a(fundamental_type_info.o)
                0x00019418                typeinfo name for char32_t
 .rodata._ZTSPKDs
                0x0001941c        0x8 c:/users/montoya/documents/classes/cmpe146/lab/cmpe146package_lpc1758/yagarto/bin/../lib/gcc/arm-none-eabi/4.6.2/../../../../arm-none-eabi/lib/thumb/v7m\libstdc++.a(fundamental_type_info.o)
                0x0001941c                typeinfo name for char16_t const*
 .rodata._ZTSPDs
                0x00019424        0x4 c:/users/montoya/documents/classes/cmpe146/lab/cmpe146package_lpc1758/yagarto/bin/../lib/gcc/arm-none-eabi/4.6.2/../../../../arm-none-eabi/lib/thumb/v7m\libstdc++.a(fundamental_type_info.o)
                0x00019424                typeinfo name for char16_t*
 .rodata._ZTSDs
                0x00019428        0x4 c:/users/montoya/documents/classes/cmpe146/lab/cmpe146package_lpc1758/yagarto/bin/../lib/gcc/arm-none-eabi/4.6.2/../../../../arm-none-eabi/lib/thumb/v7m\libstdc++.a(fundamental_type_info.o)
                0x00019428                typeinfo name for char16_t
 .rodata._ZTSPKw
                0x0001942c        0x4 c:/users/montoya/documents/classes/cmpe146/lab/cmpe146package_lpc1758/yagarto/bin/../lib/gcc/arm-none-eabi/4.6.2/../../../../arm-none-eabi/lib/thumb/v7m\libstdc++.a(fundamental_type_info.o)
                0x0001942c                typeinfo name for wchar_t const*
 .rodata._ZTSPw
                0x00019430        0x4 c:/users/montoya/documents/classes/cmpe146/lab/cmpe146package_lpc1758/yagarto/bin/../lib/gcc/arm-none-eabi/4.6.2/../../../../arm-none-eabi/lib/thumb/v7m\libstdc++.a(fundamental_type_info.o)
                0x00019430                typeinfo name for wchar_t*
 .rodata._ZTSw  0x00019434        0x4 c:/users/montoya/documents/classes/cmpe146/lab/cmpe146package_lpc1758/yagarto/bin/../lib/gcc/arm-none-eabi/4.6.2/../../../../arm-none-eabi/lib/thumb/v7m\libstdc++.a(fundamental_type_info.o)
                0x00019434                typeinfo name for wchar_t
 .rodata._ZTSPKb
                0x00019438        0x4 c:/users/montoya/documents/classes/cmpe146/lab/cmpe146package_lpc1758/yagarto/bin/../lib/gcc/arm-none-eabi/4.6.2/../../../../arm-none-eabi/lib/thumb/v7m\libstdc++.a(fundamental_type_info.o)
                0x00019438                typeinfo name for bool const*
 .rodata._ZTSPb
                0x0001943c        0x4 c:/users/montoya/documents/classes/cmpe146/lab/cmpe146package_lpc1758/yagarto/bin/../lib/gcc/arm-none-eabi/4.6.2/../../../../arm-none-eabi/lib/thumb/v7m\libstdc++.a(fundamental_type_info.o)
                0x0001943c                typeinfo name for bool*
 .rodata._ZTSb  0x00019440        0x4 c:/users/montoya/documents/classes/cmpe146/lab/cmpe146package_lpc1758/yagarto/bin/../lib/gcc/arm-none-eabi/4.6.2/../../../../arm-none-eabi/lib/thumb/v7m\libstdc++.a(fundamental_type_info.o)
                0x00019440                typeinfo name for bool
 .rodata._ZTSPKv
                0x00019444        0x4 c:/users/montoya/documents/classes/cmpe146/lab/cmpe146package_lpc1758/yagarto/bin/../lib/gcc/arm-none-eabi/4.6.2/../../../../arm-none-eabi/lib/thumb/v7m\libstdc++.a(fundamental_type_info.o)
                0x00019444                typeinfo name for void const*
 .rodata._ZTSPv
                0x00019448        0x4 c:/users/montoya/documents/classes/cmpe146/lab/cmpe146package_lpc1758/yagarto/bin/../lib/gcc/arm-none-eabi/4.6.2/../../../../arm-none-eabi/lib/thumb/v7m\libstdc++.a(fundamental_type_info.o)
                0x00019448                typeinfo name for void*
 .rodata._ZTSv  0x0001944c        0x4 c:/users/montoya/documents/classes/cmpe146/lab/cmpe146package_lpc1758/yagarto/bin/../lib/gcc/arm-none-eabi/4.6.2/../../../../arm-none-eabi/lib/thumb/v7m\libstdc++.a(fundamental_type_info.o)
                0x0001944c                typeinfo name for void
 .rodata._ZTIN10__cxxabiv123__fundamental_type_infoE
                0x00019450        0xc c:/users/montoya/documents/classes/cmpe146/lab/cmpe146package_lpc1758/yagarto/bin/../lib/gcc/arm-none-eabi/4.6.2/../../../../arm-none-eabi/lib/thumb/v7m\libstdc++.a(fundamental_type_info.o)
                0x00019450                typeinfo for __cxxabiv1::__fundamental_type_info
 .rodata._ZTSN10__cxxabiv123__fundamental_type_infoE
                0x0001945c       0x28 c:/users/montoya/documents/classes/cmpe146/lab/cmpe146package_lpc1758/yagarto/bin/../lib/gcc/arm-none-eabi/4.6.2/../../../../arm-none-eabi/lib/thumb/v7m\libstdc++.a(fundamental_type_info.o)
                0x0001945c                typeinfo name for __cxxabiv1::__fundamental_type_info
 *fill*         0x00019484        0x4 00
 .rodata._ZTVN10__cxxabiv123__fundamental_type_infoE
                0x00019488       0x20 c:/users/montoya/documents/classes/cmpe146/lab/cmpe146package_lpc1758/yagarto/bin/../lib/gcc/arm-none-eabi/4.6.2/../../../../arm-none-eabi/lib/thumb/v7m\libstdc++.a(fundamental_type_info.o)
                0x00019488                vtable for __cxxabiv1::__fundamental_type_info
 .rodata._ZTSN10__cxxabiv119__pointer_type_infoE
                0x000194a8       0x24 c:/users/montoya/documents/classes/cmpe146/lab/cmpe146package_lpc1758/yagarto/bin/../lib/gcc/arm-none-eabi/4.6.2/../../../../arm-none-eabi/lib/thumb/v7m\libstdc++.a(pointer_type_info.o)
                0x000194a8                typeinfo name for __cxxabiv1::__pointer_type_info
 .rodata._ZTIN10__cxxabiv119__pointer_type_infoE
                0x000194cc        0xc c:/users/montoya/documents/classes/cmpe146/lab/cmpe146package_lpc1758/yagarto/bin/../lib/gcc/arm-none-eabi/4.6.2/../../../../arm-none-eabi/lib/thumb/v7m\libstdc++.a(pointer_type_info.o)
                0x000194cc                typeinfo for __cxxabiv1::__pointer_type_info
 .rodata._ZTVN10__cxxabiv119__pointer_type_infoE
                0x000194d8       0x28 c:/users/montoya/documents/classes/cmpe146/lab/cmpe146package_lpc1758/yagarto/bin/../lib/gcc/arm-none-eabi/4.6.2/../../../../arm-none-eabi/lib/thumb/v7m\libstdc++.a(pointer_type_info.o)
                0x000194d8                vtable for __cxxabiv1::__pointer_type_info
 .rodata._ZTISt8bad_cast
                0x00019500        0xc c:/users/montoya/documents/classes/cmpe146/lab/cmpe146package_lpc1758/yagarto/bin/../lib/gcc/arm-none-eabi/4.6.2/../../../../arm-none-eabi/lib/thumb/v7m\libstdc++.a(bad_cast.o)
                0x00019500                typeinfo for std::bad_cast
 .rodata._ZTSSt8bad_cast
                0x0001950c        0xc c:/users/montoya/documents/classes/cmpe146/lab/cmpe146package_lpc1758/yagarto/bin/../lib/gcc/arm-none-eabi/4.6.2/../../../../arm-none-eabi/lib/thumb/v7m\libstdc++.a(bad_cast.o)
                0x0001950c                typeinfo name for std::bad_cast
 .rodata._ZTVSt8bad_cast
                0x00019518       0x18 c:/users/montoya/documents/classes/cmpe146/lab/cmpe146package_lpc1758/yagarto/bin/../lib/gcc/arm-none-eabi/4.6.2/../../../../arm-none-eabi/lib/thumb/v7m\libstdc++.a(bad_cast.o)
                0x00019518                vtable for std::bad_cast
 .rodata.str1.4
                0x00019530        0xe c:/users/montoya/documents/classes/cmpe146/lab/cmpe146package_lpc1758/yagarto/bin/../lib/gcc/arm-none-eabi/4.6.2/../../../../arm-none-eabi/lib/thumb/v7m\libstdc++.a(bad_cast.o)
                                 0x10 (size before relaxing)
 *fill*         0x0001953e        0x2 00
 .rodata._ZTVSt10bad_typeid
                0x00019540       0x18 c:/users/montoya/documents/classes/cmpe146/lab/cmpe146package_lpc1758/yagarto/bin/../lib/gcc/arm-none-eabi/4.6.2/../../../../arm-none-eabi/lib/thumb/v7m\libstdc++.a(bad_typeid.o)
                0x00019540                vtable for std::bad_typeid
 .rodata._ZTISt10bad_typeid
                0x00019558        0xc c:/users/montoya/documents/classes/cmpe146/lab/cmpe146package_lpc1758/yagarto/bin/../lib/gcc/arm-none-eabi/4.6.2/../../../../arm-none-eabi/lib/thumb/v7m\libstdc++.a(bad_typeid.o)
                0x00019558                typeinfo for std::bad_typeid
 .rodata.str1.4
                0x00019564       0x10 c:/users/montoya/documents/classes/cmpe146/lab/cmpe146package_lpc1758/yagarto/bin/../lib/gcc/arm-none-eabi/4.6.2/../../../../arm-none-eabi/lib/thumb/v7m\libstdc++.a(bad_typeid.o)
 .rodata._ZTSSt10bad_typeid
                0x00019574       0x10 c:/users/montoya/documents/classes/cmpe146/lab/cmpe146package_lpc1758/yagarto/bin/../lib/gcc/arm-none-eabi/4.6.2/../../../../arm-none-eabi/lib/thumb/v7m\libstdc++.a(bad_typeid.o)
                0x00019574                typeinfo name for std::bad_typeid
 .rodata._ZTIN10__cxxabiv117__pbase_type_infoE
                0x00019584        0xc c:/users/montoya/documents/classes/cmpe146/lab/cmpe146package_lpc1758/yagarto/bin/../lib/gcc/arm-none-eabi/4.6.2/../../../../arm-none-eabi/lib/thumb/v7m\libstdc++.a(pbase_type_info.o)
                0x00019584                typeinfo for __cxxabiv1::__pbase_type_info
 .rodata._ZTSN10__cxxabiv117__pbase_type_infoE
                0x00019590       0x24 c:/users/montoya/documents/classes/cmpe146/lab/cmpe146package_lpc1758/yagarto/bin/../lib/gcc/arm-none-eabi/4.6.2/../../../../arm-none-eabi/lib/thumb/v7m\libstdc++.a(pbase_type_info.o)
                0x00019590                typeinfo name for __cxxabiv1::__pbase_type_info
 *fill*         0x000195b4        0x4 00
 .rodata._ZTVN10__cxxabiv117__pbase_type_infoE
                0x000195b8       0x28 c:/users/montoya/documents/classes/cmpe146/lab/cmpe146package_lpc1758/yagarto/bin/../lib/gcc/arm-none-eabi/4.6.2/../../../../arm-none-eabi/lib/thumb/v7m\libstdc++.a(pbase_type_info.o)
                0x000195b8                vtable for __cxxabiv1::__pbase_type_info
 .rodata.str1.4
                0x000195e0       0x3f c:/users/montoya/documents/classes/cmpe146/lab/cmpe146package_lpc1758/yagarto/bin/../lib/gcc/arm-none-eabi/4.6.2/../../../../arm-none-eabi/lib/thumb/v7m\libc.a(lib_a-assert.o)
                                 0x44 (size before relaxing)
 *fill*         0x0001961f        0x1 00
 .rodata        0x00019620        0x4 c:/users/montoya/documents/classes/cmpe146/lab/cmpe146package_lpc1758/yagarto/bin/../lib/gcc/arm-none-eabi/4.6.2/../../../../arm-none-eabi/lib/thumb/v7m\libc.a(lib_a-impure.o)
                0x00019620                _global_impure_ptr
 .rodata.str1.4
                0x00019624        0x2 c:/users/montoya/documents/classes/cmpe146/lab/cmpe146package_lpc1758/yagarto/bin/../lib/gcc/arm-none-eabi/4.6.2/../../../../arm-none-eabi/lib/thumb/v7m\libc.a(lib_a-impure.o)
                                  0x4 (size before relaxing)
 *fill*         0x00019626        0x2 00
 .rodata.str1.4
                0x00019628       0x21 c:/users/montoya/documents/classes/cmpe146/lab/cmpe146package_lpc1758/yagarto/bin/../lib/gcc/arm-none-eabi/4.6.2/../../../../arm-none-eabi/lib/thumb/v7m\libc.a(lib_a-mstats.o)
                                 0x24 (size before relaxing)
 *fill*         0x00019649        0x3 00
 .rodata.str1.4
                0x0001964c        0x2 c:/users/montoya/documents/classes/cmpe146/lab/cmpe146package_lpc1758/yagarto/bin/../lib/gcc/arm-none-eabi/4.6.2/../../../../arm-none-eabi/lib/thumb/v7m\libc.a(lib_a-puts.o)
                                  0x4 (size before relaxing)
 *fill*         0x0001964e        0x2 00
 .rodata        0x00019650       0x20 c:/users/montoya/documents/classes/cmpe146/lab/cmpe146package_lpc1758/yagarto/bin/../lib/gcc/arm-none-eabi/4.6.2/../../../../arm-none-eabi/lib/thumb/v7m\libc.a(lib_a-svfiprintf.o)
 .rodata.str1.4
                0x00019670       0x2f c:/users/montoya/documents/classes/cmpe146/lab/cmpe146package_lpc1758/yagarto/bin/../lib/gcc/arm-none-eabi/4.6.2/../../../../arm-none-eabi/lib/thumb/v7m\libc.a(lib_a-svfiprintf.o)
                                 0x30 (size before relaxing)
 *fill*         0x0001969f        0x1 00
 .rodata        0x000196a0       0x20 c:/users/montoya/documents/classes/cmpe146/lab/cmpe146package_lpc1758/yagarto/bin/../lib/gcc/arm-none-eabi/4.6.2/../../../../arm-none-eabi/lib/thumb/v7m\libc.a(lib_a-vfiprintf.o)
 .rodata.str1.4
                0x00000000       0x30 c:/users/montoya/documents/classes/cmpe146/lab/cmpe146package_lpc1758/yagarto/bin/../lib/gcc/arm-none-eabi/4.6.2/../../../../arm-none-eabi/lib/thumb/v7m\libc.a(lib_a-vfiprintf.o)
 .rodata        0x000196c0      0x104 c:/users/montoya/documents/classes/cmpe146/lab/cmpe146package_lpc1758/yagarto/bin/../lib/gcc/arm-none-eabi/4.6.2/../../../../arm-none-eabi/lib/thumb/v7m\libc.a(lib_a-ctype_.o)
                0x000196c0                _ctype_
 .rodata.str1.4
                0x000197c4        0xa c:/users/montoya/documents/classes/cmpe146/lab/cmpe146package_lpc1758/yagarto/bin/../lib/gcc/arm-none-eabi/4.6.2/../../../../arm-none-eabi/lib/thumb/v7m\libc.a(lib_a-locale.o)
                                 0x14 (size before relaxing)
 *fill*         0x000197ce        0x2 00
 .rodata.str1.4
                0x000197d0       0x51 c:/users/montoya/documents/classes/cmpe146/lab/cmpe146package_lpc1758/yagarto/bin/../lib/gcc/arm-none-eabi/4.6.2/../../../../arm-none-eabi/lib/thumb/v7m\libc.a(lib_a-mallstatsr.o)
                                 0x54 (size before relaxing)
 *fill*         0x00019821        0x3 00
 .rodata        0x00019824       0x24 c:/users/montoya/documents/classes/cmpe146/lab/cmpe146package_lpc1758/yagarto/bin/../lib/gcc/arm-none-eabi/4.6.2/../../../../arm-none-eabi/lib/thumb/v7m\libc.a(lib_a-svfiscanf.o)
 .rodata        0x00019848       0x20 c:/users/montoya/documents/classes/cmpe146/lab/cmpe146package_lpc1758/yagarto/bin/../lib/gcc/arm-none-eabi/4.6.2/../../../../arm-none-eabi/lib/thumb/v7m\libc.a(lib_a-svfprintf.o)
 .rodata.str1.4
                0x00019868       0x12 c:/users/montoya/documents/classes/cmpe146/lab/cmpe146package_lpc1758/yagarto/bin/../lib/gcc/arm-none-eabi/4.6.2/../../../../arm-none-eabi/lib/thumb/v7m\libc.a(lib_a-svfprintf.o)
                                 0x44 (size before relaxing)
 *fill*         0x0001987a        0x2 00
 .rodata.str1.4
                0x0001987c       0x10 c:/users/montoya/documents/classes/cmpe146/lab/cmpe146package_lpc1758/yagarto/bin/../lib/gcc/arm-none-eabi/4.6.2/../../../../arm-none-eabi/lib/thumb/v7m\libc.a(lib_a-dtoa.o)
                                 0x14 (size before relaxing)
 .rodata.str1.4
                0x00000000        0x4 c:/users/montoya/documents/classes/cmpe146/lab/cmpe146package_lpc1758/yagarto/bin/../lib/gcc/arm-none-eabi/4.6.2/../../../../arm-none-eabi/lib/thumb/v7m\libc.a(lib_a-mbrtowc.o)
 *fill*         0x0001988c        0x4 00
 .rodata        0x00019890      0x128 c:/users/montoya/documents/classes/cmpe146/lab/cmpe146package_lpc1758/yagarto/bin/../lib/gcc/arm-none-eabi/4.6.2/../../../../arm-none-eabi/lib/thumb/v7m\libc.a(lib_a-mprec.o)
                0x000198a0                __mprec_tens
                0x00019968                __mprec_tinytens
                0x00019990                __mprec_bigtens
                0x000199b8                . = ALIGN (0x4)
                0x000199b8                . = ALIGN (0x4)
 *(.init)
                0x000199b8                . = ALIGN (0x4)
                0x000199b8                __preinit_array_start = .
 *(.preinit_array)
                0x000199b8                __preinit_array_end = .
                0x000199b8                . = ALIGN (0x4)
                0x000199b8                __init_array_start = .
 *(SORT(.init_array.*))
 *(.init_array)
                0x000199b8                __init_array_end = .
 *(.fini)
                0x000199b8                . = ALIGN (0x4)
 *crtbegin.o(.ctors)
 *(EXCLUDE_FILE(*crtend.o) .ctors)
 *(SORT(.ctors.*))
 *crtend.o(.ctors)
                0x000199b8                . = ALIGN (0x4)
 *crtbegin.o(.dtors)
 *(EXCLUDE_FILE(*crtend.o) .dtors)
 *(SORT(.dtors.*))
 *crtend.o(.dtors)

.glue_7         0x000199b8        0x0
 .glue_7        0x00000000        0x0 linker stubs

.glue_7t        0x000199b8        0x0
 .glue_7t       0x00000000        0x0 linker stubs

.vfp11_veneer   0x000199b8        0x0
 .vfp11_veneer  0x00000000        0x0 linker stubs

.v4_bx          0x000199b8        0x0
 .v4_bx         0x00000000        0x0 linker stubs

.ARM.extab      0x000199b8      0x114
 *(.ARM.extab* .gnu.linkonce.armextab.*)
 .ARM.extab.text.__cxa_guard_acquire
                0x000199b8        0xc c:/users/montoya/documents/classes/cmpe146/lab/cmpe146package_lpc1758/yagarto/bin/../lib/gcc/arm-none-eabi/4.6.2/../../../../arm-none-eabi/lib/thumb/v7m\libstdc++.a(guard.o)
 .ARM.extab.text.__cxa_guard_abort
                0x000199c4        0x0 c:/users/montoya/documents/classes/cmpe146/lab/cmpe146package_lpc1758/yagarto/bin/../lib/gcc/arm-none-eabi/4.6.2/../../../../arm-none-eabi/lib/thumb/v7m\libstdc++.a(guard.o)
 .ARM.extab.text.__cxa_guard_release
                0x000199c4        0x0 c:/users/montoya/documents/classes/cmpe146/lab/cmpe146package_lpc1758/yagarto/bin/../lib/gcc/arm-none-eabi/4.6.2/../../../../arm-none-eabi/lib/thumb/v7m\libstdc++.a(guard.o)
 .ARM.extab.text._ZN9__gnu_cxx20recursive_init_errorD2Ev
                0x000199c4        0x0 c:/users/montoya/documents/classes/cmpe146/lab/cmpe146package_lpc1758/yagarto/bin/../lib/gcc/arm-none-eabi/4.6.2/../../../../arm-none-eabi/lib/thumb/v7m\libstdc++.a(guard_error.o)
 .ARM.extab.text._ZN9__gnu_cxx20recursive_init_errorD0Ev
                0x000199c4        0x0 c:/users/montoya/documents/classes/cmpe146/lab/cmpe146package_lpc1758/yagarto/bin/../lib/gcc/arm-none-eabi/4.6.2/../../../../arm-none-eabi/lib/thumb/v7m\libstdc++.a(guard_error.o)
 .ARM.extab.text.__cxa_pure_virtual
                0x000199c4        0xc c:/users/montoya/documents/classes/cmpe146/lab/cmpe146package_lpc1758/yagarto/bin/../lib/gcc/arm-none-eabi/4.6.2/../../../../arm-none-eabi/lib/thumb/v7m\libstdc++.a(pure.o)
 .ARM.extab.text._ZN10__cxxabiv120__si_class_type_infoD2Ev
                0x000199d0        0x0 c:/users/montoya/documents/classes/cmpe146/lab/cmpe146package_lpc1758/yagarto/bin/../lib/gcc/arm-none-eabi/4.6.2/../../../../arm-none-eabi/lib/thumb/v7m\libstdc++.a(si_class_type_info.o)
 .ARM.extab.text._ZN10__cxxabiv120__si_class_type_infoD0Ev
                0x000199d0        0x0 c:/users/montoya/documents/classes/cmpe146/lab/cmpe146package_lpc1758/yagarto/bin/../lib/gcc/arm-none-eabi/4.6.2/../../../../arm-none-eabi/lib/thumb/v7m\libstdc++.a(si_class_type_info.o)
 .ARM.extab.text._ZNK10__cxxabiv120__si_class_type_info11__do_upcastEPKNS_17__class_type_infoEPKvRNS1_15__upcast_resultE
                0x000199d0        0x0 c:/users/montoya/documents/classes/cmpe146/lab/cmpe146package_lpc1758/yagarto/bin/../lib/gcc/arm-none-eabi/4.6.2/../../../../arm-none-eabi/lib/thumb/v7m\libstdc++.a(si_class_type_info.o)
 .ARM.extab.text._ZNK10__cxxabiv120__si_class_type_info12__do_dyncastEiNS_17__class_type_info10__sub_kindEPKS1_PKvS4_S6_RNS1_16__dyncast_resultE
                0x000199d0        0x0 c:/users/montoya/documents/classes/cmpe146/lab/cmpe146package_lpc1758/yagarto/bin/../lib/gcc/arm-none-eabi/4.6.2/../../../../arm-none-eabi/lib/thumb/v7m\libstdc++.a(si_class_type_info.o)
 .ARM.extab.text._ZNK10__cxxabiv120__si_class_type_info20__do_find_public_srcEiPKvPKNS_17__class_type_infoES2_
                0x000199d0        0x0 c:/users/montoya/documents/classes/cmpe146/lab/cmpe146package_lpc1758/yagarto/bin/../lib/gcc/arm-none-eabi/4.6.2/../../../../arm-none-eabi/lib/thumb/v7m\libstdc++.a(si_class_type_info.o)
 .ARM.extab.text._ZNSt9type_infoD2Ev
                0x000199d0        0x0 c:/users/montoya/documents/classes/cmpe146/lab/cmpe146package_lpc1758/yagarto/bin/../lib/gcc/arm-none-eabi/4.6.2/../../../../arm-none-eabi/lib/thumb/v7m\libstdc++.a(tinfo.o)
 .ARM.extab.text._ZNKSt9type_info14__is_pointer_pEv
                0x000199d0        0x0 c:/users/montoya/documents/classes/cmpe146/lab/cmpe146package_lpc1758/yagarto/bin/../lib/gcc/arm-none-eabi/4.6.2/../../../../arm-none-eabi/lib/thumb/v7m\libstdc++.a(tinfo.o)
 .ARM.extab.text._ZNKSt9type_info15__is_function_pEv
                0x000199d0        0x0 c:/users/montoya/documents/classes/cmpe146/lab/cmpe146package_lpc1758/yagarto/bin/../lib/gcc/arm-none-eabi/4.6.2/../../../../arm-none-eabi/lib/thumb/v7m\libstdc++.a(tinfo.o)
 .ARM.extab.text._ZNKSt9type_info11__do_upcastEPKN10__cxxabiv117__class_type_infoEPPv
                0x000199d0        0x0 c:/users/montoya/documents/classes/cmpe146/lab/cmpe146package_lpc1758/yagarto/bin/../lib/gcc/arm-none-eabi/4.6.2/../../../../arm-none-eabi/lib/thumb/v7m\libstdc++.a(tinfo.o)
 .ARM.extab.text._ZNSt9type_infoD0Ev
                0x000199d0        0x0 c:/users/montoya/documents/classes/cmpe146/lab/cmpe146package_lpc1758/yagarto/bin/../lib/gcc/arm-none-eabi/4.6.2/../../../../arm-none-eabi/lib/thumb/v7m\libstdc++.a(tinfo.o)
 .ARM.extab.text._ZNKSt9type_infoeqERKS_
                0x000199d0        0x0 c:/users/montoya/documents/classes/cmpe146/lab/cmpe146package_lpc1758/yagarto/bin/../lib/gcc/arm-none-eabi/4.6.2/../../../../arm-none-eabi/lib/thumb/v7m\libstdc++.a(tinfo.o)
 .ARM.extab.text._ZNKSt9type_info10__do_catchEPKS_PPvj
                0x000199d0        0x0 c:/users/montoya/documents/classes/cmpe146/lab/cmpe146package_lpc1758/yagarto/bin/../lib/gcc/arm-none-eabi/4.6.2/../../../../arm-none-eabi/lib/thumb/v7m\libstdc++.a(tinfo.o)
 .ARM.extab.text._ZNK10__cxxabiv117__class_type_info11__do_upcastEPKS0_PPv
                0x000199d0        0x0 c:/users/montoya/documents/classes/cmpe146/lab/cmpe146package_lpc1758/yagarto/bin/../lib/gcc/arm-none-eabi/4.6.2/../../../../arm-none-eabi/lib/thumb/v7m\libstdc++.a(class_type_info.o)
 .ARM.extab.text._ZNK10__cxxabiv117__class_type_info20__do_find_public_srcEiPKvPKS0_S2_
                0x000199d0        0x0 c:/users/montoya/documents/classes/cmpe146/lab/cmpe146package_lpc1758/yagarto/bin/../lib/gcc/arm-none-eabi/4.6.2/../../../../arm-none-eabi/lib/thumb/v7m\libstdc++.a(class_type_info.o)
 .ARM.extab.text._ZNK10__cxxabiv117__class_type_info11__do_upcastEPKS0_PKvRNS0_15__upcast_resultE
                0x000199d0        0x0 c:/users/montoya/documents/classes/cmpe146/lab/cmpe146package_lpc1758/yagarto/bin/../lib/gcc/arm-none-eabi/4.6.2/../../../../arm-none-eabi/lib/thumb/v7m\libstdc++.a(class_type_info.o)
 .ARM.extab.text._ZN10__cxxabiv117__class_type_infoD2Ev
                0x000199d0        0x0 c:/users/montoya/documents/classes/cmpe146/lab/cmpe146package_lpc1758/yagarto/bin/../lib/gcc/arm-none-eabi/4.6.2/../../../../arm-none-eabi/lib/thumb/v7m\libstdc++.a(class_type_info.o)
 .ARM.extab.text._ZN10__cxxabiv117__class_type_infoD0Ev
                0x000199d0        0x0 c:/users/montoya/documents/classes/cmpe146/lab/cmpe146package_lpc1758/yagarto/bin/../lib/gcc/arm-none-eabi/4.6.2/../../../../arm-none-eabi/lib/thumb/v7m\libstdc++.a(class_type_info.o)
 .ARM.extab.text._ZNK10__cxxabiv117__class_type_info12__do_dyncastEiNS0_10__sub_kindEPKS0_PKvS3_S5_RNS0_16__dyncast_resultE
                0x000199d0        0x0 c:/users/montoya/documents/classes/cmpe146/lab/cmpe146package_lpc1758/yagarto/bin/../lib/gcc/arm-none-eabi/4.6.2/../../../../arm-none-eabi/lib/thumb/v7m\libstdc++.a(class_type_info.o)
 .ARM.extab.text._ZNK10__cxxabiv117__class_type_info10__do_catchEPKSt9type_infoPPvj
                0x000199d0        0x0 c:/users/montoya/documents/classes/cmpe146/lab/cmpe146package_lpc1758/yagarto/bin/../lib/gcc/arm-none-eabi/4.6.2/../../../../arm-none-eabi/lib/thumb/v7m\libstdc++.a(class_type_info.o)
 .ARM.extab.text.__cxa_allocate_exception
                0x000199d0        0x0 c:/users/montoya/documents/classes/cmpe146/lab/cmpe146package_lpc1758/yagarto/bin/../lib/gcc/arm-none-eabi/4.6.2/../../../../arm-none-eabi/lib/thumb/v7m\libstdc++.a(eh_alloc.o)
 .ARM.extab.text.__cxa_free_exception
                0x000199d0        0x0 c:/users/montoya/documents/classes/cmpe146/lab/cmpe146package_lpc1758/yagarto/bin/../lib/gcc/arm-none-eabi/4.6.2/../../../../arm-none-eabi/lib/thumb/v7m\libstdc++.a(eh_alloc.o)
 .ARM.extab.text.__cxa_allocate_dependent_exception
                0x000199d0        0x0 c:/users/montoya/documents/classes/cmpe146/lab/cmpe146package_lpc1758/yagarto/bin/../lib/gcc/arm-none-eabi/4.6.2/../../../../arm-none-eabi/lib/thumb/v7m\libstdc++.a(eh_alloc.o)
 .ARM.extab.text.__cxa_free_dependent_exception
                0x000199d0        0x0 c:/users/montoya/documents/classes/cmpe146/lab/cmpe146package_lpc1758/yagarto/bin/../lib/gcc/arm-none-eabi/4.6.2/../../../../arm-none-eabi/lib/thumb/v7m\libstdc++.a(eh_alloc.o)
 .ARM.extab.text._ZNSt9exceptionD2Ev
                0x000199d0        0x0 c:/users/montoya/documents/classes/cmpe146/lab/cmpe146package_lpc1758/yagarto/bin/../lib/gcc/arm-none-eabi/4.6.2/../../../../arm-none-eabi/lib/thumb/v7m\libstdc++.a(eh_exception.o)
 .ARM.extab.text._ZNSt13bad_exceptionD2Ev
                0x000199d0        0x0 c:/users/montoya/documents/classes/cmpe146/lab/cmpe146package_lpc1758/yagarto/bin/../lib/gcc/arm-none-eabi/4.6.2/../../../../arm-none-eabi/lib/thumb/v7m\libstdc++.a(eh_exception.o)
 .ARM.extab.text._ZN10__cxxabiv115__forced_unwindD2Ev
                0x000199d0        0x0 c:/users/montoya/documents/classes/cmpe146/lab/cmpe146package_lpc1758/yagarto/bin/../lib/gcc/arm-none-eabi/4.6.2/../../../../arm-none-eabi/lib/thumb/v7m\libstdc++.a(eh_exception.o)
 .ARM.extab.text._ZN10__cxxabiv119__foreign_exceptionD2Ev
                0x000199d0        0x0 c:/users/montoya/documents/classes/cmpe146/lab/cmpe146package_lpc1758/yagarto/bin/../lib/gcc/arm-none-eabi/4.6.2/../../../../arm-none-eabi/lib/thumb/v7m\libstdc++.a(eh_exception.o)
 .ARM.extab.text._ZNKSt9exception4whatEv
                0x000199d0        0x0 c:/users/montoya/documents/classes/cmpe146/lab/cmpe146package_lpc1758/yagarto/bin/../lib/gcc/arm-none-eabi/4.6.2/../../../../arm-none-eabi/lib/thumb/v7m\libstdc++.a(eh_exception.o)
 .ARM.extab.text._ZNKSt13bad_exception4whatEv
                0x000199d0        0x0 c:/users/montoya/documents/classes/cmpe146/lab/cmpe146package_lpc1758/yagarto/bin/../lib/gcc/arm-none-eabi/4.6.2/../../../../arm-none-eabi/lib/thumb/v7m\libstdc++.a(eh_exception.o)
 .ARM.extab.text._ZN10__cxxabiv119__foreign_exceptionD0Ev
                0x000199d0        0x0 c:/users/montoya/documents/classes/cmpe146/lab/cmpe146package_lpc1758/yagarto/bin/../lib/gcc/arm-none-eabi/4.6.2/../../../../arm-none-eabi/lib/thumb/v7m\libstdc++.a(eh_exception.o)
 .ARM.extab.text._ZN10__cxxabiv115__forced_unwindD0Ev
                0x000199d0        0x0 c:/users/montoya/documents/classes/cmpe146/lab/cmpe146package_lpc1758/yagarto/bin/../lib/gcc/arm-none-eabi/4.6.2/../../../../arm-none-eabi/lib/thumb/v7m\libstdc++.a(eh_exception.o)
 .ARM.extab.text._ZNSt13bad_exceptionD0Ev
                0x000199d0        0x0 c:/users/montoya/documents/classes/cmpe146/lab/cmpe146package_lpc1758/yagarto/bin/../lib/gcc/arm-none-eabi/4.6.2/../../../../arm-none-eabi/lib/thumb/v7m\libstdc++.a(eh_exception.o)
 .ARM.extab.text._ZNSt9exceptionD0Ev
                0x000199d0        0x0 c:/users/montoya/documents/classes/cmpe146/lab/cmpe146package_lpc1758/yagarto/bin/../lib/gcc/arm-none-eabi/4.6.2/../../../../arm-none-eabi/lib/thumb/v7m\libstdc++.a(eh_exception.o)
 .ARM.extab.text.__cxa_get_globals_fast
                0x000199d0        0x0 c:/users/montoya/documents/classes/cmpe146/lab/cmpe146package_lpc1758/yagarto/bin/../lib/gcc/arm-none-eabi/4.6.2/../../../../arm-none-eabi/lib/thumb/v7m\libstdc++.a(eh_globals.o)
 .ARM.extab.text.__cxa_get_globals
                0x000199d0        0x0 c:/users/montoya/documents/classes/cmpe146/lab/cmpe146package_lpc1758/yagarto/bin/../lib/gcc/arm-none-eabi/4.6.2/../../../../arm-none-eabi/lib/thumb/v7m\libstdc++.a(eh_globals.o)
 .ARM.extab.text._ZN10__cxxabiv111__terminateEPFvvE
                0x000199d0       0x2c c:/users/montoya/documents/classes/cmpe146/lab/cmpe146package_lpc1758/yagarto/bin/../lib/gcc/arm-none-eabi/4.6.2/../../../../arm-none-eabi/lib/thumb/v7m\libstdc++.a(eh_terminate.o)
 .ARM.extab.text._ZSt9terminatev
                0x000199fc        0x0 c:/users/montoya/documents/classes/cmpe146/lab/cmpe146package_lpc1758/yagarto/bin/../lib/gcc/arm-none-eabi/4.6.2/../../../../arm-none-eabi/lib/thumb/v7m\libstdc++.a(eh_terminate.o)
 .ARM.extab.text._ZN10__cxxabiv112__unexpectedEPFvvE
                0x000199fc        0xc c:/users/montoya/documents/classes/cmpe146/lab/cmpe146package_lpc1758/yagarto/bin/../lib/gcc/arm-none-eabi/4.6.2/../../../../arm-none-eabi/lib/thumb/v7m\libstdc++.a(eh_terminate.o)
 .ARM.extab.text._ZSt10unexpectedv
                0x00019a08        0xc c:/users/montoya/documents/classes/cmpe146/lab/cmpe146package_lpc1758/yagarto/bin/../lib/gcc/arm-none-eabi/4.6.2/../../../../arm-none-eabi/lib/thumb/v7m\libstdc++.a(eh_terminate.o)
 .ARM.extab.text._ZSt13set_terminatePFvvE
                0x00019a14        0x0 c:/users/montoya/documents/classes/cmpe146/lab/cmpe146package_lpc1758/yagarto/bin/../lib/gcc/arm-none-eabi/4.6.2/../../../../arm-none-eabi/lib/thumb/v7m\libstdc++.a(eh_terminate.o)
 .ARM.extab.text._ZSt14set_unexpectedPFvvE
                0x00019a14        0x0 c:/users/montoya/documents/classes/cmpe146/lab/cmpe146package_lpc1758/yagarto/bin/../lib/gcc/arm-none-eabi/4.6.2/../../../../arm-none-eabi/lib/thumb/v7m\libstdc++.a(eh_terminate.o)
 .ARM.extab.text._ZL23__gxx_exception_cleanup19_Unwind_Reason_CodeP21_Unwind_Control_Block
                0x00019a14        0x0 c:/users/montoya/documents/classes/cmpe146/lab/cmpe146package_lpc1758/yagarto/bin/../lib/gcc/arm-none-eabi/4.6.2/../../../../arm-none-eabi/lib/thumb/v7m\libstdc++.a(eh_throw.o)
 .ARM.extab.text.__cxa_throw
                0x00019a14        0x0 c:/users/montoya/documents/classes/cmpe146/lab/cmpe146package_lpc1758/yagarto/bin/../lib/gcc/arm-none-eabi/4.6.2/../../../../arm-none-eabi/lib/thumb/v7m\libstdc++.a(eh_throw.o)
 .ARM.extab.text.__cxa_rethrow
                0x00019a14        0x0 c:/users/montoya/documents/classes/cmpe146/lab/cmpe146package_lpc1758/yagarto/bin/../lib/gcc/arm-none-eabi/4.6.2/../../../../arm-none-eabi/lib/thumb/v7m\libstdc++.a(eh_throw.o)
 .ARM.extab.text.__cxa_type_match
                0x00019a14        0x0 c:/users/montoya/documents/classes/cmpe146/lab/cmpe146package_lpc1758/yagarto/bin/../lib/gcc/arm-none-eabi/4.6.2/../../../../arm-none-eabi/lib/thumb/v7m\libstdc++.a(eh_arm.o)
 .ARM.extab.text.__cxa_begin_cleanup
                0x00019a14        0x0 c:/users/montoya/documents/classes/cmpe146/lab/cmpe146package_lpc1758/yagarto/bin/../lib/gcc/arm-none-eabi/4.6.2/../../../../arm-none-eabi/lib/thumb/v7m\libstdc++.a(eh_arm.o)
 .ARM.extab.text.__gnu_end_cleanup
                0x00019a14        0x0 c:/users/montoya/documents/classes/cmpe146/lab/cmpe146package_lpc1758/yagarto/bin/../lib/gcc/arm-none-eabi/4.6.2/../../../../arm-none-eabi/lib/thumb/v7m\libstdc++.a(eh_arm.o)
 .ARM.extab.text.__cxa_bad_cast
                0x00019a14        0xc c:/users/montoya/documents/classes/cmpe146/lab/cmpe146package_lpc1758/yagarto/bin/../lib/gcc/arm-none-eabi/4.6.2/../../../../arm-none-eabi/lib/thumb/v7m\libstdc++.a(eh_aux_runtime.o)
 .ARM.extab.text.__cxa_bad_typeid
                0x00019a20        0xc c:/users/montoya/documents/classes/cmpe146/lab/cmpe146package_lpc1758/yagarto/bin/../lib/gcc/arm-none-eabi/4.6.2/../../../../arm-none-eabi/lib/thumb/v7m\libstdc++.a(eh_aux_runtime.o)
 .ARM.extab.text.__cxa_call_terminate
                0x00019a2c        0x0 c:/users/montoya/documents/classes/cmpe146/lab/cmpe146package_lpc1758/yagarto/bin/../lib/gcc/arm-none-eabi/4.6.2/../../../../arm-none-eabi/lib/thumb/v7m\libstdc++.a(eh_call.o)
 .ARM.extab.text.__cxa_call_unexpected
                0x00019a2c       0x28 c:/users/montoya/documents/classes/cmpe146/lab/cmpe146package_lpc1758/yagarto/bin/../lib/gcc/arm-none-eabi/4.6.2/../../../../arm-none-eabi/lib/thumb/v7m\libstdc++.a(eh_call.o)
 .ARM.extab.text.__cxa_get_exception_ptr
                0x00019a54        0x0 c:/users/montoya/documents/classes/cmpe146/lab/cmpe146package_lpc1758/yagarto/bin/../lib/gcc/arm-none-eabi/4.6.2/../../../../arm-none-eabi/lib/thumb/v7m\libstdc++.a(eh_catch.o)
 .ARM.extab.text.__cxa_begin_catch
                0x00019a54       0x1c c:/users/montoya/documents/classes/cmpe146/lab/cmpe146package_lpc1758/yagarto/bin/../lib/gcc/arm-none-eabi/4.6.2/../../../../arm-none-eabi/lib/thumb/v7m\libstdc++.a(eh_catch.o)
 .ARM.extab.text.__cxa_end_catch
                0x00019a70        0x0 c:/users/montoya/documents/classes/cmpe146/lab/cmpe146package_lpc1758/yagarto/bin/../lib/gcc/arm-none-eabi/4.6.2/../../../../arm-none-eabi/lib/thumb/v7m\libstdc++.a(eh_catch.o)
 .ARM.extab.text._ZSt18uncaught_exceptionv
                0x00019a70        0x0 c:/users/montoya/documents/classes/cmpe146/lab/cmpe146package_lpc1758/yagarto/bin/../lib/gcc/arm-none-eabi/4.6.2/../../../../arm-none-eabi/lib/thumb/v7m\libstdc++.a(eh_catch.o)
 .ARM.extab.text._ZL12read_sleb128PKhPl
                0x00019a70        0x0 c:/users/montoya/documents/classes/cmpe146/lab/cmpe146package_lpc1758/yagarto/bin/../lib/gcc/arm-none-eabi/4.6.2/../../../../arm-none-eabi/lib/thumb/v7m\libstdc++.a(eh_personality.o)
 .ARM.extab.text._ZL28read_encoded_value_with_basehjPKhPj
                0x00019a70        0x0 c:/users/montoya/documents/classes/cmpe146/lab/cmpe146package_lpc1758/yagarto/bin/../lib/gcc/arm-none-eabi/4.6.2/../../../../arm-none-eabi/lib/thumb/v7m\libstdc++.a(eh_personality.o)
 .ARM.extab.text._ZL21base_of_encoded_valuehP15_Unwind_Context
                0x00019a70        0xc c:/users/montoya/documents/classes/cmpe146/lab/cmpe146package_lpc1758/yagarto/bin/../lib/gcc/arm-none-eabi/4.6.2/../../../../arm-none-eabi/lib/thumb/v7m\libstdc++.a(eh_personality.o)
 .ARM.extab.text._ZL17parse_lsda_headerP15_Unwind_ContextPKhP16lsda_header_info.constprop.1
                0x00019a7c        0x0 c:/users/montoya/documents/classes/cmpe146/lab/cmpe146package_lpc1758/yagarto/bin/../lib/gcc/arm-none-eabi/4.6.2/../../../../arm-none-eabi/lib/thumb/v7m\libstdc++.a(eh_personality.o)
 .ARM.extab.text.__gxx_personality_v0
                0x00019a7c       0x20 c:/users/montoya/documents/classes/cmpe146/lab/cmpe146package_lpc1758/yagarto/bin/../lib/gcc/arm-none-eabi/4.6.2/../../../../arm-none-eabi/lib/thumb/v7m\libstdc++.a(eh_personality.o)
 .ARM.extab.text._ZN10__cxxabiv123__fundamental_type_infoD2Ev
                0x00019a9c        0x0 c:/users/montoya/documents/classes/cmpe146/lab/cmpe146package_lpc1758/yagarto/bin/../lib/gcc/arm-none-eabi/4.6.2/../../../../arm-none-eabi/lib/thumb/v7m\libstdc++.a(fundamental_type_info.o)
 .ARM.extab.text._ZN10__cxxabiv123__fundamental_type_infoD0Ev
                0x00019a9c        0x0 c:/users/montoya/documents/classes/cmpe146/lab/cmpe146package_lpc1758/yagarto/bin/../lib/gcc/arm-none-eabi/4.6.2/../../../../arm-none-eabi/lib/thumb/v7m\libstdc++.a(fundamental_type_info.o)
 .ARM.extab.text._ZNK10__cxxabiv119__pointer_type_info14__is_pointer_pEv
                0x00019a9c        0x0 c:/users/montoya/documents/classes/cmpe146/lab/cmpe146package_lpc1758/yagarto/bin/../lib/gcc/arm-none-eabi/4.6.2/../../../../arm-none-eabi/lib/thumb/v7m\libstdc++.a(pointer_type_info.o)
 .ARM.extab.text._ZN10__cxxabiv119__pointer_type_infoD2Ev
                0x00019a9c        0x0 c:/users/montoya/documents/classes/cmpe146/lab/cmpe146package_lpc1758/yagarto/bin/../lib/gcc/arm-none-eabi/4.6.2/../../../../arm-none-eabi/lib/thumb/v7m\libstdc++.a(pointer_type_info.o)
 .ARM.extab.text._ZN10__cxxabiv119__pointer_type_infoD0Ev
                0x00019a9c        0x0 c:/users/montoya/documents/classes/cmpe146/lab/cmpe146package_lpc1758/yagarto/bin/../lib/gcc/arm-none-eabi/4.6.2/../../../../arm-none-eabi/lib/thumb/v7m\libstdc++.a(pointer_type_info.o)
 .ARM.extab.text._ZNK10__cxxabiv119__pointer_type_info15__pointer_catchEPKNS_17__pbase_type_infoEPPvj
                0x00019a9c        0x0 c:/users/montoya/documents/classes/cmpe146/lab/cmpe146package_lpc1758/yagarto/bin/../lib/gcc/arm-none-eabi/4.6.2/../../../../arm-none-eabi/lib/thumb/v7m\libstdc++.a(pointer_type_info.o)
 .ARM.extab.text._ZNKSt8bad_cast4whatEv
                0x00019a9c        0x0 c:/users/montoya/documents/classes/cmpe146/lab/cmpe146package_lpc1758/yagarto/bin/../lib/gcc/arm-none-eabi/4.6.2/../../../../arm-none-eabi/lib/thumb/v7m\libstdc++.a(bad_cast.o)
 .ARM.extab.text._ZNSt8bad_castD2Ev
                0x00019a9c        0x0 c:/users/montoya/documents/classes/cmpe146/lab/cmpe146package_lpc1758/yagarto/bin/../lib/gcc/arm-none-eabi/4.6.2/../../../../arm-none-eabi/lib/thumb/v7m\libstdc++.a(bad_cast.o)
 .ARM.extab.text._ZNSt8bad_castD0Ev
                0x00019a9c        0x0 c:/users/montoya/documents/classes/cmpe146/lab/cmpe146package_lpc1758/yagarto/bin/../lib/gcc/arm-none-eabi/4.6.2/../../../../arm-none-eabi/lib/thumb/v7m\libstdc++.a(bad_cast.o)
 .ARM.extab.text._ZNKSt10bad_typeid4whatEv
                0x00019a9c        0x0 c:/users/montoya/documents/classes/cmpe146/lab/cmpe146package_lpc1758/yagarto/bin/../lib/gcc/arm-none-eabi/4.6.2/../../../../arm-none-eabi/lib/thumb/v7m\libstdc++.a(bad_typeid.o)
 .ARM.extab.text._ZNSt10bad_typeidD2Ev
                0x00019a9c        0x0 c:/users/montoya/documents/classes/cmpe146/lab/cmpe146package_lpc1758/yagarto/bin/../lib/gcc/arm-none-eabi/4.6.2/../../../../arm-none-eabi/lib/thumb/v7m\libstdc++.a(bad_typeid.o)
 .ARM.extab.text._ZNSt10bad_typeidD0Ev
                0x00019a9c        0x0 c:/users/montoya/documents/classes/cmpe146/lab/cmpe146package_lpc1758/yagarto/bin/../lib/gcc/arm-none-eabi/4.6.2/../../../../arm-none-eabi/lib/thumb/v7m\libstdc++.a(bad_typeid.o)
 .ARM.extab.text._ZNK10__cxxabiv117__pbase_type_info15__pointer_catchEPKS0_PPvj
                0x00019a9c        0x0 c:/users/montoya/documents/classes/cmpe146/lab/cmpe146package_lpc1758/yagarto/bin/../lib/gcc/arm-none-eabi/4.6.2/../../../../arm-none-eabi/lib/thumb/v7m\libstdc++.a(pbase_type_info.o)
 .ARM.extab.text._ZN10__cxxabiv117__pbase_type_infoD2Ev
                0x00019a9c        0x0 c:/users/montoya/documents/classes/cmpe146/lab/cmpe146package_lpc1758/yagarto/bin/../lib/gcc/arm-none-eabi/4.6.2/../../../../arm-none-eabi/lib/thumb/v7m\libstdc++.a(pbase_type_info.o)
 .ARM.extab.text._ZN10__cxxabiv117__pbase_type_infoD0Ev
                0x00019a9c        0x0 c:/users/montoya/documents/classes/cmpe146/lab/cmpe146package_lpc1758/yagarto/bin/../lib/gcc/arm-none-eabi/4.6.2/../../../../arm-none-eabi/lib/thumb/v7m\libstdc++.a(pbase_type_info.o)
 .ARM.extab.text._ZNK10__cxxabiv117__pbase_type_info10__do_catchEPKSt9type_infoPPvj
                0x00019a9c        0x0 c:/users/montoya/documents/classes/cmpe146/lab/cmpe146package_lpc1758/yagarto/bin/../lib/gcc/arm-none-eabi/4.6.2/../../../../arm-none-eabi/lib/thumb/v7m\libstdc++.a(pbase_type_info.o)
 .ARM.extab     0x00019a9c       0x18 c:/users/montoya/documents/classes/cmpe146/lab/cmpe146package_lpc1758/yagarto/bin/../lib/gcc/arm-none-eabi/4.6.2/thumb/v7m\libgcc.a(unwind-arm.o)
 .ARM.extab     0x00019ab4       0x18 c:/users/montoya/documents/classes/cmpe146/lab/cmpe146package_lpc1758/yagarto/bin/../lib/gcc/arm-none-eabi/4.6.2/thumb/v7m\libgcc.a(pr-support.o)
                0x00019acc                __exidx_start = .

.ARM.exidx      0x00019acc      0x220
 *(.ARM.exidx* .gnu.linkonce.armexidx.*)
 .ARM.exidx.text.__cxa_guard_acquire
                0x00019acc        0x8 c:/users/montoya/documents/classes/cmpe146/lab/cmpe146package_lpc1758/yagarto/bin/../lib/gcc/arm-none-eabi/4.6.2/../../../../arm-none-eabi/lib/thumb/v7m\libstdc++.a(guard.o)
 .ARM.exidx.text.__cxa_guard_abort
                0x00019ad4        0x8 c:/users/montoya/documents/classes/cmpe146/lab/cmpe146package_lpc1758/yagarto/bin/../lib/gcc/arm-none-eabi/4.6.2/../../../../arm-none-eabi/lib/thumb/v7m\libstdc++.a(guard.o)
 .ARM.exidx.text.__cxa_guard_release
                0x00019adc        0x0 c:/users/montoya/documents/classes/cmpe146/lab/cmpe146package_lpc1758/yagarto/bin/../lib/gcc/arm-none-eabi/4.6.2/../../../../arm-none-eabi/lib/thumb/v7m\libstdc++.a(guard.o)
                                  0x8 (size before relaxing)
 .ARM.exidx.text._ZN9__gnu_cxx20recursive_init_errorD2Ev
                0x00019adc        0x0 c:/users/montoya/documents/classes/cmpe146/lab/cmpe146package_lpc1758/yagarto/bin/../lib/gcc/arm-none-eabi/4.6.2/../../../../arm-none-eabi/lib/thumb/v7m\libstdc++.a(guard_error.o)
                                  0x8 (size before relaxing)
 .ARM.exidx.text._ZN9__gnu_cxx20recursive_init_errorD0Ev
                0x00019adc        0x0 c:/users/montoya/documents/classes/cmpe146/lab/cmpe146package_lpc1758/yagarto/bin/../lib/gcc/arm-none-eabi/4.6.2/../../../../arm-none-eabi/lib/thumb/v7m\libstdc++.a(guard_error.o)
                                  0x8 (size before relaxing)
 .ARM.exidx.text.__cxa_pure_virtual
                0x00019adc        0x8 c:/users/montoya/documents/classes/cmpe146/lab/cmpe146package_lpc1758/yagarto/bin/../lib/gcc/arm-none-eabi/4.6.2/../../../../arm-none-eabi/lib/thumb/v7m\libstdc++.a(pure.o)
 .ARM.exidx.text._ZN10__cxxabiv120__si_class_type_infoD2Ev
                0x00019ae4        0x8 c:/users/montoya/documents/classes/cmpe146/lab/cmpe146package_lpc1758/yagarto/bin/../lib/gcc/arm-none-eabi/4.6.2/../../../../arm-none-eabi/lib/thumb/v7m\libstdc++.a(si_class_type_info.o)
 .ARM.exidx.text._ZN10__cxxabiv120__si_class_type_infoD0Ev
                0x00019aec        0x0 c:/users/montoya/documents/classes/cmpe146/lab/cmpe146package_lpc1758/yagarto/bin/../lib/gcc/arm-none-eabi/4.6.2/../../../../arm-none-eabi/lib/thumb/v7m\libstdc++.a(si_class_type_info.o)
                                  0x8 (size before relaxing)
 .ARM.exidx.text._ZNK10__cxxabiv120__si_class_type_info11__do_upcastEPKNS_17__class_type_infoEPKvRNS1_15__upcast_resultE
                0x00019aec        0x8 c:/users/montoya/documents/classes/cmpe146/lab/cmpe146package_lpc1758/yagarto/bin/../lib/gcc/arm-none-eabi/4.6.2/../../../../arm-none-eabi/lib/thumb/v7m\libstdc++.a(si_class_type_info.o)
 .ARM.exidx.text._ZNK10__cxxabiv120__si_class_type_info12__do_dyncastEiNS_17__class_type_info10__sub_kindEPKS1_PKvS4_S6_RNS1_16__dyncast_resultE
                0x00019af4        0x8 c:/users/montoya/documents/classes/cmpe146/lab/cmpe146package_lpc1758/yagarto/bin/../lib/gcc/arm-none-eabi/4.6.2/../../../../arm-none-eabi/lib/thumb/v7m\libstdc++.a(si_class_type_info.o)
 .ARM.exidx.text._ZNK10__cxxabiv120__si_class_type_info20__do_find_public_srcEiPKvPKNS_17__class_type_infoES2_
                0x00019afc        0x8 c:/users/montoya/documents/classes/cmpe146/lab/cmpe146package_lpc1758/yagarto/bin/../lib/gcc/arm-none-eabi/4.6.2/../../../../arm-none-eabi/lib/thumb/v7m\libstdc++.a(si_class_type_info.o)
 .ARM.exidx.text._ZNSt9type_infoD2Ev
                0x00019b04        0x8 c:/users/montoya/documents/classes/cmpe146/lab/cmpe146package_lpc1758/yagarto/bin/../lib/gcc/arm-none-eabi/4.6.2/../../../../arm-none-eabi/lib/thumb/v7m\libstdc++.a(tinfo.o)
 .ARM.exidx.text._ZNKSt9type_info14__is_pointer_pEv
                0x00019b0c        0x0 c:/users/montoya/documents/classes/cmpe146/lab/cmpe146package_lpc1758/yagarto/bin/../lib/gcc/arm-none-eabi/4.6.2/../../../../arm-none-eabi/lib/thumb/v7m\libstdc++.a(tinfo.o)
                                  0x8 (size before relaxing)
 .ARM.exidx.text._ZNKSt9type_info15__is_function_pEv
                0x00019b0c        0x0 c:/users/montoya/documents/classes/cmpe146/lab/cmpe146package_lpc1758/yagarto/bin/../lib/gcc/arm-none-eabi/4.6.2/../../../../arm-none-eabi/lib/thumb/v7m\libstdc++.a(tinfo.o)
                                  0x8 (size before relaxing)
 .ARM.exidx.text._ZNKSt9type_info11__do_upcastEPKN10__cxxabiv117__class_type_infoEPPv
                0x00019b0c        0x0 c:/users/montoya/documents/classes/cmpe146/lab/cmpe146package_lpc1758/yagarto/bin/../lib/gcc/arm-none-eabi/4.6.2/../../../../arm-none-eabi/lib/thumb/v7m\libstdc++.a(tinfo.o)
                                  0x8 (size before relaxing)
 .ARM.exidx.text._ZNSt9type_infoD0Ev
                0x00019b0c        0x0 c:/users/montoya/documents/classes/cmpe146/lab/cmpe146package_lpc1758/yagarto/bin/../lib/gcc/arm-none-eabi/4.6.2/../../../../arm-none-eabi/lib/thumb/v7m\libstdc++.a(tinfo.o)
                                  0x8 (size before relaxing)
 .ARM.exidx.text._ZNKSt9type_infoeqERKS_
                0x00019b0c        0x0 c:/users/montoya/documents/classes/cmpe146/lab/cmpe146package_lpc1758/yagarto/bin/../lib/gcc/arm-none-eabi/4.6.2/../../../../arm-none-eabi/lib/thumb/v7m\libstdc++.a(tinfo.o)
                                  0x8 (size before relaxing)
 .ARM.exidx.text._ZNKSt9type_info10__do_catchEPKS_PPvj
                0x00019b0c        0x0 c:/users/montoya/documents/classes/cmpe146/lab/cmpe146package_lpc1758/yagarto/bin/../lib/gcc/arm-none-eabi/4.6.2/../../../../arm-none-eabi/lib/thumb/v7m\libstdc++.a(tinfo.o)
                                  0x8 (size before relaxing)
 .ARM.exidx.text._ZNK10__cxxabiv117__class_type_info11__do_upcastEPKS0_PPv
                0x00019b0c        0x8 c:/users/montoya/documents/classes/cmpe146/lab/cmpe146package_lpc1758/yagarto/bin/../lib/gcc/arm-none-eabi/4.6.2/../../../../arm-none-eabi/lib/thumb/v7m\libstdc++.a(class_type_info.o)
 .ARM.exidx.text._ZNK10__cxxabiv117__class_type_info20__do_find_public_srcEiPKvPKS0_S2_
                0x00019b14        0x8 c:/users/montoya/documents/classes/cmpe146/lab/cmpe146package_lpc1758/yagarto/bin/../lib/gcc/arm-none-eabi/4.6.2/../../../../arm-none-eabi/lib/thumb/v7m\libstdc++.a(class_type_info.o)
 .ARM.exidx.text._ZNK10__cxxabiv117__class_type_info11__do_upcastEPKS0_PKvRNS0_15__upcast_resultE
                0x00019b1c        0x8 c:/users/montoya/documents/classes/cmpe146/lab/cmpe146package_lpc1758/yagarto/bin/../lib/gcc/arm-none-eabi/4.6.2/../../../../arm-none-eabi/lib/thumb/v7m\libstdc++.a(class_type_info.o)
 .ARM.exidx.text._ZN10__cxxabiv117__class_type_infoD2Ev
                0x00019b24        0x8 c:/users/montoya/documents/classes/cmpe146/lab/cmpe146package_lpc1758/yagarto/bin/../lib/gcc/arm-none-eabi/4.6.2/../../../../arm-none-eabi/lib/thumb/v7m\libstdc++.a(class_type_info.o)
 .ARM.exidx.text._ZN10__cxxabiv117__class_type_infoD0Ev
                0x00019b2c        0x0 c:/users/montoya/documents/classes/cmpe146/lab/cmpe146package_lpc1758/yagarto/bin/../lib/gcc/arm-none-eabi/4.6.2/../../../../arm-none-eabi/lib/thumb/v7m\libstdc++.a(class_type_info.o)
                                  0x8 (size before relaxing)
 .ARM.exidx.text._ZNK10__cxxabiv117__class_type_info12__do_dyncastEiNS0_10__sub_kindEPKS0_PKvS3_S5_RNS0_16__dyncast_resultE
                0x00019b2c        0x8 c:/users/montoya/documents/classes/cmpe146/lab/cmpe146package_lpc1758/yagarto/bin/../lib/gcc/arm-none-eabi/4.6.2/../../../../arm-none-eabi/lib/thumb/v7m\libstdc++.a(class_type_info.o)
 .ARM.exidx.text._ZNK10__cxxabiv117__class_type_info10__do_catchEPKSt9type_infoPPvj
                0x00019b34        0x8 c:/users/montoya/documents/classes/cmpe146/lab/cmpe146package_lpc1758/yagarto/bin/../lib/gcc/arm-none-eabi/4.6.2/../../../../arm-none-eabi/lib/thumb/v7m\libstdc++.a(class_type_info.o)
 .ARM.exidx.text.__cxa_allocate_exception
                0x00019b3c        0x8 c:/users/montoya/documents/classes/cmpe146/lab/cmpe146package_lpc1758/yagarto/bin/../lib/gcc/arm-none-eabi/4.6.2/../../../../arm-none-eabi/lib/thumb/v7m\libstdc++.a(eh_alloc.o)
 .ARM.exidx.text.__cxa_free_exception
                0x00019b44        0x0 c:/users/montoya/documents/classes/cmpe146/lab/cmpe146package_lpc1758/yagarto/bin/../lib/gcc/arm-none-eabi/4.6.2/../../../../arm-none-eabi/lib/thumb/v7m\libstdc++.a(eh_alloc.o)
                                  0x8 (size before relaxing)
 .ARM.exidx.text.__cxa_allocate_dependent_exception
                0x00019b44        0x0 c:/users/montoya/documents/classes/cmpe146/lab/cmpe146package_lpc1758/yagarto/bin/../lib/gcc/arm-none-eabi/4.6.2/../../../../arm-none-eabi/lib/thumb/v7m\libstdc++.a(eh_alloc.o)
                                  0x8 (size before relaxing)
 .ARM.exidx.text.__cxa_free_dependent_exception
                0x00019b44        0x0 c:/users/montoya/documents/classes/cmpe146/lab/cmpe146package_lpc1758/yagarto/bin/../lib/gcc/arm-none-eabi/4.6.2/../../../../arm-none-eabi/lib/thumb/v7m\libstdc++.a(eh_alloc.o)
                                  0x8 (size before relaxing)
 .ARM.exidx.text._ZNSt9exceptionD2Ev
                0x00019b44        0x0 c:/users/montoya/documents/classes/cmpe146/lab/cmpe146package_lpc1758/yagarto/bin/../lib/gcc/arm-none-eabi/4.6.2/../../../../arm-none-eabi/lib/thumb/v7m\libstdc++.a(eh_exception.o)
                                  0x8 (size before relaxing)
 .ARM.exidx.text._ZNSt13bad_exceptionD2Ev
                0x00019b44        0x0 c:/users/montoya/documents/classes/cmpe146/lab/cmpe146package_lpc1758/yagarto/bin/../lib/gcc/arm-none-eabi/4.6.2/../../../../arm-none-eabi/lib/thumb/v7m\libstdc++.a(eh_exception.o)
                                  0x8 (size before relaxing)
 .ARM.exidx.text._ZN10__cxxabiv115__forced_unwindD2Ev
                0x00019b44        0x0 c:/users/montoya/documents/classes/cmpe146/lab/cmpe146package_lpc1758/yagarto/bin/../lib/gcc/arm-none-eabi/4.6.2/../../../../arm-none-eabi/lib/thumb/v7m\libstdc++.a(eh_exception.o)
                                  0x8 (size before relaxing)
 .ARM.exidx.text._ZN10__cxxabiv119__foreign_exceptionD2Ev
                0x00019b44        0x0 c:/users/montoya/documents/classes/cmpe146/lab/cmpe146package_lpc1758/yagarto/bin/../lib/gcc/arm-none-eabi/4.6.2/../../../../arm-none-eabi/lib/thumb/v7m\libstdc++.a(eh_exception.o)
                                  0x8 (size before relaxing)
 .ARM.exidx.text._ZNKSt9exception4whatEv
                0x00019b44        0x0 c:/users/montoya/documents/classes/cmpe146/lab/cmpe146package_lpc1758/yagarto/bin/../lib/gcc/arm-none-eabi/4.6.2/../../../../arm-none-eabi/lib/thumb/v7m\libstdc++.a(eh_exception.o)
                                  0x8 (size before relaxing)
 .ARM.exidx.text._ZNKSt13bad_exception4whatEv
                0x00019b44        0x0 c:/users/montoya/documents/classes/cmpe146/lab/cmpe146package_lpc1758/yagarto/bin/../lib/gcc/arm-none-eabi/4.6.2/../../../../arm-none-eabi/lib/thumb/v7m\libstdc++.a(eh_exception.o)
                                  0x8 (size before relaxing)
 .ARM.exidx.text._ZN10__cxxabiv119__foreign_exceptionD0Ev
                0x00019b44        0x0 c:/users/montoya/documents/classes/cmpe146/lab/cmpe146package_lpc1758/yagarto/bin/../lib/gcc/arm-none-eabi/4.6.2/../../../../arm-none-eabi/lib/thumb/v7m\libstdc++.a(eh_exception.o)
                                  0x8 (size before relaxing)
 .ARM.exidx.text._ZN10__cxxabiv115__forced_unwindD0Ev
                0x00019b44        0x0 c:/users/montoya/documents/classes/cmpe146/lab/cmpe146package_lpc1758/yagarto/bin/../lib/gcc/arm-none-eabi/4.6.2/../../../../arm-none-eabi/lib/thumb/v7m\libstdc++.a(eh_exception.o)
                                  0x8 (size before relaxing)
 .ARM.exidx.text._ZNSt13bad_exceptionD0Ev
                0x00019b44        0x0 c:/users/montoya/documents/classes/cmpe146/lab/cmpe146package_lpc1758/yagarto/bin/../lib/gcc/arm-none-eabi/4.6.2/../../../../arm-none-eabi/lib/thumb/v7m\libstdc++.a(eh_exception.o)
                                  0x8 (size before relaxing)
 .ARM.exidx.text._ZNSt9exceptionD0Ev
                0x00019b44        0x0 c:/users/montoya/documents/classes/cmpe146/lab/cmpe146package_lpc1758/yagarto/bin/../lib/gcc/arm-none-eabi/4.6.2/../../../../arm-none-eabi/lib/thumb/v7m\libstdc++.a(eh_exception.o)
                                  0x8 (size before relaxing)
 .ARM.exidx.text.__cxa_get_globals_fast
                0x00019b44        0x0 c:/users/montoya/documents/classes/cmpe146/lab/cmpe146package_lpc1758/yagarto/bin/../lib/gcc/arm-none-eabi/4.6.2/../../../../arm-none-eabi/lib/thumb/v7m\libstdc++.a(eh_globals.o)
                                  0x8 (size before relaxing)
 .ARM.exidx.text.__cxa_get_globals
                0x00019b44        0x0 c:/users/montoya/documents/classes/cmpe146/lab/cmpe146package_lpc1758/yagarto/bin/../lib/gcc/arm-none-eabi/4.6.2/../../../../arm-none-eabi/lib/thumb/v7m\libstdc++.a(eh_globals.o)
                                  0x8 (size before relaxing)
 .ARM.exidx.text._ZN10__cxxabiv111__terminateEPFvvE
                0x00019b44        0x8 c:/users/montoya/documents/classes/cmpe146/lab/cmpe146package_lpc1758/yagarto/bin/../lib/gcc/arm-none-eabi/4.6.2/../../../../arm-none-eabi/lib/thumb/v7m\libstdc++.a(eh_terminate.o)
 .ARM.exidx.text._ZSt9terminatev
                0x00019b4c        0x8 c:/users/montoya/documents/classes/cmpe146/lab/cmpe146package_lpc1758/yagarto/bin/../lib/gcc/arm-none-eabi/4.6.2/../../../../arm-none-eabi/lib/thumb/v7m\libstdc++.a(eh_terminate.o)
 .ARM.exidx.text._ZN10__cxxabiv112__unexpectedEPFvvE
                0x00019b54        0x8 c:/users/montoya/documents/classes/cmpe146/lab/cmpe146package_lpc1758/yagarto/bin/../lib/gcc/arm-none-eabi/4.6.2/../../../../arm-none-eabi/lib/thumb/v7m\libstdc++.a(eh_terminate.o)
 .ARM.exidx.text._ZSt10unexpectedv
                0x00019b5c        0x8 c:/users/montoya/documents/classes/cmpe146/lab/cmpe146package_lpc1758/yagarto/bin/../lib/gcc/arm-none-eabi/4.6.2/../../../../arm-none-eabi/lib/thumb/v7m\libstdc++.a(eh_terminate.o)
 .ARM.exidx.text._ZSt13set_terminatePFvvE
                0x00019b64        0x8 c:/users/montoya/documents/classes/cmpe146/lab/cmpe146package_lpc1758/yagarto/bin/../lib/gcc/arm-none-eabi/4.6.2/../../../../arm-none-eabi/lib/thumb/v7m\libstdc++.a(eh_terminate.o)
 .ARM.exidx.text._ZSt14set_unexpectedPFvvE
                0x00019b6c        0x0 c:/users/montoya/documents/classes/cmpe146/lab/cmpe146package_lpc1758/yagarto/bin/../lib/gcc/arm-none-eabi/4.6.2/../../../../arm-none-eabi/lib/thumb/v7m\libstdc++.a(eh_terminate.o)
                                  0x8 (size before relaxing)
 .ARM.exidx.text._ZL23__gxx_exception_cleanup19_Unwind_Reason_CodeP21_Unwind_Control_Block
                0x00019b6c        0x8 c:/users/montoya/documents/classes/cmpe146/lab/cmpe146package_lpc1758/yagarto/bin/../lib/gcc/arm-none-eabi/4.6.2/../../../../arm-none-eabi/lib/thumb/v7m\libstdc++.a(eh_throw.o)
 .ARM.exidx.text.__cxa_throw
                0x00019b74        0x8 c:/users/montoya/documents/classes/cmpe146/lab/cmpe146package_lpc1758/yagarto/bin/../lib/gcc/arm-none-eabi/4.6.2/../../../../arm-none-eabi/lib/thumb/v7m\libstdc++.a(eh_throw.o)
 .ARM.exidx.text.__cxa_rethrow
                0x00019b7c       0x10 c:/users/montoya/documents/classes/cmpe146/lab/cmpe146package_lpc1758/yagarto/bin/../lib/gcc/arm-none-eabi/4.6.2/../../../../arm-none-eabi/lib/thumb/v7m\libstdc++.a(eh_throw.o)
                                  0x8 (size before relaxing)
 .ARM.exidx.text.__cxa_type_match
                0x00019b8c        0x8 c:/users/montoya/documents/classes/cmpe146/lab/cmpe146package_lpc1758/yagarto/bin/../lib/gcc/arm-none-eabi/4.6.2/../../../../arm-none-eabi/lib/thumb/v7m\libstdc++.a(eh_arm.o)
 .ARM.exidx.text.__cxa_begin_cleanup
                0x00019b94        0x8 c:/users/montoya/documents/classes/cmpe146/lab/cmpe146package_lpc1758/yagarto/bin/../lib/gcc/arm-none-eabi/4.6.2/../../../../arm-none-eabi/lib/thumb/v7m\libstdc++.a(eh_arm.o)
 .ARM.exidx.text.__gnu_end_cleanup
                0x00019b9c        0x0 c:/users/montoya/documents/classes/cmpe146/lab/cmpe146package_lpc1758/yagarto/bin/../lib/gcc/arm-none-eabi/4.6.2/../../../../arm-none-eabi/lib/thumb/v7m\libstdc++.a(eh_arm.o)
                                  0x8 (size before relaxing)
 .ARM.exidx.text.__cxa_bad_cast
                0x00019b9c        0x8 c:/users/montoya/documents/classes/cmpe146/lab/cmpe146package_lpc1758/yagarto/bin/../lib/gcc/arm-none-eabi/4.6.2/../../../../arm-none-eabi/lib/thumb/v7m\libstdc++.a(eh_aux_runtime.o)
 .ARM.exidx.text.__cxa_bad_typeid
                0x00019ba4        0x8 c:/users/montoya/documents/classes/cmpe146/lab/cmpe146package_lpc1758/yagarto/bin/../lib/gcc/arm-none-eabi/4.6.2/../../../../arm-none-eabi/lib/thumb/v7m\libstdc++.a(eh_aux_runtime.o)
 .ARM.exidx.text.__cxa_call_terminate
                0x00019bac        0x8 c:/users/montoya/documents/classes/cmpe146/lab/cmpe146package_lpc1758/yagarto/bin/../lib/gcc/arm-none-eabi/4.6.2/../../../../arm-none-eabi/lib/thumb/v7m\libstdc++.a(eh_call.o)
 .ARM.exidx.text.__cxa_call_unexpected
                0x00019bb4        0x8 c:/users/montoya/documents/classes/cmpe146/lab/cmpe146package_lpc1758/yagarto/bin/../lib/gcc/arm-none-eabi/4.6.2/../../../../arm-none-eabi/lib/thumb/v7m\libstdc++.a(eh_call.o)
 .ARM.exidx.text.__cxa_get_exception_ptr
                0x00019bbc        0x8 c:/users/montoya/documents/classes/cmpe146/lab/cmpe146package_lpc1758/yagarto/bin/../lib/gcc/arm-none-eabi/4.6.2/../../../../arm-none-eabi/lib/thumb/v7m\libstdc++.a(eh_catch.o)
 .ARM.exidx.text.__cxa_begin_catch
                0x00019bc4        0x8 c:/users/montoya/documents/classes/cmpe146/lab/cmpe146package_lpc1758/yagarto/bin/../lib/gcc/arm-none-eabi/4.6.2/../../../../arm-none-eabi/lib/thumb/v7m\libstdc++.a(eh_catch.o)
 .ARM.exidx.text.__cxa_end_catch
                0x00019bcc        0x8 c:/users/montoya/documents/classes/cmpe146/lab/cmpe146package_lpc1758/yagarto/bin/../lib/gcc/arm-none-eabi/4.6.2/../../../../arm-none-eabi/lib/thumb/v7m\libstdc++.a(eh_catch.o)
 .ARM.exidx.text._ZSt18uncaught_exceptionv
                0x00019bd4        0x0 c:/users/montoya/documents/classes/cmpe146/lab/cmpe146package_lpc1758/yagarto/bin/../lib/gcc/arm-none-eabi/4.6.2/../../../../arm-none-eabi/lib/thumb/v7m\libstdc++.a(eh_catch.o)
                                  0x8 (size before relaxing)
 .ARM.exidx.text._ZL12read_sleb128PKhPl
                0x00019bd4        0x0 c:/users/montoya/documents/classes/cmpe146/lab/cmpe146package_lpc1758/yagarto/bin/../lib/gcc/arm-none-eabi/4.6.2/../../../../arm-none-eabi/lib/thumb/v7m\libstdc++.a(eh_personality.o)
                                  0x8 (size before relaxing)
 .ARM.exidx.text._ZL28read_encoded_value_with_basehjPKhPj
                0x00019bd4        0x8 c:/users/montoya/documents/classes/cmpe146/lab/cmpe146package_lpc1758/yagarto/bin/../lib/gcc/arm-none-eabi/4.6.2/../../../../arm-none-eabi/lib/thumb/v7m\libstdc++.a(eh_personality.o)
 .ARM.exidx.text._ZL21base_of_encoded_valuehP15_Unwind_Context
                0x00019bdc        0x8 c:/users/montoya/documents/classes/cmpe146/lab/cmpe146package_lpc1758/yagarto/bin/../lib/gcc/arm-none-eabi/4.6.2/../../../../arm-none-eabi/lib/thumb/v7m\libstdc++.a(eh_personality.o)
 .ARM.exidx.text._ZL17parse_lsda_headerP15_Unwind_ContextPKhP16lsda_header_info.constprop.1
                0x00019be4        0x8 c:/users/montoya/documents/classes/cmpe146/lab/cmpe146package_lpc1758/yagarto/bin/../lib/gcc/arm-none-eabi/4.6.2/../../../../arm-none-eabi/lib/thumb/v7m\libstdc++.a(eh_personality.o)
 .ARM.exidx.text.__gxx_personality_v0
                0x00019bec        0x8 c:/users/montoya/documents/classes/cmpe146/lab/cmpe146package_lpc1758/yagarto/bin/../lib/gcc/arm-none-eabi/4.6.2/../../../../arm-none-eabi/lib/thumb/v7m\libstdc++.a(eh_personality.o)
 .ARM.exidx.text._ZN10__cxxabiv123__fundamental_type_infoD2Ev
                0x00019bf4        0x8 c:/users/montoya/documents/classes/cmpe146/lab/cmpe146package_lpc1758/yagarto/bin/../lib/gcc/arm-none-eabi/4.6.2/../../../../arm-none-eabi/lib/thumb/v7m\libstdc++.a(fundamental_type_info.o)
 .ARM.exidx.text._ZN10__cxxabiv123__fundamental_type_infoD0Ev
                0x00019bfc        0x0 c:/users/montoya/documents/classes/cmpe146/lab/cmpe146package_lpc1758/yagarto/bin/../lib/gcc/arm-none-eabi/4.6.2/../../../../arm-none-eabi/lib/thumb/v7m\libstdc++.a(fundamental_type_info.o)
                                  0x8 (size before relaxing)
 .ARM.exidx.text._ZNK10__cxxabiv119__pointer_type_info14__is_pointer_pEv
                0x00019bfc        0x8 c:/users/montoya/documents/classes/cmpe146/lab/cmpe146package_lpc1758/yagarto/bin/../lib/gcc/arm-none-eabi/4.6.2/../../../../arm-none-eabi/lib/thumb/v7m\libstdc++.a(pointer_type_info.o)
 .ARM.exidx.text._ZN10__cxxabiv119__pointer_type_infoD2Ev
                0x00019c04        0x8 c:/users/montoya/documents/classes/cmpe146/lab/cmpe146package_lpc1758/yagarto/bin/../lib/gcc/arm-none-eabi/4.6.2/../../../../arm-none-eabi/lib/thumb/v7m\libstdc++.a(pointer_type_info.o)
 .ARM.exidx.text._ZN10__cxxabiv119__pointer_type_infoD0Ev
                0x00019c0c        0x0 c:/users/montoya/documents/classes/cmpe146/lab/cmpe146package_lpc1758/yagarto/bin/../lib/gcc/arm-none-eabi/4.6.2/../../../../arm-none-eabi/lib/thumb/v7m\libstdc++.a(pointer_type_info.o)
                                  0x8 (size before relaxing)
 .ARM.exidx.text._ZNK10__cxxabiv119__pointer_type_info15__pointer_catchEPKNS_17__pbase_type_infoEPPvj
                0x00019c0c        0x8 c:/users/montoya/documents/classes/cmpe146/lab/cmpe146package_lpc1758/yagarto/bin/../lib/gcc/arm-none-eabi/4.6.2/../../../../arm-none-eabi/lib/thumb/v7m\libstdc++.a(pointer_type_info.o)
 .ARM.exidx.text._ZNKSt8bad_cast4whatEv
                0x00019c14        0x8 c:/users/montoya/documents/classes/cmpe146/lab/cmpe146package_lpc1758/yagarto/bin/../lib/gcc/arm-none-eabi/4.6.2/../../../../arm-none-eabi/lib/thumb/v7m\libstdc++.a(bad_cast.o)
 .ARM.exidx.text._ZNSt8bad_castD2Ev
                0x00019c1c        0x0 c:/users/montoya/documents/classes/cmpe146/lab/cmpe146package_lpc1758/yagarto/bin/../lib/gcc/arm-none-eabi/4.6.2/../../../../arm-none-eabi/lib/thumb/v7m\libstdc++.a(bad_cast.o)
                                  0x8 (size before relaxing)
 .ARM.exidx.text._ZNSt8bad_castD0Ev
                0x00019c1c        0x0 c:/users/montoya/documents/classes/cmpe146/lab/cmpe146package_lpc1758/yagarto/bin/../lib/gcc/arm-none-eabi/4.6.2/../../../../arm-none-eabi/lib/thumb/v7m\libstdc++.a(bad_cast.o)
                                  0x8 (size before relaxing)
 .ARM.exidx.text._ZNKSt10bad_typeid4whatEv
                0x00019c1c        0x0 c:/users/montoya/documents/classes/cmpe146/lab/cmpe146package_lpc1758/yagarto/bin/../lib/gcc/arm-none-eabi/4.6.2/../../../../arm-none-eabi/lib/thumb/v7m\libstdc++.a(bad_typeid.o)
                                  0x8 (size before relaxing)
 .ARM.exidx.text._ZNSt10bad_typeidD2Ev
                0x00019c1c        0x0 c:/users/montoya/documents/classes/cmpe146/lab/cmpe146package_lpc1758/yagarto/bin/../lib/gcc/arm-none-eabi/4.6.2/../../../../arm-none-eabi/lib/thumb/v7m\libstdc++.a(bad_typeid.o)
                                  0x8 (size before relaxing)
 .ARM.exidx.text._ZNSt10bad_typeidD0Ev
                0x00019c1c        0x0 c:/users/montoya/documents/classes/cmpe146/lab/cmpe146package_lpc1758/yagarto/bin/../lib/gcc/arm-none-eabi/4.6.2/../../../../arm-none-eabi/lib/thumb/v7m\libstdc++.a(bad_typeid.o)
                                  0x8 (size before relaxing)
 .ARM.exidx.text._ZNK10__cxxabiv117__pbase_type_info15__pointer_catchEPKS0_PPvj
                0x00019c1c        0x8 c:/users/montoya/documents/classes/cmpe146/lab/cmpe146package_lpc1758/yagarto/bin/../lib/gcc/arm-none-eabi/4.6.2/../../../../arm-none-eabi/lib/thumb/v7m\libstdc++.a(pbase_type_info.o)
 .ARM.exidx.text._ZN10__cxxabiv117__pbase_type_infoD2Ev
                0x00019c24        0x0 c:/users/montoya/documents/classes/cmpe146/lab/cmpe146package_lpc1758/yagarto/bin/../lib/gcc/arm-none-eabi/4.6.2/../../../../arm-none-eabi/lib/thumb/v7m\libstdc++.a(pbase_type_info.o)
                                  0x8 (size before relaxing)
 .ARM.exidx.text._ZN10__cxxabiv117__pbase_type_infoD0Ev
                0x00019c24        0x0 c:/users/montoya/documents/classes/cmpe146/lab/cmpe146package_lpc1758/yagarto/bin/../lib/gcc/arm-none-eabi/4.6.2/../../../../arm-none-eabi/lib/thumb/v7m\libstdc++.a(pbase_type_info.o)
                                  0x8 (size before relaxing)
 .ARM.exidx.text._ZNK10__cxxabiv117__pbase_type_info10__do_catchEPKSt9type_infoPPvj
                0x00019c24       0x10 c:/users/montoya/documents/classes/cmpe146/lab/cmpe146package_lpc1758/yagarto/bin/../lib/gcc/arm-none-eabi/4.6.2/../../../../arm-none-eabi/lib/thumb/v7m\libstdc++.a(pbase_type_info.o)
                                  0x8 (size before relaxing)
 .ARM.exidx     0x00019c34       0x80 c:/users/montoya/documents/classes/cmpe146/lab/cmpe146package_lpc1758/yagarto/bin/../lib/gcc/arm-none-eabi/4.6.2/thumb/v7m\libgcc.a(unwind-arm.o)
                                 0xc0 (size before relaxing)
 .ARM.exidx     0x00019cb4       0x38 c:/users/montoya/documents/classes/cmpe146/lab/cmpe146package_lpc1758/yagarto/bin/../lib/gcc/arm-none-eabi/4.6.2/thumb/v7m\libgcc.a(pr-support.o)
                                 0x48 (size before relaxing)
                0x00019cec                __exidx_end = .
                0x00019cec                _etext = .

.uninit_RESERVED
 *(.bss.$RESERVED*)

.data           0x2007c000      0x8e0 load address 0x00019cec
 FILL mask 0xff
                0x2007c000                _data = .
 *(vtable)
 *(.data*)
 .data          0x2007c000        0x0 ./newlib/memory.o
 .data          0x2007c000        0x0 ./newlib/printf_lib.o
 .data          0x2007c000        0x0 ./newlib/syscalls.o
 .data          0x2007c000        0x0 ./L5_Application/source/handlers.o
 .data          0x2007c000        0x0 ./L5_Application/source/high_level_init.o
 .data          0x2007c000        0x0 ./L5_Application/source/misc.o
 .data          0x2007c000        0x0 ./L5_Application/source/tasks.o
 .data          0x2007c000        0x0 ./L5_Application/ServoMotors/servoMotor.o
 .data          0x2007c000        0x0 ./L5_Application/MatrixDisplay/matrixDisplay.o
 .data          0x2007c000        0x0 ./L5_Application/LightSensors/lightSensors.o
 .data          0x2007c000        0x0 ./L5_Application/main.o
 .data          0x2007c000        0x0 ./L4_IO/src/io_source.o
 .data          0x2007c000        0x0 ./L4_IO/src/storage.o
 .data          0x2007c000        0x0 ./L4_IO/fat/option/ccsbcs.o
 .data          0x2007c000        0x0 ./L4_IO/fat/option/reentrant.o
 .data          0x2007c000        0x0 ./L4_IO/fat/disk/diskio.o
 .data          0x2007c000        0x1 ./L4_IO/fat/disk/sd.o
                0x2007c000                Stat
 .data          0x2007c001        0x0 ./L4_IO/fat/disk/spi_flash.o
 .data          0x2007c001        0x0 ./L4_IO/fat/fatfs_time.o
 .data          0x2007c001        0x0 ./L4_IO/fat/ff.o
 .data          0x2007c001        0x0 ./L3_Utils/tlm/src/c_list.o
 .data          0x2007c001        0x0 ./L3_Utils/tlm/src/c_tlm_binary.o
 .data          0x2007c001        0x0 ./L3_Utils/tlm/src/c_tlm_comp.o
 .data          0x2007c001        0x0 ./L3_Utils/tlm/src/c_tlm_stream.o
 .data          0x2007c001        0x0 ./L3_Utils/tlm/src/c_tlm_var.o
 .data          0x2007c001        0x0 ./L3_Utils/src/command_handler.o
 .data          0x2007c001        0x0 ./L3_Utils/src/cpp_task.o
 .data          0x2007c001        0x0 ./L3_Utils/src/file_logger.o
 .data          0x2007c001        0x0 ./L3_Utils/src/freertos_timer.o
 .data          0x2007c001        0x0 ./L3_Utils/src/logger.o
 .data          0x2007c001        0x0 ./L3_Utils/src/rit_isr.o
 .data          0x2007c001        0x0 ./L3_Utils/src/rtc_alarm.o
 .data          0x2007c001        0x0 ./L3_Utils/src/str.o
 .data          0x2007c001        0x0 ./L3_Utils/src/utilities.o
 .data          0x2007c001        0x0 ./L2_Drivers/src/i2c2.o
 .data          0x2007c001        0x0 ./L2_Drivers/src/i2c_base.o
 .data          0x2007c001        0x0 ./L2_Drivers/src/pwm.o
 .data          0x2007c001        0x0 ./L2_Drivers/src/rtc.o
 .data          0x2007c001        0x0 ./L2_Drivers/src/spi1.o
 .data          0x2007c001        0x0 ./L2_Drivers/src/spi_dma.o
 .data          0x2007c001        0x0 ./L2_Drivers/src/uart0.o
 .data          0x2007c001        0x0 ./L2_Drivers/src/uart2.o
 .data          0x2007c001        0x0 ./L2_Drivers/src/uart3.o
 .data          0x2007c001        0x0 ./L2_Drivers/src/uart_base.o
 .data          0x2007c001        0x0 ./L2_Drivers/src/uart_iface.o
 .data          0x2007c001        0x0 ./L1_FreeRTOS/src/croutine.o
 .data          0x2007c001        0x0 ./L1_FreeRTOS/src/list.o
 .data          0x2007c001        0x0 ./L1_FreeRTOS/src/queue.o
 *fill*         0x2007c001        0x3 00
 .data          0x2007c004        0x4 ./L1_FreeRTOS/src/tasks.o
 .data          0x2007c008        0x0 ./L1_FreeRTOS/src/tasks.inc.o
 .data          0x2007c008        0x0 ./L1_FreeRTOS/src/timers.o
 .data          0x2007c008        0x4 ./L1_FreeRTOS/portable/port.o
 .data          0x2007c00c        0x0 ./L1_FreeRTOS/hooks/hooks.o
 .data          0x2007c00c        0x0 ./L1_FreeRTOS/MemMang/heap_3.o
 .data          0x2007c00c        0x0 ./L0_LowLevel/source/core_cm3.o
 .data          0x2007c00c        0x0 ./L0_LowLevel/source/cr_startup_lpc175x.o
 .data          0x2007c00c        0x0 ./L0_LowLevel/source/sys_clock.o
 .data          0x2007c00c        0x0 ./L0_LowLevel/source/system_init.o
 .data          0x2007c00c        0x0 ./L0_LowLevel/source/uart0_min.o
 .data          0x2007c00c        0x0 c:/users/montoya/documents/classes/cmpe146/lab/cmpe146package_lpc1758/yagarto/bin/../lib/gcc/arm-none-eabi/4.6.2/../../../../arm-none-eabi/lib/thumb/v7m\libstdc++.a(guard.o)
 .data          0x2007c00c        0x0 c:/users/montoya/documents/classes/cmpe146/lab/cmpe146package_lpc1758/yagarto/bin/../lib/gcc/arm-none-eabi/4.6.2/../../../../arm-none-eabi/lib/thumb/v7m\libstdc++.a(guard_error.o)
 .data          0x2007c00c        0x0 c:/users/montoya/documents/classes/cmpe146/lab/cmpe146package_lpc1758/yagarto/bin/../lib/gcc/arm-none-eabi/4.6.2/../../../../arm-none-eabi/lib/thumb/v7m\libstdc++.a(pure.o)
 .data          0x2007c00c        0x0 c:/users/montoya/documents/classes/cmpe146/lab/cmpe146package_lpc1758/yagarto/bin/../lib/gcc/arm-none-eabi/4.6.2/../../../../arm-none-eabi/lib/thumb/v7m\libstdc++.a(si_class_type_info.o)
 .data          0x2007c00c        0x0 c:/users/montoya/documents/classes/cmpe146/lab/cmpe146package_lpc1758/yagarto/bin/../lib/gcc/arm-none-eabi/4.6.2/../../../../arm-none-eabi/lib/thumb/v7m\libstdc++.a(tinfo.o)
 .data          0x2007c00c        0x0 c:/users/montoya/documents/classes/cmpe146/lab/cmpe146package_lpc1758/yagarto/bin/../lib/gcc/arm-none-eabi/4.6.2/../../../../arm-none-eabi/lib/thumb/v7m\libstdc++.a(class_type_info.o)
 .data          0x2007c00c        0x0 c:/users/montoya/documents/classes/cmpe146/lab/cmpe146package_lpc1758/yagarto/bin/../lib/gcc/arm-none-eabi/4.6.2/../../../../arm-none-eabi/lib/thumb/v7m\libstdc++.a(eh_alloc.o)
 .data          0x2007c00c        0x0 c:/users/montoya/documents/classes/cmpe146/lab/cmpe146package_lpc1758/yagarto/bin/../lib/gcc/arm-none-eabi/4.6.2/../../../../arm-none-eabi/lib/thumb/v7m\libstdc++.a(eh_exception.o)
 .data          0x2007c00c        0x0 c:/users/montoya/documents/classes/cmpe146/lab/cmpe146package_lpc1758/yagarto/bin/../lib/gcc/arm-none-eabi/4.6.2/../../../../arm-none-eabi/lib/thumb/v7m\libstdc++.a(eh_globals.o)
 .data          0x2007c00c        0x0 c:/users/montoya/documents/classes/cmpe146/lab/cmpe146package_lpc1758/yagarto/bin/../lib/gcc/arm-none-eabi/4.6.2/../../../../arm-none-eabi/lib/thumb/v7m\libstdc++.a(eh_terminate.o)
 .data          0x2007c00c        0x0 c:/users/montoya/documents/classes/cmpe146/lab/cmpe146package_lpc1758/yagarto/bin/../lib/gcc/arm-none-eabi/4.6.2/../../../../arm-none-eabi/lib/thumb/v7m\libstdc++.a(eh_term_handler.o)
 .data._ZN10__cxxabiv119__terminate_handlerE
                0x2007c00c        0x4 c:/users/montoya/documents/classes/cmpe146/lab/cmpe146package_lpc1758/yagarto/bin/../lib/gcc/arm-none-eabi/4.6.2/../../../../arm-none-eabi/lib/thumb/v7m\libstdc++.a(eh_term_handler.o)
                0x2007c00c                __cxxabiv1::__terminate_handler
 .data          0x2007c010        0x0 c:/users/montoya/documents/classes/cmpe146/lab/cmpe146package_lpc1758/yagarto/bin/../lib/gcc/arm-none-eabi/4.6.2/../../../../arm-none-eabi/lib/thumb/v7m\libstdc++.a(eh_throw.o)
 .data          0x2007c010        0x0 c:/users/montoya/documents/classes/cmpe146/lab/cmpe146package_lpc1758/yagarto/bin/../lib/gcc/arm-none-eabi/4.6.2/../../../../arm-none-eabi/lib/thumb/v7m\libstdc++.a(eh_unex_handler.o)
 .data._ZN10__cxxabiv120__unexpected_handlerE
                0x2007c010        0x4 c:/users/montoya/documents/classes/cmpe146/lab/cmpe146package_lpc1758/yagarto/bin/../lib/gcc/arm-none-eabi/4.6.2/../../../../arm-none-eabi/lib/thumb/v7m\libstdc++.a(eh_unex_handler.o)
                0x2007c010                __cxxabiv1::__unexpected_handler
 .data          0x2007c014        0x0 c:/users/montoya/documents/classes/cmpe146/lab/cmpe146package_lpc1758/yagarto/bin/../lib/gcc/arm-none-eabi/4.6.2/../../../../arm-none-eabi/lib/thumb/v7m\libstdc++.a(eh_arm.o)
 .data          0x2007c014        0x0 c:/users/montoya/documents/classes/cmpe146/lab/cmpe146package_lpc1758/yagarto/bin/../lib/gcc/arm-none-eabi/4.6.2/../../../../arm-none-eabi/lib/thumb/v7m\libstdc++.a(eh_aux_runtime.o)
 .data          0x2007c014        0x0 c:/users/montoya/documents/classes/cmpe146/lab/cmpe146package_lpc1758/yagarto/bin/../lib/gcc/arm-none-eabi/4.6.2/../../../../arm-none-eabi/lib/thumb/v7m\libstdc++.a(eh_call.o)
 .data          0x2007c014        0x0 c:/users/montoya/documents/classes/cmpe146/lab/cmpe146package_lpc1758/yagarto/bin/../lib/gcc/arm-none-eabi/4.6.2/../../../../arm-none-eabi/lib/thumb/v7m\libstdc++.a(eh_catch.o)
 .data          0x2007c014        0x0 c:/users/montoya/documents/classes/cmpe146/lab/cmpe146package_lpc1758/yagarto/bin/../lib/gcc/arm-none-eabi/4.6.2/../../../../arm-none-eabi/lib/thumb/v7m\libstdc++.a(eh_personality.o)
 .data          0x2007c014        0x0 c:/users/montoya/documents/classes/cmpe146/lab/cmpe146package_lpc1758/yagarto/bin/../lib/gcc/arm-none-eabi/4.6.2/../../../../arm-none-eabi/lib/thumb/v7m\libstdc++.a(fundamental_type_info.o)
 .data          0x2007c014        0x0 c:/users/montoya/documents/classes/cmpe146/lab/cmpe146package_lpc1758/yagarto/bin/../lib/gcc/arm-none-eabi/4.6.2/../../../../arm-none-eabi/lib/thumb/v7m\libstdc++.a(pointer_type_info.o)
 .data          0x2007c014        0x0 c:/users/montoya/documents/classes/cmpe146/lab/cmpe146package_lpc1758/yagarto/bin/../lib/gcc/arm-none-eabi/4.6.2/../../../../arm-none-eabi/lib/thumb/v7m\libstdc++.a(bad_cast.o)
 .data          0x2007c014        0x0 c:/users/montoya/documents/classes/cmpe146/lab/cmpe146package_lpc1758/yagarto/bin/../lib/gcc/arm-none-eabi/4.6.2/../../../../arm-none-eabi/lib/thumb/v7m\libstdc++.a(bad_typeid.o)
 .data          0x2007c014        0x0 c:/users/montoya/documents/classes/cmpe146/lab/cmpe146package_lpc1758/yagarto/bin/../lib/gcc/arm-none-eabi/4.6.2/../../../../arm-none-eabi/lib/thumb/v7m\libstdc++.a(pbase_type_info.o)
 .data          0x2007c014        0x0 c:/users/montoya/documents/classes/cmpe146/lab/cmpe146package_lpc1758/yagarto/bin/../lib/gcc/arm-none-eabi/4.6.2/thumb/v7m\libgcc.a(_arm_addsubdf3.o)
 .data          0x2007c014        0x0 c:/users/montoya/documents/classes/cmpe146/lab/cmpe146package_lpc1758/yagarto/bin/../lib/gcc/arm-none-eabi/4.6.2/thumb/v7m\libgcc.a(_arm_muldivdf3.o)
 .data          0x2007c014        0x0 c:/users/montoya/documents/classes/cmpe146/lab/cmpe146package_lpc1758/yagarto/bin/../lib/gcc/arm-none-eabi/4.6.2/thumb/v7m\libgcc.a(_arm_cmpdf2.o)
 .data          0x2007c014        0x0 c:/users/montoya/documents/classes/cmpe146/lab/cmpe146package_lpc1758/yagarto/bin/../lib/gcc/arm-none-eabi/4.6.2/thumb/v7m\libgcc.a(_arm_fixdfsi.o)
 .data          0x2007c014        0x0 c:/users/montoya/documents/classes/cmpe146/lab/cmpe146package_lpc1758/yagarto/bin/../lib/gcc/arm-none-eabi/4.6.2/thumb/v7m\libgcc.a(_arm_fixunsdfsi.o)
 .data          0x2007c014        0x0 c:/users/montoya/documents/classes/cmpe146/lab/cmpe146package_lpc1758/yagarto/bin/../lib/gcc/arm-none-eabi/4.6.2/thumb/v7m\libgcc.a(_arm_truncdfsf2.o)
 .data          0x2007c014        0x0 c:/users/montoya/documents/classes/cmpe146/lab/cmpe146package_lpc1758/yagarto/bin/../lib/gcc/arm-none-eabi/4.6.2/thumb/v7m\libgcc.a(_arm_addsubsf3.o)
 .data          0x2007c014        0x0 c:/users/montoya/documents/classes/cmpe146/lab/cmpe146package_lpc1758/yagarto/bin/../lib/gcc/arm-none-eabi/4.6.2/thumb/v7m\libgcc.a(_arm_muldivsf3.o)
 .data          0x2007c014        0x0 c:/users/montoya/documents/classes/cmpe146/lab/cmpe146package_lpc1758/yagarto/bin/../lib/gcc/arm-none-eabi/4.6.2/thumb/v7m\libgcc.a(_arm_cmpsf2.o)
 .data          0x2007c014        0x0 c:/users/montoya/documents/classes/cmpe146/lab/cmpe146package_lpc1758/yagarto/bin/../lib/gcc/arm-none-eabi/4.6.2/thumb/v7m\libgcc.a(_arm_fixsfsi.o)
 .data          0x2007c014        0x0 c:/users/montoya/documents/classes/cmpe146/lab/cmpe146package_lpc1758/yagarto/bin/../lib/gcc/arm-none-eabi/4.6.2/thumb/v7m\libgcc.a(unwind-arm.o)
 .data          0x2007c014        0x0 c:/users/montoya/documents/classes/cmpe146/lab/cmpe146package_lpc1758/yagarto/bin/../lib/gcc/arm-none-eabi/4.6.2/thumb/v7m\libgcc.a(libunwind.o)
 .data          0x2007c014        0x0 c:/users/montoya/documents/classes/cmpe146/lab/cmpe146package_lpc1758/yagarto/bin/../lib/gcc/arm-none-eabi/4.6.2/thumb/v7m\libgcc.a(pr-support.o)
 .data          0x2007c014        0x0 c:/users/montoya/documents/classes/cmpe146/lab/cmpe146package_lpc1758/yagarto/bin/../lib/gcc/arm-none-eabi/4.6.2/../../../../arm-none-eabi/lib/thumb/v7m\libc.a(lib_a-abort.o)
 .data          0x2007c014        0x0 c:/users/montoya/documents/classes/cmpe146/lab/cmpe146package_lpc1758/yagarto/bin/../lib/gcc/arm-none-eabi/4.6.2/../../../../arm-none-eabi/lib/thumb/v7m\libc.a(lib_a-assert.o)
 .data          0x2007c014        0x0 c:/users/montoya/documents/classes/cmpe146/lab/cmpe146package_lpc1758/yagarto/bin/../lib/gcc/arm-none-eabi/4.6.2/../../../../arm-none-eabi/lib/thumb/v7m\libc.a(lib_a-atoi.o)
 .data          0x2007c014        0x0 c:/users/montoya/documents/classes/cmpe146/lab/cmpe146package_lpc1758/yagarto/bin/../lib/gcc/arm-none-eabi/4.6.2/../../../../arm-none-eabi/lib/thumb/v7m\libc.a(lib_a-fiprintf.o)
 *fill*         0x2007c014        0x4 00
 .data          0x2007c018      0x430 c:/users/montoya/documents/classes/cmpe146/lab/cmpe146package_lpc1758/yagarto/bin/../lib/gcc/arm-none-eabi/4.6.2/../../../../arm-none-eabi/lib/thumb/v7m\libc.a(lib_a-impure.o)
                0x2007c018                _impure_ptr
 .data          0x2007c448        0x0 c:/users/montoya/documents/classes/cmpe146/lab/cmpe146package_lpc1758/yagarto/bin/../lib/gcc/arm-none-eabi/4.6.2/../../../../arm-none-eabi/lib/thumb/v7m\libc.a(lib_a-init.o)
 .data          0x2007c448        0x0 c:/users/montoya/documents/classes/cmpe146/lab/cmpe146package_lpc1758/yagarto/bin/../lib/gcc/arm-none-eabi/4.6.2/../../../../arm-none-eabi/lib/thumb/v7m\libc.a(lib_a-isalnum.o)
 .data          0x2007c448        0x0 c:/users/montoya/documents/classes/cmpe146/lab/cmpe146package_lpc1758/yagarto/bin/../lib/gcc/arm-none-eabi/4.6.2/../../../../arm-none-eabi/lib/thumb/v7m\libc.a(lib_a-isalpha.o)
 .data          0x2007c448        0x0 c:/users/montoya/documents/classes/cmpe146/lab/cmpe146package_lpc1758/yagarto/bin/../lib/gcc/arm-none-eabi/4.6.2/../../../../arm-none-eabi/lib/thumb/v7m\libc.a(lib_a-malloc.o)
 .data          0x2007c448      0x410 c:/users/montoya/documents/classes/cmpe146/lab/cmpe146package_lpc1758/yagarto/bin/../lib/gcc/arm-none-eabi/4.6.2/../../../../arm-none-eabi/lib/thumb/v7m\libc.a(lib_a-mallocr.o)
                0x2007c448                __malloc_av_
                0x2007c850                __malloc_sbrk_base
                0x2007c854                __malloc_trim_threshold
 .data          0x2007c858        0x0 c:/users/montoya/documents/classes/cmpe146/lab/cmpe146package_lpc1758/yagarto/bin/../lib/gcc/arm-none-eabi/4.6.2/../../../../arm-none-eabi/lib/thumb/v7m\libc.a(lib_a-memcmp.o)
 .data          0x2007c858        0x0 c:/users/montoya/documents/classes/cmpe146/lab/cmpe146package_lpc1758/yagarto/bin/../lib/gcc/arm-none-eabi/4.6.2/../../../../arm-none-eabi/lib/thumb/v7m\libc.a(lib_a-memcpy.o)
 .data          0x2007c858        0x0 c:/users/montoya/documents/classes/cmpe146/lab/cmpe146package_lpc1758/yagarto/bin/../lib/gcc/arm-none-eabi/4.6.2/../../../../arm-none-eabi/lib/thumb/v7m\libc.a(lib_a-memmove.o)
 .data          0x2007c858        0x0 c:/users/montoya/documents/classes/cmpe146/lab/cmpe146package_lpc1758/yagarto/bin/../lib/gcc/arm-none-eabi/4.6.2/../../../../arm-none-eabi/lib/thumb/v7m\libc.a(lib_a-memset.o)
 .data          0x2007c858        0x0 c:/users/montoya/documents/classes/cmpe146/lab/cmpe146package_lpc1758/yagarto/bin/../lib/gcc/arm-none-eabi/4.6.2/../../../../arm-none-eabi/lib/thumb/v7m\libc.a(lib_a-mlock.o)
 .data          0x2007c858        0x0 c:/users/montoya/documents/classes/cmpe146/lab/cmpe146package_lpc1758/yagarto/bin/../lib/gcc/arm-none-eabi/4.6.2/../../../../arm-none-eabi/lib/thumb/v7m\libc.a(lib_a-mstats.o)
 .data          0x2007c858        0x0 c:/users/montoya/documents/classes/cmpe146/lab/cmpe146package_lpc1758/yagarto/bin/../lib/gcc/arm-none-eabi/4.6.2/../../../../arm-none-eabi/lib/thumb/v7m\libc.a(lib_a-puts.o)
 .data          0x2007c858        0x0 c:/users/montoya/documents/classes/cmpe146/lab/cmpe146package_lpc1758/yagarto/bin/../lib/gcc/arm-none-eabi/4.6.2/../../../../arm-none-eabi/lib/thumb/v7m\libc.a(lib_a-realloc.o)
 .data          0x2007c858        0x0 c:/users/montoya/documents/classes/cmpe146/lab/cmpe146package_lpc1758/yagarto/bin/../lib/gcc/arm-none-eabi/4.6.2/../../../../arm-none-eabi/lib/thumb/v7m\libc.a(lib_a-reallocr.o)
 .data          0x2007c858        0x0 c:/users/montoya/documents/classes/cmpe146/lab/cmpe146package_lpc1758/yagarto/bin/../lib/gcc/arm-none-eabi/4.6.2/../../../../arm-none-eabi/lib/thumb/v7m\libc.a(lib_a-sbrkr.o)
 .data          0x2007c858        0x0 c:/users/montoya/documents/classes/cmpe146/lab/cmpe146package_lpc1758/yagarto/bin/../lib/gcc/arm-none-eabi/4.6.2/../../../../arm-none-eabi/lib/thumb/v7m\libc.a(lib_a-setvbuf.o)
 .data          0x2007c858        0x0 c:/users/montoya/documents/classes/cmpe146/lab/cmpe146package_lpc1758/yagarto/bin/../lib/gcc/arm-none-eabi/4.6.2/../../../../arm-none-eabi/lib/thumb/v7m\libc.a(lib_a-signal.o)
 .data          0x2007c858        0x0 c:/users/montoya/documents/classes/cmpe146/lab/cmpe146package_lpc1758/yagarto/bin/../lib/gcc/arm-none-eabi/4.6.2/../../../../arm-none-eabi/lib/thumb/v7m\libc.a(lib_a-signalr.o)
 .data          0x2007c858        0x0 c:/users/montoya/documents/classes/cmpe146/lab/cmpe146package_lpc1758/yagarto/bin/../lib/gcc/arm-none-eabi/4.6.2/../../../../arm-none-eabi/lib/thumb/v7m\libc.a(lib_a-siprintf.o)
 .data          0x2007c858        0x0 c:/users/montoya/documents/classes/cmpe146/lab/cmpe146package_lpc1758/yagarto/bin/../lib/gcc/arm-none-eabi/4.6.2/../../../../arm-none-eabi/lib/thumb/v7m\libc.a(lib_a-strcasecmp.o)
 .data          0x2007c858        0x0 c:/users/montoya/documents/classes/cmpe146/lab/cmpe146package_lpc1758/yagarto/bin/../lib/gcc/arm-none-eabi/4.6.2/../../../../arm-none-eabi/lib/thumb/v7m\libc.a(lib_a-strcat.o)
 .data          0x2007c858        0x0 c:/users/montoya/documents/classes/cmpe146/lab/cmpe146package_lpc1758/yagarto/bin/../lib/gcc/arm-none-eabi/4.6.2/../../../../arm-none-eabi/lib/thumb/v7m\libc.a(lib_a-strchr.o)
 .data          0x2007c858        0x0 c:/users/montoya/documents/classes/cmpe146/lab/cmpe146package_lpc1758/yagarto/bin/../lib/gcc/arm-none-eabi/4.6.2/../../../../arm-none-eabi/lib/thumb/v7m\libc.a(lib_a-strcmp.o)
 .data          0x2007c858        0x0 c:/users/montoya/documents/classes/cmpe146/lab/cmpe146package_lpc1758/yagarto/bin/../lib/gcc/arm-none-eabi/4.6.2/../../../../arm-none-eabi/lib/thumb/v7m\libc.a(lib_a-strcpy.o)
 .data          0x2007c858        0x0 c:/users/montoya/documents/classes/cmpe146/lab/cmpe146package_lpc1758/yagarto/bin/../lib/gcc/arm-none-eabi/4.6.2/../../../../arm-none-eabi/lib/thumb/v7m\libc.a(lib_a-strlen.o)
 .data          0x2007c858        0x0 c:/users/montoya/documents/classes/cmpe146/lab/cmpe146package_lpc1758/yagarto/bin/../lib/gcc/arm-none-eabi/4.6.2/../../../../arm-none-eabi/lib/thumb/v7m\libc.a(lib_a-strncasecmp.o)
 .data          0x2007c858        0x0 c:/users/montoya/documents/classes/cmpe146/lab/cmpe146package_lpc1758/yagarto/bin/../lib/gcc/arm-none-eabi/4.6.2/../../../../arm-none-eabi/lib/thumb/v7m\libc.a(lib_a-strncmp.o)
 .data          0x2007c858        0x0 c:/users/montoya/documents/classes/cmpe146/lab/cmpe146package_lpc1758/yagarto/bin/../lib/gcc/arm-none-eabi/4.6.2/../../../../arm-none-eabi/lib/thumb/v7m\libc.a(lib_a-strncpy.o)
 .data          0x2007c858        0x0 c:/users/montoya/documents/classes/cmpe146/lab/cmpe146package_lpc1758/yagarto/bin/../lib/gcc/arm-none-eabi/4.6.2/../../../../arm-none-eabi/lib/thumb/v7m\libc.a(lib_a-strpbrk.o)
 .data          0x2007c858        0x0 c:/users/montoya/documents/classes/cmpe146/lab/cmpe146package_lpc1758/yagarto/bin/../lib/gcc/arm-none-eabi/4.6.2/../../../../arm-none-eabi/lib/thumb/v7m\libc.a(lib_a-strrchr.o)
 .data          0x2007c858        0x0 c:/users/montoya/documents/classes/cmpe146/lab/cmpe146package_lpc1758/yagarto/bin/../lib/gcc/arm-none-eabi/4.6.2/../../../../arm-none-eabi/lib/thumb/v7m\libc.a(lib_a-strstr.o)
 .data          0x2007c858        0x0 c:/users/montoya/documents/classes/cmpe146/lab/cmpe146package_lpc1758/yagarto/bin/../lib/gcc/arm-none-eabi/4.6.2/../../../../arm-none-eabi/lib/thumb/v7m\libc.a(lib_a-strtol.o)
 .data          0x2007c858        0x0 c:/users/montoya/documents/classes/cmpe146/lab/cmpe146package_lpc1758/yagarto/bin/../lib/gcc/arm-none-eabi/4.6.2/../../../../arm-none-eabi/lib/thumb/v7m\libc.a(lib_a-svfiprintf.o)
 .data          0x2007c858        0x0 c:/users/montoya/documents/classes/cmpe146/lab/cmpe146package_lpc1758/yagarto/bin/../lib/gcc/arm-none-eabi/4.6.2/../../../../arm-none-eabi/lib/thumb/v7m\libc.a(lib_a-syswrite.o)
 .data          0x2007c858        0x0 c:/users/montoya/documents/classes/cmpe146/lab/cmpe146package_lpc1758/yagarto/bin/../lib/gcc/arm-none-eabi/4.6.2/../../../../arm-none-eabi/lib/thumb/v7m\libc.a(lib_a-tolower.o)
 .data          0x2007c858        0x0 c:/users/montoya/documents/classes/cmpe146/lab/cmpe146package_lpc1758/yagarto/bin/../lib/gcc/arm-none-eabi/4.6.2/../../../../arm-none-eabi/lib/thumb/v7m\libc.a(lib_a-toupper.o)
 .data          0x2007c858        0x0 c:/users/montoya/documents/classes/cmpe146/lab/cmpe146package_lpc1758/yagarto/bin/../lib/gcc/arm-none-eabi/4.6.2/../../../../arm-none-eabi/lib/thumb/v7m\libc.a(lib_a-vfiprintf.o)
 .data          0x2007c858        0x0 c:/users/montoya/documents/classes/cmpe146/lab/cmpe146package_lpc1758/yagarto/bin/../lib/gcc/arm-none-eabi/4.6.2/../../../../arm-none-eabi/lib/thumb/v7m\libc.a(lib_a-viprintf.o)
 .data          0x2007c858        0x0 c:/users/montoya/documents/classes/cmpe146/lab/cmpe146package_lpc1758/yagarto/bin/../lib/gcc/arm-none-eabi/4.6.2/../../../../arm-none-eabi/lib/thumb/v7m\libc.a(lib_a-vsiprintf.o)
 .data          0x2007c858        0x0 c:/users/montoya/documents/classes/cmpe146/lab/cmpe146package_lpc1758/yagarto/bin/../lib/gcc/arm-none-eabi/4.6.2/../../../../arm-none-eabi/lib/thumb/v7m\libc.a(lib_a-vsiscanf.o)
 .data          0x2007c858        0x0 c:/users/montoya/documents/classes/cmpe146/lab/cmpe146package_lpc1758/yagarto/bin/../lib/gcc/arm-none-eabi/4.6.2/../../../../arm-none-eabi/lib/thumb/v7m\libc.a(lib_a-vsniprintf.o)
 .data          0x2007c858        0x0 c:/users/montoya/documents/classes/cmpe146/lab/cmpe146package_lpc1758/yagarto/bin/../lib/gcc/arm-none-eabi/4.6.2/../../../../arm-none-eabi/lib/thumb/v7m\libc.a(lib_a-vsnprintf.o)
 .data          0x2007c858        0x0 c:/users/montoya/documents/classes/cmpe146/lab/cmpe146package_lpc1758/yagarto/bin/../lib/gcc/arm-none-eabi/4.6.2/../../../../arm-none-eabi/lib/thumb/v7m\libc.a(lib_a-wbuf.o)
 .data          0x2007c858        0x0 c:/users/montoya/documents/classes/cmpe146/lab/cmpe146package_lpc1758/yagarto/bin/../lib/gcc/arm-none-eabi/4.6.2/../../../../arm-none-eabi/lib/thumb/v7m\libc.a(lib_a-writer.o)
 .data          0x2007c858        0x0 c:/users/montoya/documents/classes/cmpe146/lab/cmpe146package_lpc1758/yagarto/bin/../lib/gcc/arm-none-eabi/4.6.2/../../../../arm-none-eabi/lib/thumb/v7m\libc.a(lib_a-wsetup.o)
 .data          0x2007c858        0x4 c:/users/montoya/documents/classes/cmpe146/lab/cmpe146package_lpc1758/yagarto/bin/../lib/gcc/arm-none-eabi/4.6.2/../../../../arm-none-eabi/lib/thumb/v7m\libc.a(lib_a-ctype_.o)
                0x2007c858                __ctype_ptr__
 .data          0x2007c85c        0x0 c:/users/montoya/documents/classes/cmpe146/lab/cmpe146package_lpc1758/yagarto/bin/../lib/gcc/arm-none-eabi/4.6.2/../../../../arm-none-eabi/lib/thumb/v7m\libc.a(lib_a-fflush.o)
 .data          0x2007c85c        0x0 c:/users/montoya/documents/classes/cmpe146/lab/cmpe146package_lpc1758/yagarto/bin/../lib/gcc/arm-none-eabi/4.6.2/../../../../arm-none-eabi/lib/thumb/v7m\libc.a(lib_a-findfp.o)
 .data          0x2007c85c        0x0 c:/users/montoya/documents/classes/cmpe146/lab/cmpe146package_lpc1758/yagarto/bin/../lib/gcc/arm-none-eabi/4.6.2/../../../../arm-none-eabi/lib/thumb/v7m\libc.a(lib_a-fputwc.o)
 .data          0x2007c85c        0x0 c:/users/montoya/documents/classes/cmpe146/lab/cmpe146package_lpc1758/yagarto/bin/../lib/gcc/arm-none-eabi/4.6.2/../../../../arm-none-eabi/lib/thumb/v7m\libc.a(lib_a-freer.o)
 .data          0x2007c85c        0x0 c:/users/montoya/documents/classes/cmpe146/lab/cmpe146package_lpc1758/yagarto/bin/../lib/gcc/arm-none-eabi/4.6.2/../../../../arm-none-eabi/lib/thumb/v7m\libc.a(lib_a-fvwrite.o)
 .data          0x2007c85c        0x0 c:/users/montoya/documents/classes/cmpe146/lab/cmpe146package_lpc1758/yagarto/bin/../lib/gcc/arm-none-eabi/4.6.2/../../../../arm-none-eabi/lib/thumb/v7m\libc.a(lib_a-fwalk.o)
 .data          0x2007c85c       0x7c c:/users/montoya/documents/classes/cmpe146/lab/cmpe146package_lpc1758/yagarto/bin/../lib/gcc/arm-none-eabi/4.6.2/../../../../arm-none-eabi/lib/thumb/v7m\libc.a(lib_a-locale.o)
                0x2007c87c                __mb_cur_max
 .data          0x2007c8d8        0x0 c:/users/montoya/documents/classes/cmpe146/lab/cmpe146package_lpc1758/yagarto/bin/../lib/gcc/arm-none-eabi/4.6.2/../../../../arm-none-eabi/lib/thumb/v7m\libc.a(lib_a-makebuf.o)
 .data          0x2007c8d8        0x0 c:/users/montoya/documents/classes/cmpe146/lab/cmpe146package_lpc1758/yagarto/bin/../lib/gcc/arm-none-eabi/4.6.2/../../../../arm-none-eabi/lib/thumb/v7m\libc.a(lib_a-mallinfor.o)
 .data          0x2007c8d8        0x0 c:/users/montoya/documents/classes/cmpe146/lab/cmpe146package_lpc1758/yagarto/bin/../lib/gcc/arm-none-eabi/4.6.2/../../../../arm-none-eabi/lib/thumb/v7m\libc.a(lib_a-malloptr.o)
 .data          0x2007c8d8        0x0 c:/users/montoya/documents/classes/cmpe146/lab/cmpe146package_lpc1758/yagarto/bin/../lib/gcc/arm-none-eabi/4.6.2/../../../../arm-none-eabi/lib/thumb/v7m\libc.a(lib_a-mallstatsr.o)
 .data          0x2007c8d8        0x0 c:/users/montoya/documents/classes/cmpe146/lab/cmpe146package_lpc1758/yagarto/bin/../lib/gcc/arm-none-eabi/4.6.2/../../../../arm-none-eabi/lib/thumb/v7m\libc.a(lib_a-memchr.o)
 .data          0x2007c8d8        0x0 c:/users/montoya/documents/classes/cmpe146/lab/cmpe146package_lpc1758/yagarto/bin/../lib/gcc/arm-none-eabi/4.6.2/../../../../arm-none-eabi/lib/thumb/v7m\libc.a(lib_a-reent.o)
 .data          0x2007c8d8        0x0 c:/users/montoya/documents/classes/cmpe146/lab/cmpe146package_lpc1758/yagarto/bin/../lib/gcc/arm-none-eabi/4.6.2/../../../../arm-none-eabi/lib/thumb/v7m\libc.a(lib_a-stdio.o)
 .data          0x2007c8d8        0x0 c:/users/montoya/documents/classes/cmpe146/lab/cmpe146package_lpc1758/yagarto/bin/../lib/gcc/arm-none-eabi/4.6.2/../../../../arm-none-eabi/lib/thumb/v7m\libc.a(lib_a-svfiscanf.o)
 .data          0x2007c8d8        0x0 c:/users/montoya/documents/classes/cmpe146/lab/cmpe146package_lpc1758/yagarto/bin/../lib/gcc/arm-none-eabi/4.6.2/../../../../arm-none-eabi/lib/thumb/v7m\libc.a(lib_a-svfprintf.o)
 .data          0x2007c8d8        0x0 c:/users/montoya/documents/classes/cmpe146/lab/cmpe146package_lpc1758/yagarto/bin/../lib/gcc/arm-none-eabi/4.6.2/../../../../arm-none-eabi/lib/thumb/v7m\libc.a(lib_a-ungetc.o)
 .data          0x2007c8d8        0x0 c:/users/montoya/documents/classes/cmpe146/lab/cmpe146package_lpc1758/yagarto/bin/../lib/gcc/arm-none-eabi/4.6.2/../../../../arm-none-eabi/lib/thumb/v7m\libc.a(lib_a-wcrtomb.o)
 .data          0x2007c8d8        0x4 c:/users/montoya/documents/classes/cmpe146/lab/cmpe146package_lpc1758/yagarto/bin/../lib/gcc/arm-none-eabi/4.6.2/../../../../arm-none-eabi/lib/thumb/v7m\libc.a(lib_a-wctomb_r.o)
                0x2007c8d8                __wctomb
 .data          0x2007c8dc        0x0 c:/users/montoya/documents/classes/cmpe146/lab/cmpe146package_lpc1758/yagarto/bin/../lib/gcc/arm-none-eabi/4.6.2/../../../../arm-none-eabi/lib/thumb/v7m\libc.a(lib_a-closer.o)
 .data          0x2007c8dc        0x0 c:/users/montoya/documents/classes/cmpe146/lab/cmpe146package_lpc1758/yagarto/bin/../lib/gcc/arm-none-eabi/4.6.2/../../../../arm-none-eabi/lib/thumb/v7m\libc.a(lib_a-dtoa.o)
 .data          0x2007c8dc        0x0 c:/users/montoya/documents/classes/cmpe146/lab/cmpe146package_lpc1758/yagarto/bin/../lib/gcc/arm-none-eabi/4.6.2/../../../../arm-none-eabi/lib/thumb/v7m\libc.a(lib_a-fclose.o)
 .data          0x2007c8dc        0x0 c:/users/montoya/documents/classes/cmpe146/lab/cmpe146package_lpc1758/yagarto/bin/../lib/gcc/arm-none-eabi/4.6.2/../../../../arm-none-eabi/lib/thumb/v7m\libc.a(lib_a-fstatr.o)
 .data          0x2007c8dc        0x0 c:/users/montoya/documents/classes/cmpe146/lab/cmpe146package_lpc1758/yagarto/bin/../lib/gcc/arm-none-eabi/4.6.2/../../../../arm-none-eabi/lib/thumb/v7m\libc.a(lib_a-isattyr.o)
 .data          0x2007c8dc        0x0 c:/users/montoya/documents/classes/cmpe146/lab/cmpe146package_lpc1758/yagarto/bin/../lib/gcc/arm-none-eabi/4.6.2/../../../../arm-none-eabi/lib/thumb/v7m\libc.a(lib_a-iswspace.o)
 .data          0x2007c8dc        0x0 c:/users/montoya/documents/classes/cmpe146/lab/cmpe146package_lpc1758/yagarto/bin/../lib/gcc/arm-none-eabi/4.6.2/../../../../arm-none-eabi/lib/thumb/v7m\libc.a(lib_a-lseekr.o)
 .data          0x2007c8dc        0x0 c:/users/montoya/documents/classes/cmpe146/lab/cmpe146package_lpc1758/yagarto/bin/../lib/gcc/arm-none-eabi/4.6.2/../../../../arm-none-eabi/lib/thumb/v7m\libc.a(lib_a-mbrtowc.o)
 .data          0x2007c8dc        0x4 c:/users/montoya/documents/classes/cmpe146/lab/cmpe146package_lpc1758/yagarto/bin/../lib/gcc/arm-none-eabi/4.6.2/../../../../arm-none-eabi/lib/thumb/v7m\libc.a(lib_a-mbtowc_r.o)
                0x2007c8dc                __mbtowc
 .data          0x2007c8e0        0x0 c:/users/montoya/documents/classes/cmpe146/lab/cmpe146package_lpc1758/yagarto/bin/../lib/gcc/arm-none-eabi/4.6.2/../../../../arm-none-eabi/lib/thumb/v7m\libc.a(lib_a-mprec.o)
 .data          0x2007c8e0        0x0 c:/users/montoya/documents/classes/cmpe146/lab/cmpe146package_lpc1758/yagarto/bin/../lib/gcc/arm-none-eabi/4.6.2/../../../../arm-none-eabi/lib/thumb/v7m\libc.a(lib_a-readr.o)
 .data          0x2007c8e0        0x0 c:/users/montoya/documents/classes/cmpe146/lab/cmpe146package_lpc1758/yagarto/bin/../lib/gcc/arm-none-eabi/4.6.2/../../../../arm-none-eabi/lib/thumb/v7m\libc.a(lib_a-s_fpclassify.o)
 .data          0x2007c8e0        0x0 c:/users/montoya/documents/classes/cmpe146/lab/cmpe146package_lpc1758/yagarto/bin/../lib/gcc/arm-none-eabi/4.6.2/../../../../arm-none-eabi/lib/thumb/v7m\libc.a(lib_a-sccl.o)
 .data          0x2007c8e0        0x0 c:/users/montoya/documents/classes/cmpe146/lab/cmpe146package_lpc1758/yagarto/bin/../lib/gcc/arm-none-eabi/4.6.2/../../../../arm-none-eabi/lib/thumb/v7m\libc.a(lib_a-strtoul.o)
 .data          0x2007c8e0        0x0 c:/users/montoya/documents/classes/cmpe146/lab/cmpe146package_lpc1758/yagarto/bin/../lib/gcc/arm-none-eabi/4.6.2/../../../../arm-none-eabi/lib/thumb/v7m\libc.a(lib_a-callocr.o)
 .data          0x2007c8e0        0x0 c:/users/montoya/documents/classes/cmpe146/lab/cmpe146package_lpc1758/yagarto/bin/../lib/gcc/arm-none-eabi/4.6.2/thumb/v7m\libgcc.a(_udivsi3.o)
 .data          0x2007c8e0        0x0 c:/users/montoya/documents/classes/cmpe146/lab/cmpe146package_lpc1758/yagarto/bin/../lib/gcc/arm-none-eabi/4.6.2/thumb/v7m\libgcc.a(_dvmd_tls.o)
                0x2007c8e0                . = ALIGN (0x4)
                0x2007c8e0                _edata = .

.bss            0x2007c8e0      0xcac load address 0x0001a5cc
                0x2007c8e0                _bss = .
 *(.bss*)
 .bss           0x2007c8e0        0x4 ./newlib/memory.o
 .bss           0x2007c8e4        0x0 ./newlib/printf_lib.o
 .bss           0x2007c8e4        0xc ./newlib/syscalls.o
                0x2007c8ec                __dso_handle
 .bss           0x2007c8f0        0x0 ./L5_Application/source/handlers.o
 .bss._ZN17SingletonTemplateI17TemperatureSensorE19mpSingletonInstanceE
                0x2007c8f0        0x4 ./L5_Application/source/handlers.o
                0x2007c8f0                SingletonTemplate<TemperatureSensor>::mpSingletonInstance
 .bss._ZN17SingletonTemplateI4I2C2E19mpSingletonInstanceE
                0x2007c8f4        0x4 ./L5_Application/source/handlers.o
                0x2007c8f4                SingletonTemplate<I2C2>::mpSingletonInstance
 .bss._ZN17SingletonTemplateI12Light_SensorE19mpSingletonInstanceE
                0x2007c8f8        0x4 ./L5_Application/source/handlers.o
                0x2007c8f8                SingletonTemplate<Light_Sensor>::mpSingletonInstance
 .bss._ZN17SingletonTemplateI5Uart0E19mpSingletonInstanceE
                0x2007c8fc        0x4 ./L5_Application/source/handlers.o
                0x2007c8fc                SingletonTemplate<Uart0>::mpSingletonInstance
 .bss._ZGVZN7Storage13getFlashDriveEvE11pFlashDrive
                0x2007c900        0x4 ./L5_Application/source/handlers.o
                0x2007c900                guard variable for Storage::getFlashDrive()::pFlashDrive
 .bss._ZZN7Storage13getFlashDriveEvE11pFlashDrive
                0x2007c904        0x4 ./L5_Application/source/handlers.o
                0x2007c904                Storage::getFlashDrive()::pFlashDrive
 .bss._ZN17SingletonTemplateI10FileLoggerE19mpSingletonInstanceE
                0x2007c908        0x4 ./L5_Application/source/handlers.o
                0x2007c908                SingletonTemplate<FileLogger>::mpSingletonInstance
 .bss._ZGVZN7Storage10getSDDriveEvE12pSDCardDrive
                0x2007c90c        0x4 ./L5_Application/source/handlers.o
                0x2007c90c                guard variable for Storage::getSDDrive()::pSDCardDrive
 .bss._ZZN7Storage10getSDDriveEvE12pSDCardDrive
                0x2007c910        0x4 ./L5_Application/source/handlers.o
                0x2007c910                Storage::getSDDrive()::pSDCardDrive
 .bss           0x2007c914        0x0 ./L5_Application/source/high_level_init.o
 .bss._ZN17SingletonTemplateI11LED_DisplayE19mpSingletonInstanceE
                0x2007c914        0x4 ./L5_Application/source/high_level_init.o
                0x2007c914                SingletonTemplate<LED_Display>::mpSingletonInstance
 .bss._ZN17SingletonTemplateI12Photo_SensorE19mpSingletonInstanceE
                0x2007c918        0x4 ./L5_Application/source/high_level_init.o
                0x2007c918                SingletonTemplate<Photo_Sensor>::mpSingletonInstance
 .bss._ZN17SingletonTemplateI11Servo_MotorE19mpSingletonInstanceE
                0x2007c91c        0x4 ./L5_Application/source/high_level_init.o
                0x2007c91c                SingletonTemplate<Servo_Motor>::mpSingletonInstance
 .bss           0x2007c920        0x4 ./L5_Application/source/misc.o
 .bss           0x2007c924        0x0 ./L5_Application/source/tasks.o
 .bss._ZN17SingletonTemplateI9IR_SensorE19mpSingletonInstanceE
                0x2007c924        0x4 ./L5_Application/source/tasks.o
                0x2007c924                SingletonTemplate<IR_Sensor>::mpSingletonInstance
 .bss           0x2007c928        0x0 ./L5_Application/ServoMotors/servoMotor.o
 .bss           0x2007c928        0x0 ./L5_Application/MatrixDisplay/matrixDisplay.o
 .bss           0x2007c928        0x0 ./L5_Application/LightSensors/lightSensors.o
 .bss           0x2007c928        0x0 ./L5_Application/main.o
 .bss           0x2007c928       0xe8 ./L4_IO/src/io_source.o
                0x2007c9b0                dataMem
 .bss           0x2007ca10        0x0 ./L4_IO/src/storage.o
 .bss           0x2007ca10        0x0 ./L4_IO/fat/option/ccsbcs.o
 .bss           0x2007ca10        0x0 ./L4_IO/fat/option/reentrant.o
 .bss           0x2007ca10        0x8 ./L4_IO/fat/disk/diskio.o
                0x2007ca14                mFlashWriteCount
 .bss           0x2007ca18        0x1 ./L4_IO/fat/disk/sd.o
 .bss           0x2007ca19        0x0 ./L4_IO/fat/disk/spi_flash.o
 .bss           0x2007ca19        0x0 ./L4_IO/fat/fatfs_time.o
 *fill*         0x2007ca19        0x3 00
 .bss           0x2007ca1c       0x30 ./L4_IO/fat/ff.o
 .bss           0x2007ca4c        0x4 ./L3_Utils/tlm/src/c_list.o
 .bss           0x2007ca50        0x0 ./L3_Utils/tlm/src/c_tlm_binary.o
 .bss           0x2007ca50        0x0 ./L3_Utils/tlm/src/c_tlm_comp.o
 .bss           0x2007ca50        0x0 ./L3_Utils/tlm/src/c_tlm_stream.o
 .bss           0x2007ca50        0x0 ./L3_Utils/tlm/src/c_tlm_var.o
 .bss           0x2007ca50        0x0 ./L3_Utils/src/command_handler.o
 .bss           0x2007ca50        0xc ./L3_Utils/src/cpp_task.o
 .bss           0x2007ca5c        0x0 ./L3_Utils/src/file_logger.o
 .bss           0x2007ca5c        0x0 ./L3_Utils/src/freertos_timer.o
 .bss           0x2007ca5c        0x0 ./L3_Utils/src/logger.o
 .bss           0x2007ca5c        0xc ./L3_Utils/src/rit_isr.o
 .bss           0x2007ca68       0x14 ./L3_Utils/src/rtc_alarm.o
 .bss           0x2007ca7c        0x0 ./L3_Utils/src/str.o
 .bss           0x2007ca7c        0x4 ./L3_Utils/src/utilities.o
                0x2007ca7c                critialRegionSemaphore
 .bss           0x2007ca80        0x0 ./L2_Drivers/src/i2c2.o
 .bss           0x2007ca80        0x0 ./L2_Drivers/src/i2c_base.o
 .bss           0x2007ca80        0x0 ./L2_Drivers/src/pwm.o
 .bss           0x2007ca80        0x0 ./L2_Drivers/src/rtc.o
 .bss           0x2007ca80        0x0 ./L2_Drivers/src/spi1.o
 .bss           0x2007ca80        0x0 ./L2_Drivers/src/spi_dma.o
 .bss           0x2007ca80        0x0 ./L2_Drivers/src/uart0.o
 .bss           0x2007ca80        0x0 ./L2_Drivers/src/uart2.o
 .bss._ZN17SingletonTemplateI5Uart2E19mpSingletonInstanceE
                0x2007ca80        0x4 ./L2_Drivers/src/uart2.o
                0x2007ca80                SingletonTemplate<Uart2>::mpSingletonInstance
 .bss           0x2007ca84        0x0 ./L2_Drivers/src/uart3.o
 .bss._ZN17SingletonTemplateI5Uart3E19mpSingletonInstanceE
                0x2007ca84        0x4 ./L2_Drivers/src/uart3.o
                0x2007ca84                SingletonTemplate<Uart3>::mpSingletonInstance
 .bss           0x2007ca88        0x0 ./L2_Drivers/src/uart_base.o
 .bss           0x2007ca88        0x0 ./L2_Drivers/src/uart_iface.o
 .bss           0x2007ca88        0x0 ./L1_FreeRTOS/src/croutine.o
 .bss           0x2007ca88        0x0 ./L1_FreeRTOS/src/list.o
 .bss           0x2007ca88        0x0 ./L1_FreeRTOS/src/queue.o
 .bss           0x2007ca88       0xb4 ./L1_FreeRTOS/src/tasks.o
                0x2007ca88                pxCurrentTCB
 .bss           0x2007cb3c        0x0 ./L1_FreeRTOS/src/tasks.inc.o
 .bss           0x2007cb3c        0x0 ./L1_FreeRTOS/src/timers.o
 .bss           0x2007cb3c        0x0 ./L1_FreeRTOS/portable/port.o
 .bss           0x2007cb3c        0x0 ./L1_FreeRTOS/hooks/hooks.o
 .bss           0x2007cb3c        0x0 ./L1_FreeRTOS/MemMang/heap_3.o
 .bss           0x2007cb3c        0x0 ./L0_LowLevel/source/core_cm3.o
 .bss           0x2007cb3c        0x0 ./L0_LowLevel/source/cr_startup_lpc175x.o
 .bss           0x2007cb3c        0x0 ./L0_LowLevel/source/sys_clock.o
 .bss           0x2007cb3c        0xc ./L0_LowLevel/source/system_init.o
 .bss           0x2007cb48        0x0 ./L0_LowLevel/source/uart0_min.o
 .bss           0x2007cb48        0x0 c:/users/montoya/documents/classes/cmpe146/lab/cmpe146package_lpc1758/yagarto/bin/../lib/gcc/arm-none-eabi/4.6.2/../../../../arm-none-eabi/lib/thumb/v7m\libstdc++.a(guard.o)
 .bss           0x2007cb48        0x0 c:/users/montoya/documents/classes/cmpe146/lab/cmpe146package_lpc1758/yagarto/bin/../lib/gcc/arm-none-eabi/4.6.2/../../../../arm-none-eabi/lib/thumb/v7m\libstdc++.a(guard_error.o)
 .bss           0x2007cb48        0x0 c:/users/montoya/documents/classes/cmpe146/lab/cmpe146package_lpc1758/yagarto/bin/../lib/gcc/arm-none-eabi/4.6.2/../../../../arm-none-eabi/lib/thumb/v7m\libstdc++.a(pure.o)
 .bss           0x2007cb48        0x0 c:/users/montoya/documents/classes/cmpe146/lab/cmpe146package_lpc1758/yagarto/bin/../lib/gcc/arm-none-eabi/4.6.2/../../../../arm-none-eabi/lib/thumb/v7m\libstdc++.a(si_class_type_info.o)
 .bss           0x2007cb48        0x0 c:/users/montoya/documents/classes/cmpe146/lab/cmpe146package_lpc1758/yagarto/bin/../lib/gcc/arm-none-eabi/4.6.2/../../../../arm-none-eabi/lib/thumb/v7m\libstdc++.a(tinfo.o)
 .bss           0x2007cb48        0x0 c:/users/montoya/documents/classes/cmpe146/lab/cmpe146package_lpc1758/yagarto/bin/../lib/gcc/arm-none-eabi/4.6.2/../../../../arm-none-eabi/lib/thumb/v7m\libstdc++.a(class_type_info.o)
 .bss           0x2007cb48        0x0 c:/users/montoya/documents/classes/cmpe146/lab/cmpe146package_lpc1758/yagarto/bin/../lib/gcc/arm-none-eabi/4.6.2/../../../../arm-none-eabi/lib/thumb/v7m\libstdc++.a(eh_alloc.o)
 .bss._ZL15dependents_used
                0x2007cb48        0x4 c:/users/montoya/documents/classes/cmpe146/lab/cmpe146package_lpc1758/yagarto/bin/../lib/gcc/arm-none-eabi/4.6.2/../../../../arm-none-eabi/lib/thumb/v7m\libstdc++.a(eh_alloc.o)
 *fill*         0x2007cb4c        0x4 00
 .bss._ZL17dependents_buffer
                0x2007cb50      0x1e0 c:/users/montoya/documents/classes/cmpe146/lab/cmpe146package_lpc1758/yagarto/bin/../lib/gcc/arm-none-eabi/4.6.2/../../../../arm-none-eabi/lib/thumb/v7m\libstdc++.a(eh_alloc.o)
 .bss._ZL14emergency_used
                0x2007cd30        0x4 c:/users/montoya/documents/classes/cmpe146/lab/cmpe146package_lpc1758/yagarto/bin/../lib/gcc/arm-none-eabi/4.6.2/../../../../arm-none-eabi/lib/thumb/v7m\libstdc++.a(eh_alloc.o)
 *fill*         0x2007cd34        0x4 00
 .bss._ZL16emergency_buffer
                0x2007cd38      0x800 c:/users/montoya/documents/classes/cmpe146/lab/cmpe146package_lpc1758/yagarto/bin/../lib/gcc/arm-none-eabi/4.6.2/../../../../arm-none-eabi/lib/thumb/v7m\libstdc++.a(eh_alloc.o)
 .bss           0x2007d538        0x0 c:/users/montoya/documents/classes/cmpe146/lab/cmpe146package_lpc1758/yagarto/bin/../lib/gcc/arm-none-eabi/4.6.2/../../../../arm-none-eabi/lib/thumb/v7m\libstdc++.a(eh_exception.o)
 .bss           0x2007d538        0x0 c:/users/montoya/documents/classes/cmpe146/lab/cmpe146package_lpc1758/yagarto/bin/../lib/gcc/arm-none-eabi/4.6.2/../../../../arm-none-eabi/lib/thumb/v7m\libstdc++.a(eh_globals.o)
 .bss._ZL10eh_globals
                0x2007d538        0xc c:/users/montoya/documents/classes/cmpe146/lab/cmpe146package_lpc1758/yagarto/bin/../lib/gcc/arm-none-eabi/4.6.2/../../../../arm-none-eabi/lib/thumb/v7m\libstdc++.a(eh_globals.o)
 .bss           0x2007d544        0x0 c:/users/montoya/documents/classes/cmpe146/lab/cmpe146package_lpc1758/yagarto/bin/../lib/gcc/arm-none-eabi/4.6.2/../../../../arm-none-eabi/lib/thumb/v7m\libstdc++.a(eh_terminate.o)
 .bss           0x2007d544        0x0 c:/users/montoya/documents/classes/cmpe146/lab/cmpe146package_lpc1758/yagarto/bin/../lib/gcc/arm-none-eabi/4.6.2/../../../../arm-none-eabi/lib/thumb/v7m\libstdc++.a(eh_term_handler.o)
 .bss           0x2007d544        0x0 c:/users/montoya/documents/classes/cmpe146/lab/cmpe146package_lpc1758/yagarto/bin/../lib/gcc/arm-none-eabi/4.6.2/../../../../arm-none-eabi/lib/thumb/v7m\libstdc++.a(eh_throw.o)
 .bss           0x2007d544        0x0 c:/users/montoya/documents/classes/cmpe146/lab/cmpe146package_lpc1758/yagarto/bin/../lib/gcc/arm-none-eabi/4.6.2/../../../../arm-none-eabi/lib/thumb/v7m\libstdc++.a(eh_unex_handler.o)
 .bss           0x2007d544        0x0 c:/users/montoya/documents/classes/cmpe146/lab/cmpe146package_lpc1758/yagarto/bin/../lib/gcc/arm-none-eabi/4.6.2/../../../../arm-none-eabi/lib/thumb/v7m\libstdc++.a(eh_arm.o)
 .bss           0x2007d544        0x0 c:/users/montoya/documents/classes/cmpe146/lab/cmpe146package_lpc1758/yagarto/bin/../lib/gcc/arm-none-eabi/4.6.2/../../../../arm-none-eabi/lib/thumb/v7m\libstdc++.a(eh_aux_runtime.o)
 .bss           0x2007d544        0x0 c:/users/montoya/documents/classes/cmpe146/lab/cmpe146package_lpc1758/yagarto/bin/../lib/gcc/arm-none-eabi/4.6.2/../../../../arm-none-eabi/lib/thumb/v7m\libstdc++.a(eh_call.o)
 .bss           0x2007d544        0x0 c:/users/montoya/documents/classes/cmpe146/lab/cmpe146package_lpc1758/yagarto/bin/../lib/gcc/arm-none-eabi/4.6.2/../../../../arm-none-eabi/lib/thumb/v7m\libstdc++.a(eh_catch.o)
 .bss           0x2007d544        0x0 c:/users/montoya/documents/classes/cmpe146/lab/cmpe146package_lpc1758/yagarto/bin/../lib/gcc/arm-none-eabi/4.6.2/../../../../arm-none-eabi/lib/thumb/v7m\libstdc++.a(eh_personality.o)
 .bss           0x2007d544        0x0 c:/users/montoya/documents/classes/cmpe146/lab/cmpe146package_lpc1758/yagarto/bin/../lib/gcc/arm-none-eabi/4.6.2/../../../../arm-none-eabi/lib/thumb/v7m\libstdc++.a(fundamental_type_info.o)
 .bss           0x2007d544        0x0 c:/users/montoya/documents/classes/cmpe146/lab/cmpe146package_lpc1758/yagarto/bin/../lib/gcc/arm-none-eabi/4.6.2/../../../../arm-none-eabi/lib/thumb/v7m\libstdc++.a(pointer_type_info.o)
 .bss           0x2007d544        0x0 c:/users/montoya/documents/classes/cmpe146/lab/cmpe146package_lpc1758/yagarto/bin/../lib/gcc/arm-none-eabi/4.6.2/../../../../arm-none-eabi/lib/thumb/v7m\libstdc++.a(bad_cast.o)
 .bss           0x2007d544        0x0 c:/users/montoya/documents/classes/cmpe146/lab/cmpe146package_lpc1758/yagarto/bin/../lib/gcc/arm-none-eabi/4.6.2/../../../../arm-none-eabi/lib/thumb/v7m\libstdc++.a(bad_typeid.o)
 .bss           0x2007d544        0x0 c:/users/montoya/documents/classes/cmpe146/lab/cmpe146package_lpc1758/yagarto/bin/../lib/gcc/arm-none-eabi/4.6.2/../../../../arm-none-eabi/lib/thumb/v7m\libstdc++.a(pbase_type_info.o)
 .bss           0x2007d544        0x0 c:/users/montoya/documents/classes/cmpe146/lab/cmpe146package_lpc1758/yagarto/bin/../lib/gcc/arm-none-eabi/4.6.2/thumb/v7m\libgcc.a(_arm_addsubdf3.o)
 .bss           0x2007d544        0x0 c:/users/montoya/documents/classes/cmpe146/lab/cmpe146package_lpc1758/yagarto/bin/../lib/gcc/arm-none-eabi/4.6.2/thumb/v7m\libgcc.a(_arm_muldivdf3.o)
 .bss           0x2007d544        0x0 c:/users/montoya/documents/classes/cmpe146/lab/cmpe146package_lpc1758/yagarto/bin/../lib/gcc/arm-none-eabi/4.6.2/thumb/v7m\libgcc.a(_arm_cmpdf2.o)
 .bss           0x2007d544        0x0 c:/users/montoya/documents/classes/cmpe146/lab/cmpe146package_lpc1758/yagarto/bin/../lib/gcc/arm-none-eabi/4.6.2/thumb/v7m\libgcc.a(_arm_fixdfsi.o)
 .bss           0x2007d544        0x0 c:/users/montoya/documents/classes/cmpe146/lab/cmpe146package_lpc1758/yagarto/bin/../lib/gcc/arm-none-eabi/4.6.2/thumb/v7m\libgcc.a(_arm_fixunsdfsi.o)
 .bss           0x2007d544        0x0 c:/users/montoya/documents/classes/cmpe146/lab/cmpe146package_lpc1758/yagarto/bin/../lib/gcc/arm-none-eabi/4.6.2/thumb/v7m\libgcc.a(_arm_truncdfsf2.o)
 .bss           0x2007d544        0x0 c:/users/montoya/documents/classes/cmpe146/lab/cmpe146package_lpc1758/yagarto/bin/../lib/gcc/arm-none-eabi/4.6.2/thumb/v7m\libgcc.a(_arm_addsubsf3.o)
 .bss           0x2007d544        0x0 c:/users/montoya/documents/classes/cmpe146/lab/cmpe146package_lpc1758/yagarto/bin/../lib/gcc/arm-none-eabi/4.6.2/thumb/v7m\libgcc.a(_arm_muldivsf3.o)
 .bss           0x2007d544        0x0 c:/users/montoya/documents/classes/cmpe146/lab/cmpe146package_lpc1758/yagarto/bin/../lib/gcc/arm-none-eabi/4.6.2/thumb/v7m\libgcc.a(_arm_cmpsf2.o)
 .bss           0x2007d544        0x0 c:/users/montoya/documents/classes/cmpe146/lab/cmpe146package_lpc1758/yagarto/bin/../lib/gcc/arm-none-eabi/4.6.2/thumb/v7m\libgcc.a(_arm_fixsfsi.o)
 .bss           0x2007d544        0x0 c:/users/montoya/documents/classes/cmpe146/lab/cmpe146package_lpc1758/yagarto/bin/../lib/gcc/arm-none-eabi/4.6.2/thumb/v7m\libgcc.a(unwind-arm.o)
 .bss           0x2007d544        0x0 c:/users/montoya/documents/classes/cmpe146/lab/cmpe146package_lpc1758/yagarto/bin/../lib/gcc/arm-none-eabi/4.6.2/thumb/v7m\libgcc.a(libunwind.o)
 .bss           0x2007d544        0x0 c:/users/montoya/documents/classes/cmpe146/lab/cmpe146package_lpc1758/yagarto/bin/../lib/gcc/arm-none-eabi/4.6.2/thumb/v7m\libgcc.a(pr-support.o)
 .bss           0x2007d544        0x0 c:/users/montoya/documents/classes/cmpe146/lab/cmpe146package_lpc1758/yagarto/bin/../lib/gcc/arm-none-eabi/4.6.2/../../../../arm-none-eabi/lib/thumb/v7m\libc.a(lib_a-abort.o)
 .bss           0x2007d544        0x0 c:/users/montoya/documents/classes/cmpe146/lab/cmpe146package_lpc1758/yagarto/bin/../lib/gcc/arm-none-eabi/4.6.2/../../../../arm-none-eabi/lib/thumb/v7m\libc.a(lib_a-assert.o)
 .bss           0x2007d544        0x0 c:/users/montoya/documents/classes/cmpe146/lab/cmpe146package_lpc1758/yagarto/bin/../lib/gcc/arm-none-eabi/4.6.2/../../../../arm-none-eabi/lib/thumb/v7m\libc.a(lib_a-atoi.o)
 .bss           0x2007d544        0x0 c:/users/montoya/documents/classes/cmpe146/lab/cmpe146package_lpc1758/yagarto/bin/../lib/gcc/arm-none-eabi/4.6.2/../../../../arm-none-eabi/lib/thumb/v7m\libc.a(lib_a-fiprintf.o)
 .bss           0x2007d544        0x0 c:/users/montoya/documents/classes/cmpe146/lab/cmpe146package_lpc1758/yagarto/bin/../lib/gcc/arm-none-eabi/4.6.2/../../../../arm-none-eabi/lib/thumb/v7m\libc.a(lib_a-impure.o)
 .bss           0x2007d544        0x0 c:/users/montoya/documents/classes/cmpe146/lab/cmpe146package_lpc1758/yagarto/bin/../lib/gcc/arm-none-eabi/4.6.2/../../../../arm-none-eabi/lib/thumb/v7m\libc.a(lib_a-init.o)
 .bss           0x2007d544        0x0 c:/users/montoya/documents/classes/cmpe146/lab/cmpe146package_lpc1758/yagarto/bin/../lib/gcc/arm-none-eabi/4.6.2/../../../../arm-none-eabi/lib/thumb/v7m\libc.a(lib_a-isalnum.o)
 .bss           0x2007d544        0x0 c:/users/montoya/documents/classes/cmpe146/lab/cmpe146package_lpc1758/yagarto/bin/../lib/gcc/arm-none-eabi/4.6.2/../../../../arm-none-eabi/lib/thumb/v7m\libc.a(lib_a-isalpha.o)
 .bss           0x2007d544        0x0 c:/users/montoya/documents/classes/cmpe146/lab/cmpe146package_lpc1758/yagarto/bin/../lib/gcc/arm-none-eabi/4.6.2/../../../../arm-none-eabi/lib/thumb/v7m\libc.a(lib_a-malloc.o)
 .bss           0x2007d544       0x34 c:/users/montoya/documents/classes/cmpe146/lab/cmpe146package_lpc1758/yagarto/bin/../lib/gcc/arm-none-eabi/4.6.2/../../../../arm-none-eabi/lib/thumb/v7m\libc.a(lib_a-mallocr.o)
                0x2007d544                __malloc_top_pad
                0x2007d548                __malloc_current_mallinfo
                0x2007d570                __malloc_max_sbrked_mem
                0x2007d574                __malloc_max_total_mem
 .bss           0x2007d578        0x0 c:/users/montoya/documents/classes/cmpe146/lab/cmpe146package_lpc1758/yagarto/bin/../lib/gcc/arm-none-eabi/4.6.2/../../../../arm-none-eabi/lib/thumb/v7m\libc.a(lib_a-memcmp.o)
 .bss           0x2007d578        0x0 c:/users/montoya/documents/classes/cmpe146/lab/cmpe146package_lpc1758/yagarto/bin/../lib/gcc/arm-none-eabi/4.6.2/../../../../arm-none-eabi/lib/thumb/v7m\libc.a(lib_a-memcpy.o)
 .bss           0x2007d578        0x0 c:/users/montoya/documents/classes/cmpe146/lab/cmpe146package_lpc1758/yagarto/bin/../lib/gcc/arm-none-eabi/4.6.2/../../../../arm-none-eabi/lib/thumb/v7m\libc.a(lib_a-memmove.o)
 .bss           0x2007d578        0x0 c:/users/montoya/documents/classes/cmpe146/lab/cmpe146package_lpc1758/yagarto/bin/../lib/gcc/arm-none-eabi/4.6.2/../../../../arm-none-eabi/lib/thumb/v7m\libc.a(lib_a-memset.o)
 .bss           0x2007d578        0x0 c:/users/montoya/documents/classes/cmpe146/lab/cmpe146package_lpc1758/yagarto/bin/../lib/gcc/arm-none-eabi/4.6.2/../../../../arm-none-eabi/lib/thumb/v7m\libc.a(lib_a-mlock.o)
 .bss           0x2007d578        0x0 c:/users/montoya/documents/classes/cmpe146/lab/cmpe146package_lpc1758/yagarto/bin/../lib/gcc/arm-none-eabi/4.6.2/../../../../arm-none-eabi/lib/thumb/v7m\libc.a(lib_a-mstats.o)
 .bss           0x2007d578        0x0 c:/users/montoya/documents/classes/cmpe146/lab/cmpe146package_lpc1758/yagarto/bin/../lib/gcc/arm-none-eabi/4.6.2/../../../../arm-none-eabi/lib/thumb/v7m\libc.a(lib_a-puts.o)
 .bss           0x2007d578        0x0 c:/users/montoya/documents/classes/cmpe146/lab/cmpe146package_lpc1758/yagarto/bin/../lib/gcc/arm-none-eabi/4.6.2/../../../../arm-none-eabi/lib/thumb/v7m\libc.a(lib_a-realloc.o)
 .bss           0x2007d578        0x0 c:/users/montoya/documents/classes/cmpe146/lab/cmpe146package_lpc1758/yagarto/bin/../lib/gcc/arm-none-eabi/4.6.2/../../../../arm-none-eabi/lib/thumb/v7m\libc.a(lib_a-reallocr.o)
 .bss           0x2007d578        0x0 c:/users/montoya/documents/classes/cmpe146/lab/cmpe146package_lpc1758/yagarto/bin/../lib/gcc/arm-none-eabi/4.6.2/../../../../arm-none-eabi/lib/thumb/v7m\libc.a(lib_a-sbrkr.o)
 .bss           0x2007d578        0x0 c:/users/montoya/documents/classes/cmpe146/lab/cmpe146package_lpc1758/yagarto/bin/../lib/gcc/arm-none-eabi/4.6.2/../../../../arm-none-eabi/lib/thumb/v7m\libc.a(lib_a-setvbuf.o)
 .bss           0x2007d578        0x0 c:/users/montoya/documents/classes/cmpe146/lab/cmpe146package_lpc1758/yagarto/bin/../lib/gcc/arm-none-eabi/4.6.2/../../../../arm-none-eabi/lib/thumb/v7m\libc.a(lib_a-signal.o)
 .bss           0x2007d578        0x0 c:/users/montoya/documents/classes/cmpe146/lab/cmpe146package_lpc1758/yagarto/bin/../lib/gcc/arm-none-eabi/4.6.2/../../../../arm-none-eabi/lib/thumb/v7m\libc.a(lib_a-signalr.o)
 .bss           0x2007d578        0x0 c:/users/montoya/documents/classes/cmpe146/lab/cmpe146package_lpc1758/yagarto/bin/../lib/gcc/arm-none-eabi/4.6.2/../../../../arm-none-eabi/lib/thumb/v7m\libc.a(lib_a-siprintf.o)
 .bss           0x2007d578        0x0 c:/users/montoya/documents/classes/cmpe146/lab/cmpe146package_lpc1758/yagarto/bin/../lib/gcc/arm-none-eabi/4.6.2/../../../../arm-none-eabi/lib/thumb/v7m\libc.a(lib_a-strcasecmp.o)
 .bss           0x2007d578        0x0 c:/users/montoya/documents/classes/cmpe146/lab/cmpe146package_lpc1758/yagarto/bin/../lib/gcc/arm-none-eabi/4.6.2/../../../../arm-none-eabi/lib/thumb/v7m\libc.a(lib_a-strcat.o)
 .bss           0x2007d578        0x0 c:/users/montoya/documents/classes/cmpe146/lab/cmpe146package_lpc1758/yagarto/bin/../lib/gcc/arm-none-eabi/4.6.2/../../../../arm-none-eabi/lib/thumb/v7m\libc.a(lib_a-strchr.o)
 .bss           0x2007d578        0x0 c:/users/montoya/documents/classes/cmpe146/lab/cmpe146package_lpc1758/yagarto/bin/../lib/gcc/arm-none-eabi/4.6.2/../../../../arm-none-eabi/lib/thumb/v7m\libc.a(lib_a-strcmp.o)
 .bss           0x2007d578        0x0 c:/users/montoya/documents/classes/cmpe146/lab/cmpe146package_lpc1758/yagarto/bin/../lib/gcc/arm-none-eabi/4.6.2/../../../../arm-none-eabi/lib/thumb/v7m\libc.a(lib_a-strcpy.o)
 .bss           0x2007d578        0x0 c:/users/montoya/documents/classes/cmpe146/lab/cmpe146package_lpc1758/yagarto/bin/../lib/gcc/arm-none-eabi/4.6.2/../../../../arm-none-eabi/lib/thumb/v7m\libc.a(lib_a-strlen.o)
 .bss           0x2007d578        0x0 c:/users/montoya/documents/classes/cmpe146/lab/cmpe146package_lpc1758/yagarto/bin/../lib/gcc/arm-none-eabi/4.6.2/../../../../arm-none-eabi/lib/thumb/v7m\libc.a(lib_a-strncasecmp.o)
 .bss           0x2007d578        0x0 c:/users/montoya/documents/classes/cmpe146/lab/cmpe146package_lpc1758/yagarto/bin/../lib/gcc/arm-none-eabi/4.6.2/../../../../arm-none-eabi/lib/thumb/v7m\libc.a(lib_a-strncmp.o)
 .bss           0x2007d578        0x0 c:/users/montoya/documents/classes/cmpe146/lab/cmpe146package_lpc1758/yagarto/bin/../lib/gcc/arm-none-eabi/4.6.2/../../../../arm-none-eabi/lib/thumb/v7m\libc.a(lib_a-strncpy.o)
 .bss           0x2007d578        0x0 c:/users/montoya/documents/classes/cmpe146/lab/cmpe146package_lpc1758/yagarto/bin/../lib/gcc/arm-none-eabi/4.6.2/../../../../arm-none-eabi/lib/thumb/v7m\libc.a(lib_a-strpbrk.o)
 .bss           0x2007d578        0x0 c:/users/montoya/documents/classes/cmpe146/lab/cmpe146package_lpc1758/yagarto/bin/../lib/gcc/arm-none-eabi/4.6.2/../../../../arm-none-eabi/lib/thumb/v7m\libc.a(lib_a-strrchr.o)
 .bss           0x2007d578        0x0 c:/users/montoya/documents/classes/cmpe146/lab/cmpe146package_lpc1758/yagarto/bin/../lib/gcc/arm-none-eabi/4.6.2/../../../../arm-none-eabi/lib/thumb/v7m\libc.a(lib_a-strstr.o)
 .bss           0x2007d578        0x0 c:/users/montoya/documents/classes/cmpe146/lab/cmpe146package_lpc1758/yagarto/bin/../lib/gcc/arm-none-eabi/4.6.2/../../../../arm-none-eabi/lib/thumb/v7m\libc.a(lib_a-strtol.o)
 .bss           0x2007d578        0x0 c:/users/montoya/documents/classes/cmpe146/lab/cmpe146package_lpc1758/yagarto/bin/../lib/gcc/arm-none-eabi/4.6.2/../../../../arm-none-eabi/lib/thumb/v7m\libc.a(lib_a-svfiprintf.o)
 .bss           0x2007d578        0x0 c:/users/montoya/documents/classes/cmpe146/lab/cmpe146package_lpc1758/yagarto/bin/../lib/gcc/arm-none-eabi/4.6.2/../../../../arm-none-eabi/lib/thumb/v7m\libc.a(lib_a-syswrite.o)
 .bss           0x2007d578        0x0 c:/users/montoya/documents/classes/cmpe146/lab/cmpe146package_lpc1758/yagarto/bin/../lib/gcc/arm-none-eabi/4.6.2/../../../../arm-none-eabi/lib/thumb/v7m\libc.a(lib_a-tolower.o)
 .bss           0x2007d578        0x0 c:/users/montoya/documents/classes/cmpe146/lab/cmpe146package_lpc1758/yagarto/bin/../lib/gcc/arm-none-eabi/4.6.2/../../../../arm-none-eabi/lib/thumb/v7m\libc.a(lib_a-toupper.o)
 .bss           0x2007d578        0x0 c:/users/montoya/documents/classes/cmpe146/lab/cmpe146package_lpc1758/yagarto/bin/../lib/gcc/arm-none-eabi/4.6.2/../../../../arm-none-eabi/lib/thumb/v7m\libc.a(lib_a-vfiprintf.o)
 .bss           0x2007d578        0x0 c:/users/montoya/documents/classes/cmpe146/lab/cmpe146package_lpc1758/yagarto/bin/../lib/gcc/arm-none-eabi/4.6.2/../../../../arm-none-eabi/lib/thumb/v7m\libc.a(lib_a-viprintf.o)
 .bss           0x2007d578        0x0 c:/users/montoya/documents/classes/cmpe146/lab/cmpe146package_lpc1758/yagarto/bin/../lib/gcc/arm-none-eabi/4.6.2/../../../../arm-none-eabi/lib/thumb/v7m\libc.a(lib_a-vsiprintf.o)
 .bss           0x2007d578        0x0 c:/users/montoya/documents/classes/cmpe146/lab/cmpe146package_lpc1758/yagarto/bin/../lib/gcc/arm-none-eabi/4.6.2/../../../../arm-none-eabi/lib/thumb/v7m\libc.a(lib_a-vsiscanf.o)
 .bss           0x2007d578        0x0 c:/users/montoya/documents/classes/cmpe146/lab/cmpe146package_lpc1758/yagarto/bin/../lib/gcc/arm-none-eabi/4.6.2/../../../../arm-none-eabi/lib/thumb/v7m\libc.a(lib_a-vsniprintf.o)
 .bss           0x2007d578        0x0 c:/users/montoya/documents/classes/cmpe146/lab/cmpe146package_lpc1758/yagarto/bin/../lib/gcc/arm-none-eabi/4.6.2/../../../../arm-none-eabi/lib/thumb/v7m\libc.a(lib_a-vsnprintf.o)
 .bss           0x2007d578        0x0 c:/users/montoya/documents/classes/cmpe146/lab/cmpe146package_lpc1758/yagarto/bin/../lib/gcc/arm-none-eabi/4.6.2/../../../../arm-none-eabi/lib/thumb/v7m\libc.a(lib_a-wbuf.o)
 .bss           0x2007d578        0x0 c:/users/montoya/documents/classes/cmpe146/lab/cmpe146package_lpc1758/yagarto/bin/../lib/gcc/arm-none-eabi/4.6.2/../../../../arm-none-eabi/lib/thumb/v7m\libc.a(lib_a-writer.o)
 .bss           0x2007d578        0x0 c:/users/montoya/documents/classes/cmpe146/lab/cmpe146package_lpc1758/yagarto/bin/../lib/gcc/arm-none-eabi/4.6.2/../../../../arm-none-eabi/lib/thumb/v7m\libc.a(lib_a-wsetup.o)
 .bss           0x2007d578        0x0 c:/users/montoya/documents/classes/cmpe146/lab/cmpe146package_lpc1758/yagarto/bin/../lib/gcc/arm-none-eabi/4.6.2/../../../../arm-none-eabi/lib/thumb/v7m\libc.a(lib_a-ctype_.o)
 .bss           0x2007d578        0x0 c:/users/montoya/documents/classes/cmpe146/lab/cmpe146package_lpc1758/yagarto/bin/../lib/gcc/arm-none-eabi/4.6.2/../../../../arm-none-eabi/lib/thumb/v7m\libc.a(lib_a-fflush.o)
 .bss           0x2007d578        0x0 c:/users/montoya/documents/classes/cmpe146/lab/cmpe146package_lpc1758/yagarto/bin/../lib/gcc/arm-none-eabi/4.6.2/../../../../arm-none-eabi/lib/thumb/v7m\libc.a(lib_a-findfp.o)
 .bss           0x2007d578        0x0 c:/users/montoya/documents/classes/cmpe146/lab/cmpe146package_lpc1758/yagarto/bin/../lib/gcc/arm-none-eabi/4.6.2/../../../../arm-none-eabi/lib/thumb/v7m\libc.a(lib_a-fputwc.o)
 .bss           0x2007d578        0x0 c:/users/montoya/documents/classes/cmpe146/lab/cmpe146package_lpc1758/yagarto/bin/../lib/gcc/arm-none-eabi/4.6.2/../../../../arm-none-eabi/lib/thumb/v7m\libc.a(lib_a-freer.o)
 .bss           0x2007d578        0x0 c:/users/montoya/documents/classes/cmpe146/lab/cmpe146package_lpc1758/yagarto/bin/../lib/gcc/arm-none-eabi/4.6.2/../../../../arm-none-eabi/lib/thumb/v7m\libc.a(lib_a-fvwrite.o)
 .bss           0x2007d578        0x0 c:/users/montoya/documents/classes/cmpe146/lab/cmpe146package_lpc1758/yagarto/bin/../lib/gcc/arm-none-eabi/4.6.2/../../../../arm-none-eabi/lib/thumb/v7m\libc.a(lib_a-fwalk.o)
 .bss           0x2007d578        0xc c:/users/montoya/documents/classes/cmpe146/lab/cmpe146package_lpc1758/yagarto/bin/../lib/gcc/arm-none-eabi/4.6.2/../../../../arm-none-eabi/lib/thumb/v7m\libc.a(lib_a-locale.o)
                0x2007d578                _PathLocale
                0x2007d57c                __mlocale_changed
                0x2007d580                __nlocale_changed
 .bss           0x2007d584        0x0 c:/users/montoya/documents/classes/cmpe146/lab/cmpe146package_lpc1758/yagarto/bin/../lib/gcc/arm-none-eabi/4.6.2/../../../../arm-none-eabi/lib/thumb/v7m\libc.a(lib_a-makebuf.o)
 .bss           0x2007d584        0x0 c:/users/montoya/documents/classes/cmpe146/lab/cmpe146package_lpc1758/yagarto/bin/../lib/gcc/arm-none-eabi/4.6.2/../../../../arm-none-eabi/lib/thumb/v7m\libc.a(lib_a-mallinfor.o)
 .bss           0x2007d584        0x0 c:/users/montoya/documents/classes/cmpe146/lab/cmpe146package_lpc1758/yagarto/bin/../lib/gcc/arm-none-eabi/4.6.2/../../../../arm-none-eabi/lib/thumb/v7m\libc.a(lib_a-malloptr.o)
 .bss           0x2007d584        0x0 c:/users/montoya/documents/classes/cmpe146/lab/cmpe146package_lpc1758/yagarto/bin/../lib/gcc/arm-none-eabi/4.6.2/../../../../arm-none-eabi/lib/thumb/v7m\libc.a(lib_a-mallstatsr.o)
 .bss           0x2007d584        0x0 c:/users/montoya/documents/classes/cmpe146/lab/cmpe146package_lpc1758/yagarto/bin/../lib/gcc/arm-none-eabi/4.6.2/../../../../arm-none-eabi/lib/thumb/v7m\libc.a(lib_a-memchr.o)
 .bss           0x2007d584        0x0 c:/users/montoya/documents/classes/cmpe146/lab/cmpe146package_lpc1758/yagarto/bin/../lib/gcc/arm-none-eabi/4.6.2/../../../../arm-none-eabi/lib/thumb/v7m\libc.a(lib_a-reent.o)
 .bss           0x2007d584        0x0 c:/users/montoya/documents/classes/cmpe146/lab/cmpe146package_lpc1758/yagarto/bin/../lib/gcc/arm-none-eabi/4.6.2/../../../../arm-none-eabi/lib/thumb/v7m\libc.a(lib_a-stdio.o)
 .bss           0x2007d584        0x0 c:/users/montoya/documents/classes/cmpe146/lab/cmpe146package_lpc1758/yagarto/bin/../lib/gcc/arm-none-eabi/4.6.2/../../../../arm-none-eabi/lib/thumb/v7m\libc.a(lib_a-svfiscanf.o)
 .bss           0x2007d584        0x0 c:/users/montoya/documents/classes/cmpe146/lab/cmpe146package_lpc1758/yagarto/bin/../lib/gcc/arm-none-eabi/4.6.2/../../../../arm-none-eabi/lib/thumb/v7m\libc.a(lib_a-svfprintf.o)
 .bss           0x2007d584        0x0 c:/users/montoya/documents/classes/cmpe146/lab/cmpe146package_lpc1758/yagarto/bin/../lib/gcc/arm-none-eabi/4.6.2/../../../../arm-none-eabi/lib/thumb/v7m\libc.a(lib_a-ungetc.o)
 .bss           0x2007d584        0x0 c:/users/montoya/documents/classes/cmpe146/lab/cmpe146package_lpc1758/yagarto/bin/../lib/gcc/arm-none-eabi/4.6.2/../../../../arm-none-eabi/lib/thumb/v7m\libc.a(lib_a-wcrtomb.o)
 .bss           0x2007d584        0x0 c:/users/montoya/documents/classes/cmpe146/lab/cmpe146package_lpc1758/yagarto/bin/../lib/gcc/arm-none-eabi/4.6.2/../../../../arm-none-eabi/lib/thumb/v7m\libc.a(lib_a-wctomb_r.o)
 .bss           0x2007d584        0x0 c:/users/montoya/documents/classes/cmpe146/lab/cmpe146package_lpc1758/yagarto/bin/../lib/gcc/arm-none-eabi/4.6.2/../../../../arm-none-eabi/lib/thumb/v7m\libc.a(lib_a-closer.o)
 .bss           0x2007d584        0x0 c:/users/montoya/documents/classes/cmpe146/lab/cmpe146package_lpc1758/yagarto/bin/../lib/gcc/arm-none-eabi/4.6.2/../../../../arm-none-eabi/lib/thumb/v7m\libc.a(lib_a-dtoa.o)
 .bss           0x2007d584        0x0 c:/users/montoya/documents/classes/cmpe146/lab/cmpe146package_lpc1758/yagarto/bin/../lib/gcc/arm-none-eabi/4.6.2/../../../../arm-none-eabi/lib/thumb/v7m\libc.a(lib_a-fclose.o)
 .bss           0x2007d584        0x0 c:/users/montoya/documents/classes/cmpe146/lab/cmpe146package_lpc1758/yagarto/bin/../lib/gcc/arm-none-eabi/4.6.2/../../../../arm-none-eabi/lib/thumb/v7m\libc.a(lib_a-fstatr.o)
 .bss           0x2007d584        0x0 c:/users/montoya/documents/classes/cmpe146/lab/cmpe146package_lpc1758/yagarto/bin/../lib/gcc/arm-none-eabi/4.6.2/../../../../arm-none-eabi/lib/thumb/v7m\libc.a(lib_a-isattyr.o)
 .bss           0x2007d584        0x0 c:/users/montoya/documents/classes/cmpe146/lab/cmpe146package_lpc1758/yagarto/bin/../lib/gcc/arm-none-eabi/4.6.2/../../../../arm-none-eabi/lib/thumb/v7m\libc.a(lib_a-iswspace.o)
 .bss           0x2007d584        0x0 c:/users/montoya/documents/classes/cmpe146/lab/cmpe146package_lpc1758/yagarto/bin/../lib/gcc/arm-none-eabi/4.6.2/../../../../arm-none-eabi/lib/thumb/v7m\libc.a(lib_a-lseekr.o)
 .bss           0x2007d584        0x0 c:/users/montoya/documents/classes/cmpe146/lab/cmpe146package_lpc1758/yagarto/bin/../lib/gcc/arm-none-eabi/4.6.2/../../../../arm-none-eabi/lib/thumb/v7m\libc.a(lib_a-mbrtowc.o)
 .bss           0x2007d584        0x0 c:/users/montoya/documents/classes/cmpe146/lab/cmpe146package_lpc1758/yagarto/bin/../lib/gcc/arm-none-eabi/4.6.2/../../../../arm-none-eabi/lib/thumb/v7m\libc.a(lib_a-mbtowc_r.o)
 .bss           0x2007d584        0x0 c:/users/montoya/documents/classes/cmpe146/lab/cmpe146package_lpc1758/yagarto/bin/../lib/gcc/arm-none-eabi/4.6.2/../../../../arm-none-eabi/lib/thumb/v7m\libc.a(lib_a-mprec.o)
 .bss           0x2007d584        0x0 c:/users/montoya/documents/classes/cmpe146/lab/cmpe146package_lpc1758/yagarto/bin/../lib/gcc/arm-none-eabi/4.6.2/../../../../arm-none-eabi/lib/thumb/v7m\libc.a(lib_a-readr.o)
 .bss           0x2007d584        0x0 c:/users/montoya/documents/classes/cmpe146/lab/cmpe146package_lpc1758/yagarto/bin/../lib/gcc/arm-none-eabi/4.6.2/../../../../arm-none-eabi/lib/thumb/v7m\libc.a(lib_a-s_fpclassify.o)
 .bss           0x2007d584        0x0 c:/users/montoya/documents/classes/cmpe146/lab/cmpe146package_lpc1758/yagarto/bin/../lib/gcc/arm-none-eabi/4.6.2/../../../../arm-none-eabi/lib/thumb/v7m\libc.a(lib_a-sccl.o)
 .bss           0x2007d584        0x0 c:/users/montoya/documents/classes/cmpe146/lab/cmpe146package_lpc1758/yagarto/bin/../lib/gcc/arm-none-eabi/4.6.2/../../../../arm-none-eabi/lib/thumb/v7m\libc.a(lib_a-strtoul.o)
 .bss           0x2007d584        0x0 c:/users/montoya/documents/classes/cmpe146/lab/cmpe146package_lpc1758/yagarto/bin/../lib/gcc/arm-none-eabi/4.6.2/../../../../arm-none-eabi/lib/thumb/v7m\libc.a(lib_a-callocr.o)
 .bss           0x2007d584        0x0 c:/users/montoya/documents/classes/cmpe146/lab/cmpe146package_lpc1758/yagarto/bin/../lib/gcc/arm-none-eabi/4.6.2/thumb/v7m\libgcc.a(_udivsi3.o)
 .bss           0x2007d584        0x0 c:/users/montoya/documents/classes/cmpe146/lab/cmpe146package_lpc1758/yagarto/bin/../lib/gcc/arm-none-eabi/4.6.2/thumb/v7m\libgcc.a(_dvmd_tls.o)
 *(COMMON)
 COMMON         0x2007d584        0x3 ./L4_IO/fat/disk/sd.o
                0x2007d584                SD_TIMER1_100HZ
                0x2007d585                CardType
                0x2007d586                SD_TIMER2_100HZ
 *fill*         0x2007d587        0x1 00
 COMMON         0x2007d588        0x4 c:/users/montoya/documents/classes/cmpe146/lab/cmpe146package_lpc1758/yagarto/bin/../lib/gcc/arm-none-eabi/4.6.2/../../../../arm-none-eabi/lib/thumb/v7m\libc.a(lib_a-reent.o)
                0x2007d588                errno
                0x2007d58c                . = ALIGN (0x4)
                0x2007d58c                _ebss = .
                0x2007d58c                PROVIDE (end, .)
                0x2007d58c                PROVIDE (_pvHeapStart, .)
                0x20084000                PROVIDE (_vStackTop, (__top_RamAHB32 - 0x0))
OUTPUT(lpc17xx_CPP_FreeRTOS_May11.elf elf32-littlearm)

.comment        0x00000000       0x11
 .comment       0x00000000       0x11 ./newlib/memory.o
                                 0x12 (size before relaxing)
 .comment       0x00000000       0x12 ./newlib/printf_lib.o
 .comment       0x00000000       0x12 ./newlib/syscalls.o
 .comment       0x00000000       0x12 ./L5_Application/source/handlers.o
 .comment       0x00000000       0x12 ./L5_Application/source/high_level_init.o
 .comment       0x00000000       0x12 ./L5_Application/source/misc.o
 .comment       0x00000000       0x12 ./L5_Application/source/tasks.o
 .comment       0x00000000       0x12 ./L5_Application/ServoMotors/servoMotor.o
 .comment       0x00000000       0x12 ./L5_Application/MatrixDisplay/matrixDisplay.o
 .comment       0x00000000       0x12 ./L5_Application/LightSensors/lightSensors.o
 .comment       0x00000000       0x12 ./L5_Application/main.o
 .comment       0x00000000       0x12 ./L4_IO/src/io_source.o
 .comment       0x00000000       0x12 ./L4_IO/src/storage.o
 .comment       0x00000000       0x12 ./L4_IO/fat/option/ccsbcs.o
 .comment       0x00000000       0x12 ./L4_IO/fat/option/reentrant.o
 .comment       0x00000000       0x12 ./L4_IO/fat/disk/diskio.o
 .comment       0x00000000       0x12 ./L4_IO/fat/disk/sd.o
 .comment       0x00000000       0x12 ./L4_IO/fat/disk/spi_flash.o
 .comment       0x00000000       0x12 ./L4_IO/fat/fatfs_time.o
 .comment       0x00000000       0x12 ./L4_IO/fat/ff.o
 .comment       0x00000000       0x12 ./L3_Utils/tlm/src/c_list.o
 .comment       0x00000000       0x12 ./L3_Utils/tlm/src/c_tlm_binary.o
 .comment       0x00000000       0x12 ./L3_Utils/tlm/src/c_tlm_comp.o
 .comment       0x00000000       0x12 ./L3_Utils/tlm/src/c_tlm_stream.o
 .comment       0x00000000       0x12 ./L3_Utils/tlm/src/c_tlm_var.o
 .comment       0x00000000       0x12 ./L3_Utils/src/command_handler.o
 .comment       0x00000000       0x12 ./L3_Utils/src/cpp_task.o
 .comment       0x00000000       0x12 ./L3_Utils/src/file_logger.o
 .comment       0x00000000       0x12 ./L3_Utils/src/freertos_timer.o
 .comment       0x00000000       0x12 ./L3_Utils/src/logger.o
 .comment       0x00000000       0x12 ./L3_Utils/src/rit_isr.o
 .comment       0x00000000       0x12 ./L3_Utils/src/rtc_alarm.o
 .comment       0x00000000       0x12 ./L3_Utils/src/str.o
 .comment       0x00000000       0x12 ./L3_Utils/src/utilities.o
 .comment       0x00000000       0x12 ./L2_Drivers/src/i2c2.o
 .comment       0x00000000       0x12 ./L2_Drivers/src/i2c_base.o
 .comment       0x00000000       0x12 ./L2_Drivers/src/pwm.o
 .comment       0x00000000       0x12 ./L2_Drivers/src/rtc.o
 .comment       0x00000000       0x12 ./L2_Drivers/src/spi1.o
 .comment       0x00000000       0x12 ./L2_Drivers/src/spi_dma.o
 .comment       0x00000000       0x12 ./L2_Drivers/src/uart0.o
 .comment       0x00000000       0x12 ./L2_Drivers/src/uart2.o
 .comment       0x00000000       0x12 ./L2_Drivers/src/uart3.o
 .comment       0x00000000       0x12 ./L2_Drivers/src/uart_base.o
 .comment       0x00000000       0x12 ./L2_Drivers/src/uart_iface.o
 .comment       0x00000000       0x12 ./L1_FreeRTOS/src/croutine.o
 .comment       0x00000000       0x12 ./L1_FreeRTOS/src/list.o
 .comment       0x00000000       0x12 ./L1_FreeRTOS/src/queue.o
 .comment       0x00000000       0x12 ./L1_FreeRTOS/src/tasks.o
 .comment       0x00000000       0x12 ./L1_FreeRTOS/src/tasks.inc.o
 .comment       0x00000000       0x12 ./L1_FreeRTOS/src/timers.o
 .comment       0x00000000       0x12 ./L1_FreeRTOS/portable/port.o
 .comment       0x00000000       0x12 ./L1_FreeRTOS/hooks/hooks.o
 .comment       0x00000000       0x12 ./L1_FreeRTOS/MemMang/heap_3.o
 .comment       0x00000000       0x12 ./L0_LowLevel/source/core_cm3.o
 .comment       0x00000000       0x12 ./L0_LowLevel/source/cr_startup_lpc175x.o
 .comment       0x00000000       0x12 ./L0_LowLevel/source/sys_clock.o
 .comment       0x00000000       0x12 ./L0_LowLevel/source/system_init.o
 .comment       0x00000000       0x12 ./L0_LowLevel/source/uart0_min.o
 .comment       0x00000000       0x12 c:/users/montoya/documents/classes/cmpe146/lab/cmpe146package_lpc1758/yagarto/bin/../lib/gcc/arm-none-eabi/4.6.2/../../../../arm-none-eabi/lib/thumb/v7m\libstdc++.a(guard.o)
 .comment       0x00000000       0x12 c:/users/montoya/documents/classes/cmpe146/lab/cmpe146package_lpc1758/yagarto/bin/../lib/gcc/arm-none-eabi/4.6.2/../../../../arm-none-eabi/lib/thumb/v7m\libstdc++.a(guard_error.o)
 .comment       0x00000000       0x12 c:/users/montoya/documents/classes/cmpe146/lab/cmpe146package_lpc1758/yagarto/bin/../lib/gcc/arm-none-eabi/4.6.2/../../../../arm-none-eabi/lib/thumb/v7m\libstdc++.a(pure.o)
 .comment       0x00000000       0x12 c:/users/montoya/documents/classes/cmpe146/lab/cmpe146package_lpc1758/yagarto/bin/../lib/gcc/arm-none-eabi/4.6.2/../../../../arm-none-eabi/lib/thumb/v7m\libstdc++.a(si_class_type_info.o)
 .comment       0x00000000       0x12 c:/users/montoya/documents/classes/cmpe146/lab/cmpe146package_lpc1758/yagarto/bin/../lib/gcc/arm-none-eabi/4.6.2/../../../../arm-none-eabi/lib/thumb/v7m\libstdc++.a(tinfo.o)
 .comment       0x00000000       0x12 c:/users/montoya/documents/classes/cmpe146/lab/cmpe146package_lpc1758/yagarto/bin/../lib/gcc/arm-none-eabi/4.6.2/../../../../arm-none-eabi/lib/thumb/v7m\libstdc++.a(class_type_info.o)
 .comment       0x00000000       0x12 c:/users/montoya/documents/classes/cmpe146/lab/cmpe146package_lpc1758/yagarto/bin/../lib/gcc/arm-none-eabi/4.6.2/../../../../arm-none-eabi/lib/thumb/v7m\libstdc++.a(eh_alloc.o)
 .comment       0x00000000       0x12 c:/users/montoya/documents/classes/cmpe146/lab/cmpe146package_lpc1758/yagarto/bin/../lib/gcc/arm-none-eabi/4.6.2/../../../../arm-none-eabi/lib/thumb/v7m\libstdc++.a(eh_exception.o)
 .comment       0x00000000       0x12 c:/users/montoya/documents/classes/cmpe146/lab/cmpe146package_lpc1758/yagarto/bin/../lib/gcc/arm-none-eabi/4.6.2/../../../../arm-none-eabi/lib/thumb/v7m\libstdc++.a(eh_globals.o)
 .comment       0x00000000       0x12 c:/users/montoya/documents/classes/cmpe146/lab/cmpe146package_lpc1758/yagarto/bin/../lib/gcc/arm-none-eabi/4.6.2/../../../../arm-none-eabi/lib/thumb/v7m\libstdc++.a(eh_terminate.o)
 .comment       0x00000000       0x12 c:/users/montoya/documents/classes/cmpe146/lab/cmpe146package_lpc1758/yagarto/bin/../lib/gcc/arm-none-eabi/4.6.2/../../../../arm-none-eabi/lib/thumb/v7m\libstdc++.a(eh_term_handler.o)
 .comment       0x00000000       0x12 c:/users/montoya/documents/classes/cmpe146/lab/cmpe146package_lpc1758/yagarto/bin/../lib/gcc/arm-none-eabi/4.6.2/../../../../arm-none-eabi/lib/thumb/v7m\libstdc++.a(eh_throw.o)
 .comment       0x00000000       0x12 c:/users/montoya/documents/classes/cmpe146/lab/cmpe146package_lpc1758/yagarto/bin/../lib/gcc/arm-none-eabi/4.6.2/../../../../arm-none-eabi/lib/thumb/v7m\libstdc++.a(eh_unex_handler.o)
 .comment       0x00000000       0x12 c:/users/montoya/documents/classes/cmpe146/lab/cmpe146package_lpc1758/yagarto/bin/../lib/gcc/arm-none-eabi/4.6.2/../../../../arm-none-eabi/lib/thumb/v7m\libstdc++.a(eh_arm.o)
 .comment       0x00000000       0x12 c:/users/montoya/documents/classes/cmpe146/lab/cmpe146package_lpc1758/yagarto/bin/../lib/gcc/arm-none-eabi/4.6.2/../../../../arm-none-eabi/lib/thumb/v7m\libstdc++.a(eh_aux_runtime.o)
 .comment       0x00000000       0x12 c:/users/montoya/documents/classes/cmpe146/lab/cmpe146package_lpc1758/yagarto/bin/../lib/gcc/arm-none-eabi/4.6.2/../../../../arm-none-eabi/lib/thumb/v7m\libstdc++.a(eh_call.o)
 .comment       0x00000000       0x12 c:/users/montoya/documents/classes/cmpe146/lab/cmpe146package_lpc1758/yagarto/bin/../lib/gcc/arm-none-eabi/4.6.2/../../../../arm-none-eabi/lib/thumb/v7m\libstdc++.a(eh_catch.o)
 .comment       0x00000000       0x12 c:/users/montoya/documents/classes/cmpe146/lab/cmpe146package_lpc1758/yagarto/bin/../lib/gcc/arm-none-eabi/4.6.2/../../../../arm-none-eabi/lib/thumb/v7m\libstdc++.a(eh_personality.o)
 .comment       0x00000000       0x12 c:/users/montoya/documents/classes/cmpe146/lab/cmpe146package_lpc1758/yagarto/bin/../lib/gcc/arm-none-eabi/4.6.2/../../../../arm-none-eabi/lib/thumb/v7m\libstdc++.a(fundamental_type_info.o)
 .comment       0x00000000       0x12 c:/users/montoya/documents/classes/cmpe146/lab/cmpe146package_lpc1758/yagarto/bin/../lib/gcc/arm-none-eabi/4.6.2/../../../../arm-none-eabi/lib/thumb/v7m\libstdc++.a(pointer_type_info.o)
 .comment       0x00000000       0x12 c:/users/montoya/documents/classes/cmpe146/lab/cmpe146package_lpc1758/yagarto/bin/../lib/gcc/arm-none-eabi/4.6.2/../../../../arm-none-eabi/lib/thumb/v7m\libstdc++.a(bad_cast.o)
 .comment       0x00000000       0x12 c:/users/montoya/documents/classes/cmpe146/lab/cmpe146package_lpc1758/yagarto/bin/../lib/gcc/arm-none-eabi/4.6.2/../../../../arm-none-eabi/lib/thumb/v7m\libstdc++.a(bad_typeid.o)
 .comment       0x00000000       0x12 c:/users/montoya/documents/classes/cmpe146/lab/cmpe146package_lpc1758/yagarto/bin/../lib/gcc/arm-none-eabi/4.6.2/../../../../arm-none-eabi/lib/thumb/v7m\libstdc++.a(pbase_type_info.o)
 .comment       0x00000000       0x12 c:/users/montoya/documents/classes/cmpe146/lab/cmpe146package_lpc1758/yagarto/bin/../lib/gcc/arm-none-eabi/4.6.2/thumb/v7m\libgcc.a(unwind-arm.o)
 .comment       0x00000000       0x12 c:/users/montoya/documents/classes/cmpe146/lab/cmpe146package_lpc1758/yagarto/bin/../lib/gcc/arm-none-eabi/4.6.2/thumb/v7m\libgcc.a(pr-support.o)
 .comment       0x00000000       0x12 c:/users/montoya/documents/classes/cmpe146/lab/cmpe146package_lpc1758/yagarto/bin/../lib/gcc/arm-none-eabi/4.6.2/../../../../arm-none-eabi/lib/thumb/v7m\libc.a(lib_a-abort.o)
 .comment       0x00000000       0x12 c:/users/montoya/documents/classes/cmpe146/lab/cmpe146package_lpc1758/yagarto/bin/../lib/gcc/arm-none-eabi/4.6.2/../../../../arm-none-eabi/lib/thumb/v7m\libc.a(lib_a-assert.o)
 .comment       0x00000000       0x12 c:/users/montoya/documents/classes/cmpe146/lab/cmpe146package_lpc1758/yagarto/bin/../lib/gcc/arm-none-eabi/4.6.2/../../../../arm-none-eabi/lib/thumb/v7m\libc.a(lib_a-atoi.o)
 .comment       0x00000000       0x12 c:/users/montoya/documents/classes/cmpe146/lab/cmpe146package_lpc1758/yagarto/bin/../lib/gcc/arm-none-eabi/4.6.2/../../../../arm-none-eabi/lib/thumb/v7m\libc.a(lib_a-fiprintf.o)
 .comment       0x00000000       0x12 c:/users/montoya/documents/classes/cmpe146/lab/cmpe146package_lpc1758/yagarto/bin/../lib/gcc/arm-none-eabi/4.6.2/../../../../arm-none-eabi/lib/thumb/v7m\libc.a(lib_a-impure.o)
 .comment       0x00000000       0x12 c:/users/montoya/documents/classes/cmpe146/lab/cmpe146package_lpc1758/yagarto/bin/../lib/gcc/arm-none-eabi/4.6.2/../../../../arm-none-eabi/lib/thumb/v7m\libc.a(lib_a-init.o)
 .comment       0x00000000       0x12 c:/users/montoya/documents/classes/cmpe146/lab/cmpe146package_lpc1758/yagarto/bin/../lib/gcc/arm-none-eabi/4.6.2/../../../../arm-none-eabi/lib/thumb/v7m\libc.a(lib_a-isalnum.o)
 .comment       0x00000000       0x12 c:/users/montoya/documents/classes/cmpe146/lab/cmpe146package_lpc1758/yagarto/bin/../lib/gcc/arm-none-eabi/4.6.2/../../../../arm-none-eabi/lib/thumb/v7m\libc.a(lib_a-isalpha.o)
 .comment       0x00000000       0x12 c:/users/montoya/documents/classes/cmpe146/lab/cmpe146package_lpc1758/yagarto/bin/../lib/gcc/arm-none-eabi/4.6.2/../../../../arm-none-eabi/lib/thumb/v7m\libc.a(lib_a-malloc.o)
 .comment       0x00000000       0x12 c:/users/montoya/documents/classes/cmpe146/lab/cmpe146package_lpc1758/yagarto/bin/../lib/gcc/arm-none-eabi/4.6.2/../../../../arm-none-eabi/lib/thumb/v7m\libc.a(lib_a-mallocr.o)
 .comment       0x00000000       0x12 c:/users/montoya/documents/classes/cmpe146/lab/cmpe146package_lpc1758/yagarto/bin/../lib/gcc/arm-none-eabi/4.6.2/../../../../arm-none-eabi/lib/thumb/v7m\libc.a(lib_a-memcmp.o)
 .comment       0x00000000       0x12 c:/users/montoya/documents/classes/cmpe146/lab/cmpe146package_lpc1758/yagarto/bin/../lib/gcc/arm-none-eabi/4.6.2/../../../../arm-none-eabi/lib/thumb/v7m\libc.a(lib_a-memcpy.o)
 .comment       0x00000000       0x12 c:/users/montoya/documents/classes/cmpe146/lab/cmpe146package_lpc1758/yagarto/bin/../lib/gcc/arm-none-eabi/4.6.2/../../../../arm-none-eabi/lib/thumb/v7m\libc.a(lib_a-memmove.o)
 .comment       0x00000000       0x12 c:/users/montoya/documents/classes/cmpe146/lab/cmpe146package_lpc1758/yagarto/bin/../lib/gcc/arm-none-eabi/4.6.2/../../../../arm-none-eabi/lib/thumb/v7m\libc.a(lib_a-memset.o)
 .comment       0x00000000       0x12 c:/users/montoya/documents/classes/cmpe146/lab/cmpe146package_lpc1758/yagarto/bin/../lib/gcc/arm-none-eabi/4.6.2/../../../../arm-none-eabi/lib/thumb/v7m\libc.a(lib_a-mlock.o)
 .comment       0x00000000       0x12 c:/users/montoya/documents/classes/cmpe146/lab/cmpe146package_lpc1758/yagarto/bin/../lib/gcc/arm-none-eabi/4.6.2/../../../../arm-none-eabi/lib/thumb/v7m\libc.a(lib_a-mstats.o)
 .comment       0x00000000       0x12 c:/users/montoya/documents/classes/cmpe146/lab/cmpe146package_lpc1758/yagarto/bin/../lib/gcc/arm-none-eabi/4.6.2/../../../../arm-none-eabi/lib/thumb/v7m\libc.a(lib_a-puts.o)
 .comment       0x00000000       0x12 c:/users/montoya/documents/classes/cmpe146/lab/cmpe146package_lpc1758/yagarto/bin/../lib/gcc/arm-none-eabi/4.6.2/../../../../arm-none-eabi/lib/thumb/v7m\libc.a(lib_a-realloc.o)
 .comment       0x00000000       0x12 c:/users/montoya/documents/classes/cmpe146/lab/cmpe146package_lpc1758/yagarto/bin/../lib/gcc/arm-none-eabi/4.6.2/../../../../arm-none-eabi/lib/thumb/v7m\libc.a(lib_a-reallocr.o)
 .comment       0x00000000       0x12 c:/users/montoya/documents/classes/cmpe146/lab/cmpe146package_lpc1758/yagarto/bin/../lib/gcc/arm-none-eabi/4.6.2/../../../../arm-none-eabi/lib/thumb/v7m\libc.a(lib_a-sbrkr.o)
 .comment       0x00000000       0x12 c:/users/montoya/documents/classes/cmpe146/lab/cmpe146package_lpc1758/yagarto/bin/../lib/gcc/arm-none-eabi/4.6.2/../../../../arm-none-eabi/lib/thumb/v7m\libc.a(lib_a-setvbuf.o)
 .comment       0x00000000       0x12 c:/users/montoya/documents/classes/cmpe146/lab/cmpe146package_lpc1758/yagarto/bin/../lib/gcc/arm-none-eabi/4.6.2/../../../../arm-none-eabi/lib/thumb/v7m\libc.a(lib_a-signal.o)
 .comment       0x00000000       0x12 c:/users/montoya/documents/classes/cmpe146/lab/cmpe146package_lpc1758/yagarto/bin/../lib/gcc/arm-none-eabi/4.6.2/../../../../arm-none-eabi/lib/thumb/v7m\libc.a(lib_a-signalr.o)
 .comment       0x00000000       0x12 c:/users/montoya/documents/classes/cmpe146/lab/cmpe146package_lpc1758/yagarto/bin/../lib/gcc/arm-none-eabi/4.6.2/../../../../arm-none-eabi/lib/thumb/v7m\libc.a(lib_a-siprintf.o)
 .comment       0x00000000       0x12 c:/users/montoya/documents/classes/cmpe146/lab/cmpe146package_lpc1758/yagarto/bin/../lib/gcc/arm-none-eabi/4.6.2/../../../../arm-none-eabi/lib/thumb/v7m\libc.a(lib_a-strcasecmp.o)
 .comment       0x00000000       0x12 c:/users/montoya/documents/classes/cmpe146/lab/cmpe146package_lpc1758/yagarto/bin/../lib/gcc/arm-none-eabi/4.6.2/../../../../arm-none-eabi/lib/thumb/v7m\libc.a(lib_a-strcat.o)
 .comment       0x00000000       0x12 c:/users/montoya/documents/classes/cmpe146/lab/cmpe146package_lpc1758/yagarto/bin/../lib/gcc/arm-none-eabi/4.6.2/../../../../arm-none-eabi/lib/thumb/v7m\libc.a(lib_a-strchr.o)
 .comment       0x00000000       0x12 c:/users/montoya/documents/classes/cmpe146/lab/cmpe146package_lpc1758/yagarto/bin/../lib/gcc/arm-none-eabi/4.6.2/../../../../arm-none-eabi/lib/thumb/v7m\libc.a(lib_a-strcmp.o)
 .comment       0x00000000       0x12 c:/users/montoya/documents/classes/cmpe146/lab/cmpe146package_lpc1758/yagarto/bin/../lib/gcc/arm-none-eabi/4.6.2/../../../../arm-none-eabi/lib/thumb/v7m\libc.a(lib_a-strcpy.o)
 .comment       0x00000000       0x12 c:/users/montoya/documents/classes/cmpe146/lab/cmpe146package_lpc1758/yagarto/bin/../lib/gcc/arm-none-eabi/4.6.2/../../../../arm-none-eabi/lib/thumb/v7m\libc.a(lib_a-strlen.o)
 .comment       0x00000000       0x12 c:/users/montoya/documents/classes/cmpe146/lab/cmpe146package_lpc1758/yagarto/bin/../lib/gcc/arm-none-eabi/4.6.2/../../../../arm-none-eabi/lib/thumb/v7m\libc.a(lib_a-strncasecmp.o)
 .comment       0x00000000       0x12 c:/users/montoya/documents/classes/cmpe146/lab/cmpe146package_lpc1758/yagarto/bin/../lib/gcc/arm-none-eabi/4.6.2/../../../../arm-none-eabi/lib/thumb/v7m\libc.a(lib_a-strncmp.o)
 .comment       0x00000000       0x12 c:/users/montoya/documents/classes/cmpe146/lab/cmpe146package_lpc1758/yagarto/bin/../lib/gcc/arm-none-eabi/4.6.2/../../../../arm-none-eabi/lib/thumb/v7m\libc.a(lib_a-strncpy.o)
 .comment       0x00000000       0x12 c:/users/montoya/documents/classes/cmpe146/lab/cmpe146package_lpc1758/yagarto/bin/../lib/gcc/arm-none-eabi/4.6.2/../../../../arm-none-eabi/lib/thumb/v7m\libc.a(lib_a-strpbrk.o)
 .comment       0x00000000       0x12 c:/users/montoya/documents/classes/cmpe146/lab/cmpe146package_lpc1758/yagarto/bin/../lib/gcc/arm-none-eabi/4.6.2/../../../../arm-none-eabi/lib/thumb/v7m\libc.a(lib_a-strrchr.o)
 .comment       0x00000000       0x12 c:/users/montoya/documents/classes/cmpe146/lab/cmpe146package_lpc1758/yagarto/bin/../lib/gcc/arm-none-eabi/4.6.2/../../../../arm-none-eabi/lib/thumb/v7m\libc.a(lib_a-strstr.o)
 .comment       0x00000000       0x12 c:/users/montoya/documents/classes/cmpe146/lab/cmpe146package_lpc1758/yagarto/bin/../lib/gcc/arm-none-eabi/4.6.2/../../../../arm-none-eabi/lib/thumb/v7m\libc.a(lib_a-strtol.o)
 .comment       0x00000000       0x12 c:/users/montoya/documents/classes/cmpe146/lab/cmpe146package_lpc1758/yagarto/bin/../lib/gcc/arm-none-eabi/4.6.2/../../../../arm-none-eabi/lib/thumb/v7m\libc.a(lib_a-svfiprintf.o)
 .comment       0x00000000       0x12 c:/users/montoya/documents/classes/cmpe146/lab/cmpe146package_lpc1758/yagarto/bin/../lib/gcc/arm-none-eabi/4.6.2/../../../../arm-none-eabi/lib/thumb/v7m\libc.a(lib_a-syswrite.o)
 .comment       0x00000000       0x12 c:/users/montoya/documents/classes/cmpe146/lab/cmpe146package_lpc1758/yagarto/bin/../lib/gcc/arm-none-eabi/4.6.2/../../../../arm-none-eabi/lib/thumb/v7m\libc.a(lib_a-tolower.o)
 .comment       0x00000000       0x12 c:/users/montoya/documents/classes/cmpe146/lab/cmpe146package_lpc1758/yagarto/bin/../lib/gcc/arm-none-eabi/4.6.2/../../../../arm-none-eabi/lib/thumb/v7m\libc.a(lib_a-toupper.o)
 .comment       0x00000000       0x12 c:/users/montoya/documents/classes/cmpe146/lab/cmpe146package_lpc1758/yagarto/bin/../lib/gcc/arm-none-eabi/4.6.2/../../../../arm-none-eabi/lib/thumb/v7m\libc.a(lib_a-vfiprintf.o)
 .comment       0x00000000       0x12 c:/users/montoya/documents/classes/cmpe146/lab/cmpe146package_lpc1758/yagarto/bin/../lib/gcc/arm-none-eabi/4.6.2/../../../../arm-none-eabi/lib/thumb/v7m\libc.a(lib_a-viprintf.o)
 .comment       0x00000000       0x12 c:/users/montoya/documents/classes/cmpe146/lab/cmpe146package_lpc1758/yagarto/bin/../lib/gcc/arm-none-eabi/4.6.2/../../../../arm-none-eabi/lib/thumb/v7m\libc.a(lib_a-vsiprintf.o)
 .comment       0x00000000       0x12 c:/users/montoya/documents/classes/cmpe146/lab/cmpe146package_lpc1758/yagarto/bin/../lib/gcc/arm-none-eabi/4.6.2/../../../../arm-none-eabi/lib/thumb/v7m\libc.a(lib_a-vsiscanf.o)
 .comment       0x00000000       0x12 c:/users/montoya/documents/classes/cmpe146/lab/cmpe146package_lpc1758/yagarto/bin/../lib/gcc/arm-none-eabi/4.6.2/../../../../arm-none-eabi/lib/thumb/v7m\libc.a(lib_a-vsniprintf.o)
 .comment       0x00000000       0x12 c:/users/montoya/documents/classes/cmpe146/lab/cmpe146package_lpc1758/yagarto/bin/../lib/gcc/arm-none-eabi/4.6.2/../../../../arm-none-eabi/lib/thumb/v7m\libc.a(lib_a-vsnprintf.o)
 .comment       0x00000000       0x12 c:/users/montoya/documents/classes/cmpe146/lab/cmpe146package_lpc1758/yagarto/bin/../lib/gcc/arm-none-eabi/4.6.2/../../../../arm-none-eabi/lib/thumb/v7m\libc.a(lib_a-wbuf.o)
 .comment       0x00000000       0x12 c:/users/montoya/documents/classes/cmpe146/lab/cmpe146package_lpc1758/yagarto/bin/../lib/gcc/arm-none-eabi/4.6.2/../../../../arm-none-eabi/lib/thumb/v7m\libc.a(lib_a-writer.o)
 .comment       0x00000000       0x12 c:/users/montoya/documents/classes/cmpe146/lab/cmpe146package_lpc1758/yagarto/bin/../lib/gcc/arm-none-eabi/4.6.2/../../../../arm-none-eabi/lib/thumb/v7m\libc.a(lib_a-wsetup.o)
 .comment       0x00000000       0x12 c:/users/montoya/documents/classes/cmpe146/lab/cmpe146package_lpc1758/yagarto/bin/../lib/gcc/arm-none-eabi/4.6.2/../../../../arm-none-eabi/lib/thumb/v7m\libc.a(lib_a-ctype_.o)
 .comment       0x00000000       0x12 c:/users/montoya/documents/classes/cmpe146/lab/cmpe146package_lpc1758/yagarto/bin/../lib/gcc/arm-none-eabi/4.6.2/../../../../arm-none-eabi/lib/thumb/v7m\libc.a(lib_a-fflush.o)
 .comment       0x00000000       0x12 c:/users/montoya/documents/classes/cmpe146/lab/cmpe146package_lpc1758/yagarto/bin/../lib/gcc/arm-none-eabi/4.6.2/../../../../arm-none-eabi/lib/thumb/v7m\libc.a(lib_a-findfp.o)
 .comment       0x00000000       0x12 c:/users/montoya/documents/classes/cmpe146/lab/cmpe146package_lpc1758/yagarto/bin/../lib/gcc/arm-none-eabi/4.6.2/../../../../arm-none-eabi/lib/thumb/v7m\libc.a(lib_a-fputwc.o)
 .comment       0x00000000       0x12 c:/users/montoya/documents/classes/cmpe146/lab/cmpe146package_lpc1758/yagarto/bin/../lib/gcc/arm-none-eabi/4.6.2/../../../../arm-none-eabi/lib/thumb/v7m\libc.a(lib_a-freer.o)
 .comment       0x00000000       0x12 c:/users/montoya/documents/classes/cmpe146/lab/cmpe146package_lpc1758/yagarto/bin/../lib/gcc/arm-none-eabi/4.6.2/../../../../arm-none-eabi/lib/thumb/v7m\libc.a(lib_a-fvwrite.o)
 .comment       0x00000000       0x12 c:/users/montoya/documents/classes/cmpe146/lab/cmpe146package_lpc1758/yagarto/bin/../lib/gcc/arm-none-eabi/4.6.2/../../../../arm-none-eabi/lib/thumb/v7m\libc.a(lib_a-fwalk.o)
 .comment       0x00000000       0x12 c:/users/montoya/documents/classes/cmpe146/lab/cmpe146package_lpc1758/yagarto/bin/../lib/gcc/arm-none-eabi/4.6.2/../../../../arm-none-eabi/lib/thumb/v7m\libc.a(lib_a-locale.o)
 .comment       0x00000000       0x12 c:/users/montoya/documents/classes/cmpe146/lab/cmpe146package_lpc1758/yagarto/bin/../lib/gcc/arm-none-eabi/4.6.2/../../../../arm-none-eabi/lib/thumb/v7m\libc.a(lib_a-makebuf.o)
 .comment       0x00000000       0x12 c:/users/montoya/documents/classes/cmpe146/lab/cmpe146package_lpc1758/yagarto/bin/../lib/gcc/arm-none-eabi/4.6.2/../../../../arm-none-eabi/lib/thumb/v7m\libc.a(lib_a-mallinfor.o)
 .comment       0x00000000       0x12 c:/users/montoya/documents/classes/cmpe146/lab/cmpe146package_lpc1758/yagarto/bin/../lib/gcc/arm-none-eabi/4.6.2/../../../../arm-none-eabi/lib/thumb/v7m\libc.a(lib_a-malloptr.o)
 .comment       0x00000000       0x12 c:/users/montoya/documents/classes/cmpe146/lab/cmpe146package_lpc1758/yagarto/bin/../lib/gcc/arm-none-eabi/4.6.2/../../../../arm-none-eabi/lib/thumb/v7m\libc.a(lib_a-mallstatsr.o)
 .comment       0x00000000       0x12 c:/users/montoya/documents/classes/cmpe146/lab/cmpe146package_lpc1758/yagarto/bin/../lib/gcc/arm-none-eabi/4.6.2/../../../../arm-none-eabi/lib/thumb/v7m\libc.a(lib_a-memchr.o)
 .comment       0x00000000       0x12 c:/users/montoya/documents/classes/cmpe146/lab/cmpe146package_lpc1758/yagarto/bin/../lib/gcc/arm-none-eabi/4.6.2/../../../../arm-none-eabi/lib/thumb/v7m\libc.a(lib_a-reent.o)
 .comment       0x00000000       0x12 c:/users/montoya/documents/classes/cmpe146/lab/cmpe146package_lpc1758/yagarto/bin/../lib/gcc/arm-none-eabi/4.6.2/../../../../arm-none-eabi/lib/thumb/v7m\libc.a(lib_a-stdio.o)
 .comment       0x00000000       0x12 c:/users/montoya/documents/classes/cmpe146/lab/cmpe146package_lpc1758/yagarto/bin/../lib/gcc/arm-none-eabi/4.6.2/../../../../arm-none-eabi/lib/thumb/v7m\libc.a(lib_a-svfiscanf.o)
 .comment       0x00000000       0x12 c:/users/montoya/documents/classes/cmpe146/lab/cmpe146package_lpc1758/yagarto/bin/../lib/gcc/arm-none-eabi/4.6.2/../../../../arm-none-eabi/lib/thumb/v7m\libc.a(lib_a-svfprintf.o)
 .comment       0x00000000       0x12 c:/users/montoya/documents/classes/cmpe146/lab/cmpe146package_lpc1758/yagarto/bin/../lib/gcc/arm-none-eabi/4.6.2/../../../../arm-none-eabi/lib/thumb/v7m\libc.a(lib_a-ungetc.o)
 .comment       0x00000000       0x12 c:/users/montoya/documents/classes/cmpe146/lab/cmpe146package_lpc1758/yagarto/bin/../lib/gcc/arm-none-eabi/4.6.2/../../../../arm-none-eabi/lib/thumb/v7m\libc.a(lib_a-wcrtomb.o)
 .comment       0x00000000       0x12 c:/users/montoya/documents/classes/cmpe146/lab/cmpe146package_lpc1758/yagarto/bin/../lib/gcc/arm-none-eabi/4.6.2/../../../../arm-none-eabi/lib/thumb/v7m\libc.a(lib_a-wctomb_r.o)
 .comment       0x00000000       0x12 c:/users/montoya/documents/classes/cmpe146/lab/cmpe146package_lpc1758/yagarto/bin/../lib/gcc/arm-none-eabi/4.6.2/../../../../arm-none-eabi/lib/thumb/v7m\libc.a(lib_a-closer.o)
 .comment       0x00000000       0x12 c:/users/montoya/documents/classes/cmpe146/lab/cmpe146package_lpc1758/yagarto/bin/../lib/gcc/arm-none-eabi/4.6.2/../../../../arm-none-eabi/lib/thumb/v7m\libc.a(lib_a-dtoa.o)
 .comment       0x00000000       0x12 c:/users/montoya/documents/classes/cmpe146/lab/cmpe146package_lpc1758/yagarto/bin/../lib/gcc/arm-none-eabi/4.6.2/../../../../arm-none-eabi/lib/thumb/v7m\libc.a(lib_a-fclose.o)
 .comment       0x00000000       0x12 c:/users/montoya/documents/classes/cmpe146/lab/cmpe146package_lpc1758/yagarto/bin/../lib/gcc/arm-none-eabi/4.6.2/../../../../arm-none-eabi/lib/thumb/v7m\libc.a(lib_a-fstatr.o)
 .comment       0x00000000       0x12 c:/users/montoya/documents/classes/cmpe146/lab/cmpe146package_lpc1758/yagarto/bin/../lib/gcc/arm-none-eabi/4.6.2/../../../../arm-none-eabi/lib/thumb/v7m\libc.a(lib_a-isattyr.o)
 .comment       0x00000000       0x12 c:/users/montoya/documents/classes/cmpe146/lab/cmpe146package_lpc1758/yagarto/bin/../lib/gcc/arm-none-eabi/4.6.2/../../../../arm-none-eabi/lib/thumb/v7m\libc.a(lib_a-iswspace.o)
 .comment       0x00000000       0x12 c:/users/montoya/documents/classes/cmpe146/lab/cmpe146package_lpc1758/yagarto/bin/../lib/gcc/arm-none-eabi/4.6.2/../../../../arm-none-eabi/lib/thumb/v7m\libc.a(lib_a-lseekr.o)
 .comment       0x00000000       0x12 c:/users/montoya/documents/classes/cmpe146/lab/cmpe146package_lpc1758/yagarto/bin/../lib/gcc/arm-none-eabi/4.6.2/../../../../arm-none-eabi/lib/thumb/v7m\libc.a(lib_a-mbrtowc.o)
 .comment       0x00000000       0x12 c:/users/montoya/documents/classes/cmpe146/lab/cmpe146package_lpc1758/yagarto/bin/../lib/gcc/arm-none-eabi/4.6.2/../../../../arm-none-eabi/lib/thumb/v7m\libc.a(lib_a-mbtowc_r.o)
 .comment       0x00000000       0x12 c:/users/montoya/documents/classes/cmpe146/lab/cmpe146package_lpc1758/yagarto/bin/../lib/gcc/arm-none-eabi/4.6.2/../../../../arm-none-eabi/lib/thumb/v7m\libc.a(lib_a-mprec.o)
 .comment       0x00000000       0x12 c:/users/montoya/documents/classes/cmpe146/lab/cmpe146package_lpc1758/yagarto/bin/../lib/gcc/arm-none-eabi/4.6.2/../../../../arm-none-eabi/lib/thumb/v7m\libc.a(lib_a-readr.o)
 .comment       0x00000000       0x12 c:/users/montoya/documents/classes/cmpe146/lab/cmpe146package_lpc1758/yagarto/bin/../lib/gcc/arm-none-eabi/4.6.2/../../../../arm-none-eabi/lib/thumb/v7m\libc.a(lib_a-s_fpclassify.o)
 .comment       0x00000000       0x12 c:/users/montoya/documents/classes/cmpe146/lab/cmpe146package_lpc1758/yagarto/bin/../lib/gcc/arm-none-eabi/4.6.2/../../../../arm-none-eabi/lib/thumb/v7m\libc.a(lib_a-sccl.o)
 .comment       0x00000000       0x12 c:/users/montoya/documents/classes/cmpe146/lab/cmpe146package_lpc1758/yagarto/bin/../lib/gcc/arm-none-eabi/4.6.2/../../../../arm-none-eabi/lib/thumb/v7m\libc.a(lib_a-strtoul.o)
 .comment       0x00000000       0x12 c:/users/montoya/documents/classes/cmpe146/lab/cmpe146package_lpc1758/yagarto/bin/../lib/gcc/arm-none-eabi/4.6.2/../../../../arm-none-eabi/lib/thumb/v7m\libc.a(lib_a-callocr.o)

.ARM.attributes
                0x00000000       0x31
 .ARM.attributes
                0x00000000       0x31 ./newlib/memory.o
 .ARM.attributes
                0x00000031       0x31 ./newlib/printf_lib.o
 .ARM.attributes
                0x00000062       0x31 ./newlib/syscalls.o
 .ARM.attributes
                0x00000093       0x31 ./L5_Application/source/handlers.o
 .ARM.attributes
                0x000000c4       0x31 ./L5_Application/source/high_level_init.o
 .ARM.attributes
                0x000000f5       0x31 ./L5_Application/source/misc.o
 .ARM.attributes
                0x00000126       0x31 ./L5_Application/source/tasks.o
 .ARM.attributes
                0x00000157       0x31 ./L5_Application/ServoMotors/servoMotor.o
 .ARM.attributes
                0x00000188       0x31 ./L5_Application/MatrixDisplay/matrixDisplay.o
 .ARM.attributes
                0x000001b9       0x31 ./L5_Application/LightSensors/lightSensors.o
 .ARM.attributes
                0x000001ea       0x31 ./L5_Application/main.o
 .ARM.attributes
                0x0000021b       0x31 ./L4_IO/src/io_source.o
 .ARM.attributes
                0x0000024c       0x31 ./L4_IO/src/storage.o
 .ARM.attributes
                0x0000027d       0x31 ./L4_IO/fat/option/ccsbcs.o
 .ARM.attributes
                0x000002ae       0x31 ./L4_IO/fat/option/reentrant.o
 .ARM.attributes
                0x000002df       0x31 ./L4_IO/fat/disk/diskio.o
 .ARM.attributes
                0x00000310       0x31 ./L4_IO/fat/disk/sd.o
 .ARM.attributes
                0x00000341       0x31 ./L4_IO/fat/disk/spi_flash.o
 .ARM.attributes
                0x00000372       0x31 ./L4_IO/fat/fatfs_time.o
 .ARM.attributes
                0x000003a3       0x31 ./L4_IO/fat/ff.o
 .ARM.attributes
                0x000003d4       0x31 ./L3_Utils/tlm/src/c_list.o
 .ARM.attributes
                0x00000405       0x31 ./L3_Utils/tlm/src/c_tlm_binary.o
 .ARM.attributes
                0x00000436       0x31 ./L3_Utils/tlm/src/c_tlm_comp.o
 .ARM.attributes
                0x00000467       0x31 ./L3_Utils/tlm/src/c_tlm_stream.o
 .ARM.attributes
                0x00000498       0x31 ./L3_Utils/tlm/src/c_tlm_var.o
 .ARM.attributes
                0x000004c9       0x31 ./L3_Utils/src/command_handler.o
 .ARM.attributes
                0x000004fa       0x31 ./L3_Utils/src/cpp_task.o
 .ARM.attributes
                0x0000052b       0x31 ./L3_Utils/src/file_logger.o
 .ARM.attributes
                0x0000055c       0x31 ./L3_Utils/src/freertos_timer.o
 .ARM.attributes
                0x0000058d       0x31 ./L3_Utils/src/logger.o
 .ARM.attributes
                0x000005be       0x31 ./L3_Utils/src/rit_isr.o
 .ARM.attributes
                0x000005ef       0x31 ./L3_Utils/src/rtc_alarm.o
 .ARM.attributes
                0x00000620       0x31 ./L3_Utils/src/str.o
 .ARM.attributes
                0x00000651       0x31 ./L3_Utils/src/utilities.o
 .ARM.attributes
                0x00000682       0x31 ./L2_Drivers/src/i2c2.o
 .ARM.attributes
                0x000006b3       0x31 ./L2_Drivers/src/i2c_base.o
 .ARM.attributes
                0x000006e4       0x31 ./L2_Drivers/src/pwm.o
 .ARM.attributes
                0x00000715       0x31 ./L2_Drivers/src/rtc.o
 .ARM.attributes
                0x00000746       0x31 ./L2_Drivers/src/spi1.o
 .ARM.attributes
                0x00000777       0x31 ./L2_Drivers/src/spi_dma.o
 .ARM.attributes
                0x000007a8       0x31 ./L2_Drivers/src/uart0.o
 .ARM.attributes
                0x000007d9       0x31 ./L2_Drivers/src/uart2.o
 .ARM.attributes
                0x0000080a       0x31 ./L2_Drivers/src/uart3.o
 .ARM.attributes
                0x0000083b       0x31 ./L2_Drivers/src/uart_base.o
 .ARM.attributes
                0x0000086c       0x31 ./L2_Drivers/src/uart_iface.o
 .ARM.attributes
                0x0000089d       0x31 ./L1_FreeRTOS/src/croutine.o
 .ARM.attributes
                0x000008ce       0x31 ./L1_FreeRTOS/src/list.o
 .ARM.attributes
                0x000008ff       0x31 ./L1_FreeRTOS/src/queue.o
 .ARM.attributes
                0x00000930       0x31 ./L1_FreeRTOS/src/tasks.o
 .ARM.attributes
                0x00000961       0x31 ./L1_FreeRTOS/src/tasks.inc.o
 .ARM.attributes
                0x00000992       0x31 ./L1_FreeRTOS/src/timers.o
 .ARM.attributes
                0x000009c3       0x31 ./L1_FreeRTOS/portable/port.o
 .ARM.attributes
                0x000009f4       0x31 ./L1_FreeRTOS/hooks/hooks.o
 .ARM.attributes
                0x00000a25       0x31 ./L1_FreeRTOS/MemMang/heap_3.o
 .ARM.attributes
                0x00000a56       0x31 ./L0_LowLevel/source/core_cm3.o
 .ARM.attributes
                0x00000a87       0x31 ./L0_LowLevel/source/cr_startup_lpc175x.o
 .ARM.attributes
                0x00000ab8       0x31 ./L0_LowLevel/source/sys_clock.o
 .ARM.attributes
                0x00000ae9       0x31 ./L0_LowLevel/source/system_init.o
 .ARM.attributes
                0x00000b1a       0x31 ./L0_LowLevel/source/uart0_min.o
 .ARM.attributes
                0x00000b4b       0x2b c:/users/montoya/documents/classes/cmpe146/lab/cmpe146package_lpc1758/yagarto/bin/../lib/gcc/arm-none-eabi/4.6.2/../../../../arm-none-eabi/lib/thumb/v7m\libstdc++.a(guard.o)
 .ARM.attributes
                0x00000b76       0x2b c:/users/montoya/documents/classes/cmpe146/lab/cmpe146package_lpc1758/yagarto/bin/../lib/gcc/arm-none-eabi/4.6.2/../../../../arm-none-eabi/lib/thumb/v7m\libstdc++.a(guard_error.o)
 .ARM.attributes
                0x00000ba1       0x2b c:/users/montoya/documents/classes/cmpe146/lab/cmpe146package_lpc1758/yagarto/bin/../lib/gcc/arm-none-eabi/4.6.2/../../../../arm-none-eabi/lib/thumb/v7m\libstdc++.a(pure.o)
 .ARM.attributes
                0x00000bcc       0x2b c:/users/montoya/documents/classes/cmpe146/lab/cmpe146package_lpc1758/yagarto/bin/../lib/gcc/arm-none-eabi/4.6.2/../../../../arm-none-eabi/lib/thumb/v7m\libstdc++.a(si_class_type_info.o)
 .ARM.attributes
                0x00000bf7       0x2b c:/users/montoya/documents/classes/cmpe146/lab/cmpe146package_lpc1758/yagarto/bin/../lib/gcc/arm-none-eabi/4.6.2/../../../../arm-none-eabi/lib/thumb/v7m\libstdc++.a(tinfo.o)
 .ARM.attributes
                0x00000c22       0x2b c:/users/montoya/documents/classes/cmpe146/lab/cmpe146package_lpc1758/yagarto/bin/../lib/gcc/arm-none-eabi/4.6.2/../../../../arm-none-eabi/lib/thumb/v7m\libstdc++.a(class_type_info.o)
 .ARM.attributes
                0x00000c4d       0x2b c:/users/montoya/documents/classes/cmpe146/lab/cmpe146package_lpc1758/yagarto/bin/../lib/gcc/arm-none-eabi/4.6.2/../../../../arm-none-eabi/lib/thumb/v7m\libstdc++.a(eh_alloc.o)
 .ARM.attributes
                0x00000c78       0x2b c:/users/montoya/documents/classes/cmpe146/lab/cmpe146package_lpc1758/yagarto/bin/../lib/gcc/arm-none-eabi/4.6.2/../../../../arm-none-eabi/lib/thumb/v7m\libstdc++.a(eh_exception.o)
 .ARM.attributes
                0x00000ca3       0x2b c:/users/montoya/documents/classes/cmpe146/lab/cmpe146package_lpc1758/yagarto/bin/../lib/gcc/arm-none-eabi/4.6.2/../../../../arm-none-eabi/lib/thumb/v7m\libstdc++.a(eh_globals.o)
 .ARM.attributes
                0x00000cce       0x2b c:/users/montoya/documents/classes/cmpe146/lab/cmpe146package_lpc1758/yagarto/bin/../lib/gcc/arm-none-eabi/4.6.2/../../../../arm-none-eabi/lib/thumb/v7m\libstdc++.a(eh_terminate.o)
 .ARM.attributes
                0x00000cf9       0x2b c:/users/montoya/documents/classes/cmpe146/lab/cmpe146package_lpc1758/yagarto/bin/../lib/gcc/arm-none-eabi/4.6.2/../../../../arm-none-eabi/lib/thumb/v7m\libstdc++.a(eh_term_handler.o)
 .ARM.attributes
                0x00000d24       0x2b c:/users/montoya/documents/classes/cmpe146/lab/cmpe146package_lpc1758/yagarto/bin/../lib/gcc/arm-none-eabi/4.6.2/../../../../arm-none-eabi/lib/thumb/v7m\libstdc++.a(eh_throw.o)
 .ARM.attributes
                0x00000d4f       0x2b c:/users/montoya/documents/classes/cmpe146/lab/cmpe146package_lpc1758/yagarto/bin/../lib/gcc/arm-none-eabi/4.6.2/../../../../arm-none-eabi/lib/thumb/v7m\libstdc++.a(eh_unex_handler.o)
 .ARM.attributes
                0x00000d7a       0x2b c:/users/montoya/documents/classes/cmpe146/lab/cmpe146package_lpc1758/yagarto/bin/../lib/gcc/arm-none-eabi/4.6.2/../../../../arm-none-eabi/lib/thumb/v7m\libstdc++.a(eh_arm.o)
 .ARM.attributes
                0x00000da5       0x2b c:/users/montoya/documents/classes/cmpe146/lab/cmpe146package_lpc1758/yagarto/bin/../lib/gcc/arm-none-eabi/4.6.2/../../../../arm-none-eabi/lib/thumb/v7m\libstdc++.a(eh_aux_runtime.o)
 .ARM.attributes
                0x00000dd0       0x2b c:/users/montoya/documents/classes/cmpe146/lab/cmpe146package_lpc1758/yagarto/bin/../lib/gcc/arm-none-eabi/4.6.2/../../../../arm-none-eabi/lib/thumb/v7m\libstdc++.a(eh_call.o)
 .ARM.attributes
                0x00000dfb       0x2b c:/users/montoya/documents/classes/cmpe146/lab/cmpe146package_lpc1758/yagarto/bin/../lib/gcc/arm-none-eabi/4.6.2/../../../../arm-none-eabi/lib/thumb/v7m\libstdc++.a(eh_catch.o)
 .ARM.attributes
                0x00000e26       0x2b c:/users/montoya/documents/classes/cmpe146/lab/cmpe146package_lpc1758/yagarto/bin/../lib/gcc/arm-none-eabi/4.6.2/../../../../arm-none-eabi/lib/thumb/v7m\libstdc++.a(eh_personality.o)
 .ARM.attributes
                0x00000e51       0x2b c:/users/montoya/documents/classes/cmpe146/lab/cmpe146package_lpc1758/yagarto/bin/../lib/gcc/arm-none-eabi/4.6.2/../../../../arm-none-eabi/lib/thumb/v7m\libstdc++.a(fundamental_type_info.o)
 .ARM.attributes
                0x00000e7c       0x2b c:/users/montoya/documents/classes/cmpe146/lab/cmpe146package_lpc1758/yagarto/bin/../lib/gcc/arm-none-eabi/4.6.2/../../../../arm-none-eabi/lib/thumb/v7m\libstdc++.a(pointer_type_info.o)
 .ARM.attributes
                0x00000ea7       0x2b c:/users/montoya/documents/classes/cmpe146/lab/cmpe146package_lpc1758/yagarto/bin/../lib/gcc/arm-none-eabi/4.6.2/../../../../arm-none-eabi/lib/thumb/v7m\libstdc++.a(bad_cast.o)
 .ARM.attributes
                0x00000ed2       0x2b c:/users/montoya/documents/classes/cmpe146/lab/cmpe146package_lpc1758/yagarto/bin/../lib/gcc/arm-none-eabi/4.6.2/../../../../arm-none-eabi/lib/thumb/v7m\libstdc++.a(bad_typeid.o)
 .ARM.attributes
                0x00000efd       0x2b c:/users/montoya/documents/classes/cmpe146/lab/cmpe146package_lpc1758/yagarto/bin/../lib/gcc/arm-none-eabi/4.6.2/../../../../arm-none-eabi/lib/thumb/v7m\libstdc++.a(pbase_type_info.o)
 .ARM.attributes
                0x00000f28       0x1d c:/users/montoya/documents/classes/cmpe146/lab/cmpe146package_lpc1758/yagarto/bin/../lib/gcc/arm-none-eabi/4.6.2/thumb/v7m\libgcc.a(_arm_addsubdf3.o)
 .ARM.attributes
                0x00000f45       0x1d c:/users/montoya/documents/classes/cmpe146/lab/cmpe146package_lpc1758/yagarto/bin/../lib/gcc/arm-none-eabi/4.6.2/thumb/v7m\libgcc.a(_arm_muldivdf3.o)
 .ARM.attributes
                0x00000f62       0x1d c:/users/montoya/documents/classes/cmpe146/lab/cmpe146package_lpc1758/yagarto/bin/../lib/gcc/arm-none-eabi/4.6.2/thumb/v7m\libgcc.a(_arm_cmpdf2.o)
 .ARM.attributes
                0x00000f7f       0x1d c:/users/montoya/documents/classes/cmpe146/lab/cmpe146package_lpc1758/yagarto/bin/../lib/gcc/arm-none-eabi/4.6.2/thumb/v7m\libgcc.a(_arm_fixdfsi.o)
 .ARM.attributes
                0x00000f9c       0x1d c:/users/montoya/documents/classes/cmpe146/lab/cmpe146package_lpc1758/yagarto/bin/../lib/gcc/arm-none-eabi/4.6.2/thumb/v7m\libgcc.a(_arm_fixunsdfsi.o)
 .ARM.attributes
                0x00000fb9       0x1d c:/users/montoya/documents/classes/cmpe146/lab/cmpe146package_lpc1758/yagarto/bin/../lib/gcc/arm-none-eabi/4.6.2/thumb/v7m\libgcc.a(_arm_truncdfsf2.o)
 .ARM.attributes
                0x00000fd6       0x1d c:/users/montoya/documents/classes/cmpe146/lab/cmpe146package_lpc1758/yagarto/bin/../lib/gcc/arm-none-eabi/4.6.2/thumb/v7m\libgcc.a(_arm_addsubsf3.o)
 .ARM.attributes
                0x00000ff3       0x1d c:/users/montoya/documents/classes/cmpe146/lab/cmpe146package_lpc1758/yagarto/bin/../lib/gcc/arm-none-eabi/4.6.2/thumb/v7m\libgcc.a(_arm_muldivsf3.o)
 .ARM.attributes
                0x00001010       0x1d c:/users/montoya/documents/classes/cmpe146/lab/cmpe146package_lpc1758/yagarto/bin/../lib/gcc/arm-none-eabi/4.6.2/thumb/v7m\libgcc.a(_arm_cmpsf2.o)
 .ARM.attributes
                0x0000102d       0x1d c:/users/montoya/documents/classes/cmpe146/lab/cmpe146package_lpc1758/yagarto/bin/../lib/gcc/arm-none-eabi/4.6.2/thumb/v7m\libgcc.a(_arm_fixsfsi.o)
 .ARM.attributes
                0x0000104a       0x2b c:/users/montoya/documents/classes/cmpe146/lab/cmpe146package_lpc1758/yagarto/bin/../lib/gcc/arm-none-eabi/4.6.2/thumb/v7m\libgcc.a(unwind-arm.o)
 .ARM.attributes
                0x00001075       0x1d c:/users/montoya/documents/classes/cmpe146/lab/cmpe146package_lpc1758/yagarto/bin/../lib/gcc/arm-none-eabi/4.6.2/thumb/v7m\libgcc.a(libunwind.o)
 .ARM.attributes
                0x00001092       0x2b c:/users/montoya/documents/classes/cmpe146/lab/cmpe146package_lpc1758/yagarto/bin/../lib/gcc/arm-none-eabi/4.6.2/thumb/v7m\libgcc.a(pr-support.o)
 .ARM.attributes
                0x000010bd       0x2b c:/users/montoya/documents/classes/cmpe146/lab/cmpe146package_lpc1758/yagarto/bin/../lib/gcc/arm-none-eabi/4.6.2/../../../../arm-none-eabi/lib/thumb/v7m\libc.a(lib_a-abort.o)
 .ARM.attributes
                0x000010e8       0x2b c:/users/montoya/documents/classes/cmpe146/lab/cmpe146package_lpc1758/yagarto/bin/../lib/gcc/arm-none-eabi/4.6.2/../../../../arm-none-eabi/lib/thumb/v7m\libc.a(lib_a-assert.o)
 .ARM.attributes
                0x00001113       0x2b c:/users/montoya/documents/classes/cmpe146/lab/cmpe146package_lpc1758/yagarto/bin/../lib/gcc/arm-none-eabi/4.6.2/../../../../arm-none-eabi/lib/thumb/v7m\libc.a(lib_a-atoi.o)
 .ARM.attributes
                0x0000113e       0x2b c:/users/montoya/documents/classes/cmpe146/lab/cmpe146package_lpc1758/yagarto/bin/../lib/gcc/arm-none-eabi/4.6.2/../../../../arm-none-eabi/lib/thumb/v7m\libc.a(lib_a-fiprintf.o)
 .ARM.attributes
                0x00001169       0x2b c:/users/montoya/documents/classes/cmpe146/lab/cmpe146package_lpc1758/yagarto/bin/../lib/gcc/arm-none-eabi/4.6.2/../../../../arm-none-eabi/lib/thumb/v7m\libc.a(lib_a-impure.o)
 .ARM.attributes
                0x00001194       0x2b c:/users/montoya/documents/classes/cmpe146/lab/cmpe146package_lpc1758/yagarto/bin/../lib/gcc/arm-none-eabi/4.6.2/../../../../arm-none-eabi/lib/thumb/v7m\libc.a(lib_a-init.o)
 .ARM.attributes
                0x000011bf       0x2b c:/users/montoya/documents/classes/cmpe146/lab/cmpe146package_lpc1758/yagarto/bin/../lib/gcc/arm-none-eabi/4.6.2/../../../../arm-none-eabi/lib/thumb/v7m\libc.a(lib_a-isalnum.o)
 .ARM.attributes
                0x000011ea       0x2b c:/users/montoya/documents/classes/cmpe146/lab/cmpe146package_lpc1758/yagarto/bin/../lib/gcc/arm-none-eabi/4.6.2/../../../../arm-none-eabi/lib/thumb/v7m\libc.a(lib_a-isalpha.o)
 .ARM.attributes
                0x00001215       0x2b c:/users/montoya/documents/classes/cmpe146/lab/cmpe146package_lpc1758/yagarto/bin/../lib/gcc/arm-none-eabi/4.6.2/../../../../arm-none-eabi/lib/thumb/v7m\libc.a(lib_a-malloc.o)
 .ARM.attributes
                0x00001240       0x2b c:/users/montoya/documents/classes/cmpe146/lab/cmpe146package_lpc1758/yagarto/bin/../lib/gcc/arm-none-eabi/4.6.2/../../../../arm-none-eabi/lib/thumb/v7m\libc.a(lib_a-mallocr.o)
 .ARM.attributes
                0x0000126b       0x2b c:/users/montoya/documents/classes/cmpe146/lab/cmpe146package_lpc1758/yagarto/bin/../lib/gcc/arm-none-eabi/4.6.2/../../../../arm-none-eabi/lib/thumb/v7m\libc.a(lib_a-memcmp.o)
 .ARM.attributes
                0x00001296       0x2b c:/users/montoya/documents/classes/cmpe146/lab/cmpe146package_lpc1758/yagarto/bin/../lib/gcc/arm-none-eabi/4.6.2/../../../../arm-none-eabi/lib/thumb/v7m\libc.a(lib_a-memcpy.o)
 .ARM.attributes
                0x000012c1       0x2b c:/users/montoya/documents/classes/cmpe146/lab/cmpe146package_lpc1758/yagarto/bin/../lib/gcc/arm-none-eabi/4.6.2/../../../../arm-none-eabi/lib/thumb/v7m\libc.a(lib_a-memmove.o)
 .ARM.attributes
                0x000012ec       0x2b c:/users/montoya/documents/classes/cmpe146/lab/cmpe146package_lpc1758/yagarto/bin/../lib/gcc/arm-none-eabi/4.6.2/../../../../arm-none-eabi/lib/thumb/v7m\libc.a(lib_a-memset.o)
 .ARM.attributes
                0x00001317       0x2b c:/users/montoya/documents/classes/cmpe146/lab/cmpe146package_lpc1758/yagarto/bin/../lib/gcc/arm-none-eabi/4.6.2/../../../../arm-none-eabi/lib/thumb/v7m\libc.a(lib_a-mlock.o)
 .ARM.attributes
                0x00001342       0x2b c:/users/montoya/documents/classes/cmpe146/lab/cmpe146package_lpc1758/yagarto/bin/../lib/gcc/arm-none-eabi/4.6.2/../../../../arm-none-eabi/lib/thumb/v7m\libc.a(lib_a-mstats.o)
 .ARM.attributes
                0x0000136d       0x2b c:/users/montoya/documents/classes/cmpe146/lab/cmpe146package_lpc1758/yagarto/bin/../lib/gcc/arm-none-eabi/4.6.2/../../../../arm-none-eabi/lib/thumb/v7m\libc.a(lib_a-puts.o)
 .ARM.attributes
                0x00001398       0x2b c:/users/montoya/documents/classes/cmpe146/lab/cmpe146package_lpc1758/yagarto/bin/../lib/gcc/arm-none-eabi/4.6.2/../../../../arm-none-eabi/lib/thumb/v7m\libc.a(lib_a-realloc.o)
 .ARM.attributes
                0x000013c3       0x2b c:/users/montoya/documents/classes/cmpe146/lab/cmpe146package_lpc1758/yagarto/bin/../lib/gcc/arm-none-eabi/4.6.2/../../../../arm-none-eabi/lib/thumb/v7m\libc.a(lib_a-reallocr.o)
 .ARM.attributes
                0x000013ee       0x2b c:/users/montoya/documents/classes/cmpe146/lab/cmpe146package_lpc1758/yagarto/bin/../lib/gcc/arm-none-eabi/4.6.2/../../../../arm-none-eabi/lib/thumb/v7m\libc.a(lib_a-sbrkr.o)
 .ARM.attributes
                0x00001419       0x2b c:/users/montoya/documents/classes/cmpe146/lab/cmpe146package_lpc1758/yagarto/bin/../lib/gcc/arm-none-eabi/4.6.2/../../../../arm-none-eabi/lib/thumb/v7m\libc.a(lib_a-setvbuf.o)
 .ARM.attributes
                0x00001444       0x2b c:/users/montoya/documents/classes/cmpe146/lab/cmpe146package_lpc1758/yagarto/bin/../lib/gcc/arm-none-eabi/4.6.2/../../../../arm-none-eabi/lib/thumb/v7m\libc.a(lib_a-signal.o)
 .ARM.attributes
                0x0000146f       0x2b c:/users/montoya/documents/classes/cmpe146/lab/cmpe146package_lpc1758/yagarto/bin/../lib/gcc/arm-none-eabi/4.6.2/../../../../arm-none-eabi/lib/thumb/v7m\libc.a(lib_a-signalr.o)
 .ARM.attributes
                0x0000149a       0x2b c:/users/montoya/documents/classes/cmpe146/lab/cmpe146package_lpc1758/yagarto/bin/../lib/gcc/arm-none-eabi/4.6.2/../../../../arm-none-eabi/lib/thumb/v7m\libc.a(lib_a-siprintf.o)
 .ARM.attributes
                0x000014c5       0x2b c:/users/montoya/documents/classes/cmpe146/lab/cmpe146package_lpc1758/yagarto/bin/../lib/gcc/arm-none-eabi/4.6.2/../../../../arm-none-eabi/lib/thumb/v7m\libc.a(lib_a-strcasecmp.o)
 .ARM.attributes
                0x000014f0       0x2b c:/users/montoya/documents/classes/cmpe146/lab/cmpe146package_lpc1758/yagarto/bin/../lib/gcc/arm-none-eabi/4.6.2/../../../../arm-none-eabi/lib/thumb/v7m\libc.a(lib_a-strcat.o)
 .ARM.attributes
                0x0000151b       0x2b c:/users/montoya/documents/classes/cmpe146/lab/cmpe146package_lpc1758/yagarto/bin/../lib/gcc/arm-none-eabi/4.6.2/../../../../arm-none-eabi/lib/thumb/v7m\libc.a(lib_a-strchr.o)
 .ARM.attributes
                0x00001546       0x2b c:/users/montoya/documents/classes/cmpe146/lab/cmpe146package_lpc1758/yagarto/bin/../lib/gcc/arm-none-eabi/4.6.2/../../../../arm-none-eabi/lib/thumb/v7m\libc.a(lib_a-strcmp.o)
 .ARM.attributes
                0x00001571       0x2b c:/users/montoya/documents/classes/cmpe146/lab/cmpe146package_lpc1758/yagarto/bin/../lib/gcc/arm-none-eabi/4.6.2/../../../../arm-none-eabi/lib/thumb/v7m\libc.a(lib_a-strcpy.o)
 .ARM.attributes
                0x0000159c       0x2b c:/users/montoya/documents/classes/cmpe146/lab/cmpe146package_lpc1758/yagarto/bin/../lib/gcc/arm-none-eabi/4.6.2/../../../../arm-none-eabi/lib/thumb/v7m\libc.a(lib_a-strlen.o)
 .ARM.attributes
                0x000015c7       0x2b c:/users/montoya/documents/classes/cmpe146/lab/cmpe146package_lpc1758/yagarto/bin/../lib/gcc/arm-none-eabi/4.6.2/../../../../arm-none-eabi/lib/thumb/v7m\libc.a(lib_a-strncasecmp.o)
 .ARM.attributes
                0x000015f2       0x2b c:/users/montoya/documents/classes/cmpe146/lab/cmpe146package_lpc1758/yagarto/bin/../lib/gcc/arm-none-eabi/4.6.2/../../../../arm-none-eabi/lib/thumb/v7m\libc.a(lib_a-strncmp.o)
 .ARM.attributes
                0x0000161d       0x2b c:/users/montoya/documents/classes/cmpe146/lab/cmpe146package_lpc1758/yagarto/bin/../lib/gcc/arm-none-eabi/4.6.2/../../../../arm-none-eabi/lib/thumb/v7m\libc.a(lib_a-strncpy.o)
 .ARM.attributes
                0x00001648       0x2b c:/users/montoya/documents/classes/cmpe146/lab/cmpe146package_lpc1758/yagarto/bin/../lib/gcc/arm-none-eabi/4.6.2/../../../../arm-none-eabi/lib/thumb/v7m\libc.a(lib_a-strpbrk.o)
 .ARM.attributes
                0x00001673       0x2b c:/users/montoya/documents/classes/cmpe146/lab/cmpe146package_lpc1758/yagarto/bin/../lib/gcc/arm-none-eabi/4.6.2/../../../../arm-none-eabi/lib/thumb/v7m\libc.a(lib_a-strrchr.o)
 .ARM.attributes
                0x0000169e       0x2b c:/users/montoya/documents/classes/cmpe146/lab/cmpe146package_lpc1758/yagarto/bin/../lib/gcc/arm-none-eabi/4.6.2/../../../../arm-none-eabi/lib/thumb/v7m\libc.a(lib_a-strstr.o)
 .ARM.attributes
                0x000016c9       0x2b c:/users/montoya/documents/classes/cmpe146/lab/cmpe146package_lpc1758/yagarto/bin/../lib/gcc/arm-none-eabi/4.6.2/../../../../arm-none-eabi/lib/thumb/v7m\libc.a(lib_a-strtol.o)
 .ARM.attributes
                0x000016f4       0x2b c:/users/montoya/documents/classes/cmpe146/lab/cmpe146package_lpc1758/yagarto/bin/../lib/gcc/arm-none-eabi/4.6.2/../../../../arm-none-eabi/lib/thumb/v7m\libc.a(lib_a-svfiprintf.o)
 .ARM.attributes
                0x0000171f       0x2b c:/users/montoya/documents/classes/cmpe146/lab/cmpe146package_lpc1758/yagarto/bin/../lib/gcc/arm-none-eabi/4.6.2/../../../../arm-none-eabi/lib/thumb/v7m\libc.a(lib_a-syswrite.o)
 .ARM.attributes
                0x0000174a       0x2b c:/users/montoya/documents/classes/cmpe146/lab/cmpe146package_lpc1758/yagarto/bin/../lib/gcc/arm-none-eabi/4.6.2/../../../../arm-none-eabi/lib/thumb/v7m\libc.a(lib_a-tolower.o)
 .ARM.attributes
                0x00001775       0x2b c:/users/montoya/documents/classes/cmpe146/lab/cmpe146package_lpc1758/yagarto/bin/../lib/gcc/arm-none-eabi/4.6.2/../../../../arm-none-eabi/lib/thumb/v7m\libc.a(lib_a-toupper.o)
 .ARM.attributes
                0x000017a0       0x2b c:/users/montoya/documents/classes/cmpe146/lab/cmpe146package_lpc1758/yagarto/bin/../lib/gcc/arm-none-eabi/4.6.2/../../../../arm-none-eabi/lib/thumb/v7m\libc.a(lib_a-vfiprintf.o)
 .ARM.attributes
                0x000017cb       0x2b c:/users/montoya/documents/classes/cmpe146/lab/cmpe146package_lpc1758/yagarto/bin/../lib/gcc/arm-none-eabi/4.6.2/../../../../arm-none-eabi/lib/thumb/v7m\libc.a(lib_a-viprintf.o)
 .ARM.attributes
                0x000017f6       0x2b c:/users/montoya/documents/classes/cmpe146/lab/cmpe146package_lpc1758/yagarto/bin/../lib/gcc/arm-none-eabi/4.6.2/../../../../arm-none-eabi/lib/thumb/v7m\libc.a(lib_a-vsiprintf.o)
 .ARM.attributes
                0x00001821       0x2b c:/users/montoya/documents/classes/cmpe146/lab/cmpe146package_lpc1758/yagarto/bin/../lib/gcc/arm-none-eabi/4.6.2/../../../../arm-none-eabi/lib/thumb/v7m\libc.a(lib_a-vsiscanf.o)
 .ARM.attributes
                0x0000184c       0x2b c:/users/montoya/documents/classes/cmpe146/lab/cmpe146package_lpc1758/yagarto/bin/../lib/gcc/arm-none-eabi/4.6.2/../../../../arm-none-eabi/lib/thumb/v7m\libc.a(lib_a-vsniprintf.o)
 .ARM.attributes
                0x00001877       0x2b c:/users/montoya/documents/classes/cmpe146/lab/cmpe146package_lpc1758/yagarto/bin/../lib/gcc/arm-none-eabi/4.6.2/../../../../arm-none-eabi/lib/thumb/v7m\libc.a(lib_a-vsnprintf.o)
 .ARM.attributes
                0x000018a2       0x2b c:/users/montoya/documents/classes/cmpe146/lab/cmpe146package_lpc1758/yagarto/bin/../lib/gcc/arm-none-eabi/4.6.2/../../../../arm-none-eabi/lib/thumb/v7m\libc.a(lib_a-wbuf.o)
 .ARM.attributes
                0x000018cd       0x2b c:/users/montoya/documents/classes/cmpe146/lab/cmpe146package_lpc1758/yagarto/bin/../lib/gcc/arm-none-eabi/4.6.2/../../../../arm-none-eabi/lib/thumb/v7m\libc.a(lib_a-writer.o)
 .ARM.attributes
                0x000018f8       0x2b c:/users/montoya/documents/classes/cmpe146/lab/cmpe146package_lpc1758/yagarto/bin/../lib/gcc/arm-none-eabi/4.6.2/../../../../arm-none-eabi/lib/thumb/v7m\libc.a(lib_a-wsetup.o)
 .ARM.attributes
                0x00001923       0x2b c:/users/montoya/documents/classes/cmpe146/lab/cmpe146package_lpc1758/yagarto/bin/../lib/gcc/arm-none-eabi/4.6.2/../../../../arm-none-eabi/lib/thumb/v7m\libc.a(lib_a-ctype_.o)
 .ARM.attributes
                0x0000194e       0x2b c:/users/montoya/documents/classes/cmpe146/lab/cmpe146package_lpc1758/yagarto/bin/../lib/gcc/arm-none-eabi/4.6.2/../../../../arm-none-eabi/lib/thumb/v7m\libc.a(lib_a-fflush.o)
 .ARM.attributes
                0x00001979       0x2b c:/users/montoya/documents/classes/cmpe146/lab/cmpe146package_lpc1758/yagarto/bin/../lib/gcc/arm-none-eabi/4.6.2/../../../../arm-none-eabi/lib/thumb/v7m\libc.a(lib_a-findfp.o)
 .ARM.attributes
                0x000019a4       0x2b c:/users/montoya/documents/classes/cmpe146/lab/cmpe146package_lpc1758/yagarto/bin/../lib/gcc/arm-none-eabi/4.6.2/../../../../arm-none-eabi/lib/thumb/v7m\libc.a(lib_a-fputwc.o)
 .ARM.attributes
                0x000019cf       0x2b c:/users/montoya/documents/classes/cmpe146/lab/cmpe146package_lpc1758/yagarto/bin/../lib/gcc/arm-none-eabi/4.6.2/../../../../arm-none-eabi/lib/thumb/v7m\libc.a(lib_a-freer.o)
 .ARM.attributes
                0x000019fa       0x2b c:/users/montoya/documents/classes/cmpe146/lab/cmpe146package_lpc1758/yagarto/bin/../lib/gcc/arm-none-eabi/4.6.2/../../../../arm-none-eabi/lib/thumb/v7m\libc.a(lib_a-fvwrite.o)
 .ARM.attributes
                0x00001a25       0x2b c:/users/montoya/documents/classes/cmpe146/lab/cmpe146package_lpc1758/yagarto/bin/../lib/gcc/arm-none-eabi/4.6.2/../../../../arm-none-eabi/lib/thumb/v7m\libc.a(lib_a-fwalk.o)
 .ARM.attributes
                0x00001a50       0x2b c:/users/montoya/documents/classes/cmpe146/lab/cmpe146package_lpc1758/yagarto/bin/../lib/gcc/arm-none-eabi/4.6.2/../../../../arm-none-eabi/lib/thumb/v7m\libc.a(lib_a-locale.o)
 .ARM.attributes
                0x00001a7b       0x2b c:/users/montoya/documents/classes/cmpe146/lab/cmpe146package_lpc1758/yagarto/bin/../lib/gcc/arm-none-eabi/4.6.2/../../../../arm-none-eabi/lib/thumb/v7m\libc.a(lib_a-makebuf.o)
 .ARM.attributes
                0x00001aa6       0x2b c:/users/montoya/documents/classes/cmpe146/lab/cmpe146package_lpc1758/yagarto/bin/../lib/gcc/arm-none-eabi/4.6.2/../../../../arm-none-eabi/lib/thumb/v7m\libc.a(lib_a-mallinfor.o)
 .ARM.attributes
                0x00001ad1       0x2b c:/users/montoya/documents/classes/cmpe146/lab/cmpe146package_lpc1758/yagarto/bin/../lib/gcc/arm-none-eabi/4.6.2/../../../../arm-none-eabi/lib/thumb/v7m\libc.a(lib_a-malloptr.o)
 .ARM.attributes
                0x00001afc       0x2b c:/users/montoya/documents/classes/cmpe146/lab/cmpe146package_lpc1758/yagarto/bin/../lib/gcc/arm-none-eabi/4.6.2/../../../../arm-none-eabi/lib/thumb/v7m\libc.a(lib_a-mallstatsr.o)
 .ARM.attributes
                0x00001b27       0x2b c:/users/montoya/documents/classes/cmpe146/lab/cmpe146package_lpc1758/yagarto/bin/../lib/gcc/arm-none-eabi/4.6.2/../../../../arm-none-eabi/lib/thumb/v7m\libc.a(lib_a-memchr.o)
 .ARM.attributes
                0x00001b52       0x2b c:/users/montoya/documents/classes/cmpe146/lab/cmpe146package_lpc1758/yagarto/bin/../lib/gcc/arm-none-eabi/4.6.2/../../../../arm-none-eabi/lib/thumb/v7m\libc.a(lib_a-reent.o)
 .ARM.attributes
                0x00001b7d       0x2b c:/users/montoya/documents/classes/cmpe146/lab/cmpe146package_lpc1758/yagarto/bin/../lib/gcc/arm-none-eabi/4.6.2/../../../../arm-none-eabi/lib/thumb/v7m\libc.a(lib_a-stdio.o)
 .ARM.attributes
                0x00001ba8       0x2b c:/users/montoya/documents/classes/cmpe146/lab/cmpe146package_lpc1758/yagarto/bin/../lib/gcc/arm-none-eabi/4.6.2/../../../../arm-none-eabi/lib/thumb/v7m\libc.a(lib_a-svfiscanf.o)
 .ARM.attributes
                0x00001bd3       0x2b c:/users/montoya/documents/classes/cmpe146/lab/cmpe146package_lpc1758/yagarto/bin/../lib/gcc/arm-none-eabi/4.6.2/../../../../arm-none-eabi/lib/thumb/v7m\libc.a(lib_a-svfprintf.o)
 .ARM.attributes
                0x00001bfe       0x2b c:/users/montoya/documents/classes/cmpe146/lab/cmpe146package_lpc1758/yagarto/bin/../lib/gcc/arm-none-eabi/4.6.2/../../../../arm-none-eabi/lib/thumb/v7m\libc.a(lib_a-ungetc.o)
 .ARM.attributes
                0x00001c29       0x2b c:/users/montoya/documents/classes/cmpe146/lab/cmpe146package_lpc1758/yagarto/bin/../lib/gcc/arm-none-eabi/4.6.2/../../../../arm-none-eabi/lib/thumb/v7m\libc.a(lib_a-wcrtomb.o)
 .ARM.attributes
                0x00001c54       0x2b c:/users/montoya/documents/classes/cmpe146/lab/cmpe146package_lpc1758/yagarto/bin/../lib/gcc/arm-none-eabi/4.6.2/../../../../arm-none-eabi/lib/thumb/v7m\libc.a(lib_a-wctomb_r.o)
 .ARM.attributes
                0x00001c7f       0x2b c:/users/montoya/documents/classes/cmpe146/lab/cmpe146package_lpc1758/yagarto/bin/../lib/gcc/arm-none-eabi/4.6.2/../../../../arm-none-eabi/lib/thumb/v7m\libc.a(lib_a-closer.o)
 .ARM.attributes
                0x00001caa       0x2b c:/users/montoya/documents/classes/cmpe146/lab/cmpe146package_lpc1758/yagarto/bin/../lib/gcc/arm-none-eabi/4.6.2/../../../../arm-none-eabi/lib/thumb/v7m\libc.a(lib_a-dtoa.o)
 .ARM.attributes
                0x00001cd5       0x2b c:/users/montoya/documents/classes/cmpe146/lab/cmpe146package_lpc1758/yagarto/bin/../lib/gcc/arm-none-eabi/4.6.2/../../../../arm-none-eabi/lib/thumb/v7m\libc.a(lib_a-fclose.o)
 .ARM.attributes
                0x00001d00       0x2b c:/users/montoya/documents/classes/cmpe146/lab/cmpe146package_lpc1758/yagarto/bin/../lib/gcc/arm-none-eabi/4.6.2/../../../../arm-none-eabi/lib/thumb/v7m\libc.a(lib_a-fstatr.o)
 .ARM.attributes
                0x00001d2b       0x2b c:/users/montoya/documents/classes/cmpe146/lab/cmpe146package_lpc1758/yagarto/bin/../lib/gcc/arm-none-eabi/4.6.2/../../../../arm-none-eabi/lib/thumb/v7m\libc.a(lib_a-isattyr.o)
 .ARM.attributes
                0x00001d56       0x2b c:/users/montoya/documents/classes/cmpe146/lab/cmpe146package_lpc1758/yagarto/bin/../lib/gcc/arm-none-eabi/4.6.2/../../../../arm-none-eabi/lib/thumb/v7m\libc.a(lib_a-iswspace.o)
 .ARM.attributes
                0x00001d81       0x2b c:/users/montoya/documents/classes/cmpe146/lab/cmpe146package_lpc1758/yagarto/bin/../lib/gcc/arm-none-eabi/4.6.2/../../../../arm-none-eabi/lib/thumb/v7m\libc.a(lib_a-lseekr.o)
 .ARM.attributes
                0x00001dac       0x2b c:/users/montoya/documents/classes/cmpe146/lab/cmpe146package_lpc1758/yagarto/bin/../lib/gcc/arm-none-eabi/4.6.2/../../../../arm-none-eabi/lib/thumb/v7m\libc.a(lib_a-mbrtowc.o)
 .ARM.attributes
                0x00001dd7       0x2b c:/users/montoya/documents/classes/cmpe146/lab/cmpe146package_lpc1758/yagarto/bin/../lib/gcc/arm-none-eabi/4.6.2/../../../../arm-none-eabi/lib/thumb/v7m\libc.a(lib_a-mbtowc_r.o)
 .ARM.attributes
                0x00001e02       0x2b c:/users/montoya/documents/classes/cmpe146/lab/cmpe146package_lpc1758/yagarto/bin/../lib/gcc/arm-none-eabi/4.6.2/../../../../arm-none-eabi/lib/thumb/v7m\libc.a(lib_a-mprec.o)
 .ARM.attributes
                0x00001e2d       0x2b c:/users/montoya/documents/classes/cmpe146/lab/cmpe146package_lpc1758/yagarto/bin/../lib/gcc/arm-none-eabi/4.6.2/../../../../arm-none-eabi/lib/thumb/v7m\libc.a(lib_a-readr.o)
 .ARM.attributes
                0x00001e58       0x2b c:/users/montoya/documents/classes/cmpe146/lab/cmpe146package_lpc1758/yagarto/bin/../lib/gcc/arm-none-eabi/4.6.2/../../../../arm-none-eabi/lib/thumb/v7m\libc.a(lib_a-s_fpclassify.o)
 .ARM.attributes
                0x00001e83       0x2b c:/users/montoya/documents/classes/cmpe146/lab/cmpe146package_lpc1758/yagarto/bin/../lib/gcc/arm-none-eabi/4.6.2/../../../../arm-none-eabi/lib/thumb/v7m\libc.a(lib_a-sccl.o)
 .ARM.attributes
                0x00001eae       0x2b c:/users/montoya/documents/classes/cmpe146/lab/cmpe146package_lpc1758/yagarto/bin/../lib/gcc/arm-none-eabi/4.6.2/../../../../arm-none-eabi/lib/thumb/v7m\libc.a(lib_a-strtoul.o)
 .ARM.attributes
                0x00001ed9       0x2b c:/users/montoya/documents/classes/cmpe146/lab/cmpe146package_lpc1758/yagarto/bin/../lib/gcc/arm-none-eabi/4.6.2/../../../../arm-none-eabi/lib/thumb/v7m\libc.a(lib_a-callocr.o)
 .ARM.attributes
                0x00001f04       0x1d c:/users/montoya/documents/classes/cmpe146/lab/cmpe146package_lpc1758/yagarto/bin/../lib/gcc/arm-none-eabi/4.6.2/thumb/v7m\libgcc.a(_udivsi3.o)
 .ARM.attributes
                0x00001f21       0x1d c:/users/montoya/documents/classes/cmpe146/lab/cmpe146package_lpc1758/yagarto/bin/../lib/gcc/arm-none-eabi/4.6.2/thumb/v7m\libgcc.a(_dvmd_tls.o)

.debug_info     0x00000000    0x34928
 .debug_info    0x00000000      0x521 c:/users/montoya/documents/classes/cmpe146/lab/cmpe146package_lpc1758/yagarto/bin/../lib/gcc/arm-none-eabi/4.6.2/../../../../arm-none-eabi/lib/thumb/v7m\libstdc++.a(guard.o)
 .debug_info    0x00000521      0x168 c:/users/montoya/documents/classes/cmpe146/lab/cmpe146package_lpc1758/yagarto/bin/../lib/gcc/arm-none-eabi/4.6.2/../../../../arm-none-eabi/lib/thumb/v7m\libstdc++.a(guard_error.o)
 .debug_info    0x00000689       0xb7 c:/users/montoya/documents/classes/cmpe146/lab/cmpe146package_lpc1758/yagarto/bin/../lib/gcc/arm-none-eabi/4.6.2/../../../../arm-none-eabi/lib/thumb/v7m\libstdc++.a(pure.o)
 .debug_info    0x00000740      0x7f2 c:/users/montoya/documents/classes/cmpe146/lab/cmpe146package_lpc1758/yagarto/bin/../lib/gcc/arm-none-eabi/4.6.2/../../../../arm-none-eabi/lib/thumb/v7m\libstdc++.a(si_class_type_info.o)
 .debug_info    0x00000f32      0x53a c:/users/montoya/documents/classes/cmpe146/lab/cmpe146package_lpc1758/yagarto/bin/../lib/gcc/arm-none-eabi/4.6.2/../../../../arm-none-eabi/lib/thumb/v7m\libstdc++.a(tinfo.o)
 .debug_info    0x0000146c      0x8c5 c:/users/montoya/documents/classes/cmpe146/lab/cmpe146package_lpc1758/yagarto/bin/../lib/gcc/arm-none-eabi/4.6.2/../../../../arm-none-eabi/lib/thumb/v7m\libstdc++.a(class_type_info.o)
 .debug_info    0x00001d31      0xfd4 c:/users/montoya/documents/classes/cmpe146/lab/cmpe146package_lpc1758/yagarto/bin/../lib/gcc/arm-none-eabi/4.6.2/../../../../arm-none-eabi/lib/thumb/v7m\libstdc++.a(eh_alloc.o)
 .debug_info    0x00002d05      0x583 c:/users/montoya/documents/classes/cmpe146/lab/cmpe146package_lpc1758/yagarto/bin/../lib/gcc/arm-none-eabi/4.6.2/../../../../arm-none-eabi/lib/thumb/v7m\libstdc++.a(eh_exception.o)
 .debug_info    0x00003288      0x788 c:/users/montoya/documents/classes/cmpe146/lab/cmpe146package_lpc1758/yagarto/bin/../lib/gcc/arm-none-eabi/4.6.2/../../../../arm-none-eabi/lib/thumb/v7m\libstdc++.a(eh_globals.o)
 .debug_info    0x00003a10      0x5e3 c:/users/montoya/documents/classes/cmpe146/lab/cmpe146package_lpc1758/yagarto/bin/../lib/gcc/arm-none-eabi/4.6.2/../../../../arm-none-eabi/lib/thumb/v7m\libstdc++.a(eh_terminate.o)
 .debug_info    0x00003ff3       0xa4 c:/users/montoya/documents/classes/cmpe146/lab/cmpe146package_lpc1758/yagarto/bin/../lib/gcc/arm-none-eabi/4.6.2/../../../../arm-none-eabi/lib/thumb/v7m\libstdc++.a(eh_term_handler.o)
 .debug_info    0x00004097      0x62c c:/users/montoya/documents/classes/cmpe146/lab/cmpe146package_lpc1758/yagarto/bin/../lib/gcc/arm-none-eabi/4.6.2/../../../../arm-none-eabi/lib/thumb/v7m\libstdc++.a(eh_throw.o)
 .debug_info    0x000046c3       0xa4 c:/users/montoya/documents/classes/cmpe146/lab/cmpe146package_lpc1758/yagarto/bin/../lib/gcc/arm-none-eabi/4.6.2/../../../../arm-none-eabi/lib/thumb/v7m\libstdc++.a(eh_unex_handler.o)
 .debug_info    0x00004767      0x7fe c:/users/montoya/documents/classes/cmpe146/lab/cmpe146package_lpc1758/yagarto/bin/../lib/gcc/arm-none-eabi/4.6.2/../../../../arm-none-eabi/lib/thumb/v7m\libstdc++.a(eh_arm.o)
 .debug_info    0x00004f65      0x561 c:/users/montoya/documents/classes/cmpe146/lab/cmpe146package_lpc1758/yagarto/bin/../lib/gcc/arm-none-eabi/4.6.2/../../../../arm-none-eabi/lib/thumb/v7m\libstdc++.a(eh_aux_runtime.o)
 .debug_info    0x000054c6      0xc79 c:/users/montoya/documents/classes/cmpe146/lab/cmpe146package_lpc1758/yagarto/bin/../lib/gcc/arm-none-eabi/4.6.2/../../../../arm-none-eabi/lib/thumb/v7m\libstdc++.a(eh_call.o)
 .debug_info    0x0000613f      0x983 c:/users/montoya/documents/classes/cmpe146/lab/cmpe146package_lpc1758/yagarto/bin/../lib/gcc/arm-none-eabi/4.6.2/../../../../arm-none-eabi/lib/thumb/v7m\libstdc++.a(eh_catch.o)
 .debug_info    0x00006ac2     0x16cc c:/users/montoya/documents/classes/cmpe146/lab/cmpe146package_lpc1758/yagarto/bin/../lib/gcc/arm-none-eabi/4.6.2/../../../../arm-none-eabi/lib/thumb/v7m\libstdc++.a(eh_personality.o)
 .debug_info    0x0000818e      0x1e6 c:/users/montoya/documents/classes/cmpe146/lab/cmpe146package_lpc1758/yagarto/bin/../lib/gcc/arm-none-eabi/4.6.2/../../../../arm-none-eabi/lib/thumb/v7m\libstdc++.a(fundamental_type_info.o)
 .debug_info    0x00008374      0x40f c:/users/montoya/documents/classes/cmpe146/lab/cmpe146package_lpc1758/yagarto/bin/../lib/gcc/arm-none-eabi/4.6.2/../../../../arm-none-eabi/lib/thumb/v7m\libstdc++.a(pointer_type_info.o)
 .debug_info    0x00008783      0x1a3 c:/users/montoya/documents/classes/cmpe146/lab/cmpe146package_lpc1758/yagarto/bin/../lib/gcc/arm-none-eabi/4.6.2/../../../../arm-none-eabi/lib/thumb/v7m\libstdc++.a(bad_cast.o)
 .debug_info    0x00008926      0x1a3 c:/users/montoya/documents/classes/cmpe146/lab/cmpe146package_lpc1758/yagarto/bin/../lib/gcc/arm-none-eabi/4.6.2/../../../../arm-none-eabi/lib/thumb/v7m\libstdc++.a(bad_typeid.o)
 .debug_info    0x00008ac9      0x4df c:/users/montoya/documents/classes/cmpe146/lab/cmpe146package_lpc1758/yagarto/bin/../lib/gcc/arm-none-eabi/4.6.2/../../../../arm-none-eabi/lib/thumb/v7m\libstdc++.a(pbase_type_info.o)
 .debug_info    0x00008fa8       0xa7 c:/users/montoya/documents/classes/cmpe146/lab/cmpe146package_lpc1758/yagarto/bin/../lib/gcc/arm-none-eabi/4.6.2/thumb/v7m\libgcc.a(_arm_addsubdf3.o)
 .debug_info    0x0000904f       0xa7 c:/users/montoya/documents/classes/cmpe146/lab/cmpe146package_lpc1758/yagarto/bin/../lib/gcc/arm-none-eabi/4.6.2/thumb/v7m\libgcc.a(_arm_muldivdf3.o)
 .debug_info    0x000090f6       0xa7 c:/users/montoya/documents/classes/cmpe146/lab/cmpe146package_lpc1758/yagarto/bin/../lib/gcc/arm-none-eabi/4.6.2/thumb/v7m\libgcc.a(_arm_cmpdf2.o)
 .debug_info    0x0000919d       0xa7 c:/users/montoya/documents/classes/cmpe146/lab/cmpe146package_lpc1758/yagarto/bin/../lib/gcc/arm-none-eabi/4.6.2/thumb/v7m\libgcc.a(_arm_fixdfsi.o)
 .debug_info    0x00009244       0xa7 c:/users/montoya/documents/classes/cmpe146/lab/cmpe146package_lpc1758/yagarto/bin/../lib/gcc/arm-none-eabi/4.6.2/thumb/v7m\libgcc.a(_arm_fixunsdfsi.o)
 .debug_info    0x000092eb       0xa7 c:/users/montoya/documents/classes/cmpe146/lab/cmpe146package_lpc1758/yagarto/bin/../lib/gcc/arm-none-eabi/4.6.2/thumb/v7m\libgcc.a(_arm_truncdfsf2.o)
 .debug_info    0x00009392       0xa7 c:/users/montoya/documents/classes/cmpe146/lab/cmpe146package_lpc1758/yagarto/bin/../lib/gcc/arm-none-eabi/4.6.2/thumb/v7m\libgcc.a(_arm_addsubsf3.o)
 .debug_info    0x00009439       0xa7 c:/users/montoya/documents/classes/cmpe146/lab/cmpe146package_lpc1758/yagarto/bin/../lib/gcc/arm-none-eabi/4.6.2/thumb/v7m\libgcc.a(_arm_muldivsf3.o)
 .debug_info    0x000094e0       0xa7 c:/users/montoya/documents/classes/cmpe146/lab/cmpe146package_lpc1758/yagarto/bin/../lib/gcc/arm-none-eabi/4.6.2/thumb/v7m\libgcc.a(_arm_cmpsf2.o)
 .debug_info    0x00009587       0xa7 c:/users/montoya/documents/classes/cmpe146/lab/cmpe146package_lpc1758/yagarto/bin/../lib/gcc/arm-none-eabi/4.6.2/thumb/v7m\libgcc.a(_arm_fixsfsi.o)
 .debug_info    0x0000962e     0x123f c:/users/montoya/documents/classes/cmpe146/lab/cmpe146package_lpc1758/yagarto/bin/../lib/gcc/arm-none-eabi/4.6.2/thumb/v7m\libgcc.a(unwind-arm.o)
 .debug_info    0x0000a86d       0xa6 c:/users/montoya/documents/classes/cmpe146/lab/cmpe146package_lpc1758/yagarto/bin/../lib/gcc/arm-none-eabi/4.6.2/thumb/v7m\libgcc.a(libunwind.o)
 .debug_info    0x0000a913      0x5f5 c:/users/montoya/documents/classes/cmpe146/lab/cmpe146package_lpc1758/yagarto/bin/../lib/gcc/arm-none-eabi/4.6.2/thumb/v7m\libgcc.a(pr-support.o)
 .debug_info    0x0000af08       0x88 c:/users/montoya/documents/classes/cmpe146/lab/cmpe146package_lpc1758/yagarto/bin/../lib/gcc/arm-none-eabi/4.6.2/../../../../arm-none-eabi/lib/thumb/v7m\libc.a(lib_a-abort.o)
 .debug_info    0x0000af90      0x9e3 c:/users/montoya/documents/classes/cmpe146/lab/cmpe146package_lpc1758/yagarto/bin/../lib/gcc/arm-none-eabi/4.6.2/../../../../arm-none-eabi/lib/thumb/v7m\libc.a(lib_a-assert.o)
 .debug_info    0x0000b973      0x989 c:/users/montoya/documents/classes/cmpe146/lab/cmpe146package_lpc1758/yagarto/bin/../lib/gcc/arm-none-eabi/4.6.2/../../../../arm-none-eabi/lib/thumb/v7m\libc.a(lib_a-atoi.o)
 .debug_info    0x0000c2fc      0xa41 c:/users/montoya/documents/classes/cmpe146/lab/cmpe146package_lpc1758/yagarto/bin/../lib/gcc/arm-none-eabi/4.6.2/../../../../arm-none-eabi/lib/thumb/v7m\libc.a(lib_a-fiprintf.o)
 .debug_info    0x0000cd3d      0x966 c:/users/montoya/documents/classes/cmpe146/lab/cmpe146package_lpc1758/yagarto/bin/../lib/gcc/arm-none-eabi/4.6.2/../../../../arm-none-eabi/lib/thumb/v7m\libc.a(lib_a-impure.o)
 .debug_info    0x0000d6a3      0x12f c:/users/montoya/documents/classes/cmpe146/lab/cmpe146package_lpc1758/yagarto/bin/../lib/gcc/arm-none-eabi/4.6.2/../../../../arm-none-eabi/lib/thumb/v7m\libc.a(lib_a-init.o)
 .debug_info    0x0000d7d2       0x83 c:/users/montoya/documents/classes/cmpe146/lab/cmpe146package_lpc1758/yagarto/bin/../lib/gcc/arm-none-eabi/4.6.2/../../../../arm-none-eabi/lib/thumb/v7m\libc.a(lib_a-isalnum.o)
 .debug_info    0x0000d855       0x83 c:/users/montoya/documents/classes/cmpe146/lab/cmpe146package_lpc1758/yagarto/bin/../lib/gcc/arm-none-eabi/4.6.2/../../../../arm-none-eabi/lib/thumb/v7m\libc.a(lib_a-isalpha.o)
 .debug_info    0x0000d8d8      0x9a5 c:/users/montoya/documents/classes/cmpe146/lab/cmpe146package_lpc1758/yagarto/bin/../lib/gcc/arm-none-eabi/4.6.2/../../../../arm-none-eabi/lib/thumb/v7m\libc.a(lib_a-malloc.o)
 .debug_info    0x0000e27d      0xd6b c:/users/montoya/documents/classes/cmpe146/lab/cmpe146package_lpc1758/yagarto/bin/../lib/gcc/arm-none-eabi/4.6.2/../../../../arm-none-eabi/lib/thumb/v7m\libc.a(lib_a-mallocr.o)
 .debug_info    0x0000efe8      0x110 c:/users/montoya/documents/classes/cmpe146/lab/cmpe146package_lpc1758/yagarto/bin/../lib/gcc/arm-none-eabi/4.6.2/../../../../arm-none-eabi/lib/thumb/v7m\libc.a(lib_a-memcmp.o)
 .debug_info    0x0000f0f8      0x130 c:/users/montoya/documents/classes/cmpe146/lab/cmpe146package_lpc1758/yagarto/bin/../lib/gcc/arm-none-eabi/4.6.2/../../../../arm-none-eabi/lib/thumb/v7m\libc.a(lib_a-memcpy.o)
 .debug_info    0x0000f228      0x12e c:/users/montoya/documents/classes/cmpe146/lab/cmpe146package_lpc1758/yagarto/bin/../lib/gcc/arm-none-eabi/4.6.2/../../../../arm-none-eabi/lib/thumb/v7m\libc.a(lib_a-memmove.o)
 .debug_info    0x0000f356      0x116 c:/users/montoya/documents/classes/cmpe146/lab/cmpe146package_lpc1758/yagarto/bin/../lib/gcc/arm-none-eabi/4.6.2/../../../../arm-none-eabi/lib/thumb/v7m\libc.a(lib_a-memset.o)
 .debug_info    0x0000f46c      0x980 c:/users/montoya/documents/classes/cmpe146/lab/cmpe146package_lpc1758/yagarto/bin/../lib/gcc/arm-none-eabi/4.6.2/../../../../arm-none-eabi/lib/thumb/v7m\libc.a(lib_a-mlock.o)
 .debug_info    0x0000fdec      0xa9f c:/users/montoya/documents/classes/cmpe146/lab/cmpe146package_lpc1758/yagarto/bin/../lib/gcc/arm-none-eabi/4.6.2/../../../../arm-none-eabi/lib/thumb/v7m\libc.a(lib_a-mstats.o)
 .debug_info    0x0001088b      0xa5c c:/users/montoya/documents/classes/cmpe146/lab/cmpe146package_lpc1758/yagarto/bin/../lib/gcc/arm-none-eabi/4.6.2/../../../../arm-none-eabi/lib/thumb/v7m\libc.a(lib_a-puts.o)
 .debug_info    0x000112e7      0x98b c:/users/montoya/documents/classes/cmpe146/lab/cmpe146package_lpc1758/yagarto/bin/../lib/gcc/arm-none-eabi/4.6.2/../../../../arm-none-eabi/lib/thumb/v7m\libc.a(lib_a-realloc.o)
 .debug_info    0x00011c72      0xc0c c:/users/montoya/documents/classes/cmpe146/lab/cmpe146package_lpc1758/yagarto/bin/../lib/gcc/arm-none-eabi/4.6.2/../../../../arm-none-eabi/lib/thumb/v7m\libc.a(lib_a-reallocr.o)
 .debug_info    0x0001287e      0x9ac c:/users/montoya/documents/classes/cmpe146/lab/cmpe146package_lpc1758/yagarto/bin/../lib/gcc/arm-none-eabi/4.6.2/../../../../arm-none-eabi/lib/thumb/v7m\libc.a(lib_a-sbrkr.o)
 .debug_info    0x0001322a      0x9d5 c:/users/montoya/documents/classes/cmpe146/lab/cmpe146package_lpc1758/yagarto/bin/../lib/gcc/arm-none-eabi/4.6.2/../../../../arm-none-eabi/lib/thumb/v7m\libc.a(lib_a-setvbuf.o)
 .debug_info    0x00013bff      0xb5b c:/users/montoya/documents/classes/cmpe146/lab/cmpe146package_lpc1758/yagarto/bin/../lib/gcc/arm-none-eabi/4.6.2/../../../../arm-none-eabi/lib/thumb/v7m\libc.a(lib_a-signal.o)
 .debug_info    0x0001475a      0x9f1 c:/users/montoya/documents/classes/cmpe146/lab/cmpe146package_lpc1758/yagarto/bin/../lib/gcc/arm-none-eabi/4.6.2/../../../../arm-none-eabi/lib/thumb/v7m\libc.a(lib_a-signalr.o)
 .debug_info    0x0001514b      0xa58 c:/users/montoya/documents/classes/cmpe146/lab/cmpe146package_lpc1758/yagarto/bin/../lib/gcc/arm-none-eabi/4.6.2/../../../../arm-none-eabi/lib/thumb/v7m\libc.a(lib_a-siprintf.o)
 .debug_info    0x00015ba3      0x15b c:/users/montoya/documents/classes/cmpe146/lab/cmpe146package_lpc1758/yagarto/bin/../lib/gcc/arm-none-eabi/4.6.2/../../../../arm-none-eabi/lib/thumb/v7m\libc.a(lib_a-strcasecmp.o)
 .debug_info    0x00015cfe       0xe6 c:/users/montoya/documents/classes/cmpe146/lab/cmpe146package_lpc1758/yagarto/bin/../lib/gcc/arm-none-eabi/4.6.2/../../../../arm-none-eabi/lib/thumb/v7m\libc.a(lib_a-strcat.o)
 .debug_info    0x00015de4      0x113 c:/users/montoya/documents/classes/cmpe146/lab/cmpe146package_lpc1758/yagarto/bin/../lib/gcc/arm-none-eabi/4.6.2/../../../../arm-none-eabi/lib/thumb/v7m\libc.a(lib_a-strchr.o)
 .debug_info    0x00015ef7       0xe7 c:/users/montoya/documents/classes/cmpe146/lab/cmpe146package_lpc1758/yagarto/bin/../lib/gcc/arm-none-eabi/4.6.2/../../../../arm-none-eabi/lib/thumb/v7m\libc.a(lib_a-strcmp.o)
 .debug_info    0x00015fde       0xb9 c:/users/montoya/documents/classes/cmpe146/lab/cmpe146package_lpc1758/yagarto/bin/../lib/gcc/arm-none-eabi/4.6.2/../../../../arm-none-eabi/lib/thumb/v7m\libc.a(lib_a-strcpy.o)
 .debug_info    0x00016097       0xb1 c:/users/montoya/documents/classes/cmpe146/lab/cmpe146package_lpc1758/yagarto/bin/../lib/gcc/arm-none-eabi/4.6.2/../../../../arm-none-eabi/lib/thumb/v7m\libc.a(lib_a-strlen.o)
 .debug_info    0x00016148      0x175 c:/users/montoya/documents/classes/cmpe146/lab/cmpe146package_lpc1758/yagarto/bin/../lib/gcc/arm-none-eabi/4.6.2/../../../../arm-none-eabi/lib/thumb/v7m\libc.a(lib_a-strncasecmp.o)
 .debug_info    0x000162bd       0xf2 c:/users/montoya/documents/classes/cmpe146/lab/cmpe146package_lpc1758/yagarto/bin/../lib/gcc/arm-none-eabi/4.6.2/../../../../arm-none-eabi/lib/thumb/v7m\libc.a(lib_a-strncmp.o)
 .debug_info    0x000163af      0x125 c:/users/montoya/documents/classes/cmpe146/lab/cmpe146package_lpc1758/yagarto/bin/../lib/gcc/arm-none-eabi/4.6.2/../../../../arm-none-eabi/lib/thumb/v7m\libc.a(lib_a-strncpy.o)
 .debug_info    0x000164d4       0xc7 c:/users/montoya/documents/classes/cmpe146/lab/cmpe146package_lpc1758/yagarto/bin/../lib/gcc/arm-none-eabi/4.6.2/../../../../arm-none-eabi/lib/thumb/v7m\libc.a(lib_a-strpbrk.o)
 .debug_info    0x0001659b       0xc7 c:/users/montoya/documents/classes/cmpe146/lab/cmpe146package_lpc1758/yagarto/bin/../lib/gcc/arm-none-eabi/4.6.2/../../../../arm-none-eabi/lib/thumb/v7m\libc.a(lib_a-strrchr.o)
 .debug_info    0x00016662      0x3a0 c:/users/montoya/documents/classes/cmpe146/lab/cmpe146package_lpc1758/yagarto/bin/../lib/gcc/arm-none-eabi/4.6.2/../../../../arm-none-eabi/lib/thumb/v7m\libc.a(lib_a-strstr.o)
 .debug_info    0x00016a02      0xa79 c:/users/montoya/documents/classes/cmpe146/lab/cmpe146package_lpc1758/yagarto/bin/../lib/gcc/arm-none-eabi/4.6.2/../../../../arm-none-eabi/lib/thumb/v7m\libc.a(lib_a-strtol.o)
 .debug_info    0x0001747b      0xd97 c:/users/montoya/documents/classes/cmpe146/lab/cmpe146package_lpc1758/yagarto/bin/../lib/gcc/arm-none-eabi/4.6.2/../../../../arm-none-eabi/lib/thumb/v7m\libc.a(lib_a-svfiprintf.o)
 .debug_info    0x00018212      0x9a2 c:/users/montoya/documents/classes/cmpe146/lab/cmpe146package_lpc1758/yagarto/bin/../lib/gcc/arm-none-eabi/4.6.2/../../../../arm-none-eabi/lib/thumb/v7m\libc.a(lib_a-syswrite.o)
 .debug_info    0x00018bb4       0x83 c:/users/montoya/documents/classes/cmpe146/lab/cmpe146package_lpc1758/yagarto/bin/../lib/gcc/arm-none-eabi/4.6.2/../../../../arm-none-eabi/lib/thumb/v7m\libc.a(lib_a-tolower.o)
 .debug_info    0x00018c37       0x83 c:/users/montoya/documents/classes/cmpe146/lab/cmpe146package_lpc1758/yagarto/bin/../lib/gcc/arm-none-eabi/4.6.2/../../../../arm-none-eabi/lib/thumb/v7m\libc.a(lib_a-toupper.o)
 .debug_info    0x00018cba      0xf50 c:/users/montoya/documents/classes/cmpe146/lab/cmpe146package_lpc1758/yagarto/bin/../lib/gcc/arm-none-eabi/4.6.2/../../../../arm-none-eabi/lib/thumb/v7m\libc.a(lib_a-vfiprintf.o)
 .debug_info    0x00019c0a      0x9fd c:/users/montoya/documents/classes/cmpe146/lab/cmpe146package_lpc1758/yagarto/bin/../lib/gcc/arm-none-eabi/4.6.2/../../../../arm-none-eabi/lib/thumb/v7m\libc.a(lib_a-viprintf.o)
 .debug_info    0x0001a607      0xa4f c:/users/montoya/documents/classes/cmpe146/lab/cmpe146package_lpc1758/yagarto/bin/../lib/gcc/arm-none-eabi/4.6.2/../../../../arm-none-eabi/lib/thumb/v7m\libc.a(lib_a-vsiprintf.o)
 .debug_info    0x0001b056      0xa33 c:/users/montoya/documents/classes/cmpe146/lab/cmpe146package_lpc1758/yagarto/bin/../lib/gcc/arm-none-eabi/4.6.2/../../../../arm-none-eabi/lib/thumb/v7m\libc.a(lib_a-vsiscanf.o)
 .debug_info    0x0001ba89      0xa79 c:/users/montoya/documents/classes/cmpe146/lab/cmpe146package_lpc1758/yagarto/bin/../lib/gcc/arm-none-eabi/4.6.2/../../../../arm-none-eabi/lib/thumb/v7m\libc.a(lib_a-vsniprintf.o)
 .debug_info    0x0001c502      0xa79 c:/users/montoya/documents/classes/cmpe146/lab/cmpe146package_lpc1758/yagarto/bin/../lib/gcc/arm-none-eabi/4.6.2/../../../../arm-none-eabi/lib/thumb/v7m\libc.a(lib_a-vsnprintf.o)
 .debug_info    0x0001cf7b      0x9e5 c:/users/montoya/documents/classes/cmpe146/lab/cmpe146package_lpc1758/yagarto/bin/../lib/gcc/arm-none-eabi/4.6.2/../../../../arm-none-eabi/lib/thumb/v7m\libc.a(lib_a-wbuf.o)
 .debug_info    0x0001d960      0x9d6 c:/users/montoya/documents/classes/cmpe146/lab/cmpe146package_lpc1758/yagarto/bin/../lib/gcc/arm-none-eabi/4.6.2/../../../../arm-none-eabi/lib/thumb/v7m\libc.a(lib_a-writer.o)
 .debug_info    0x0001e336      0x992 c:/users/montoya/documents/classes/cmpe146/lab/cmpe146package_lpc1758/yagarto/bin/../lib/gcc/arm-none-eabi/4.6.2/../../../../arm-none-eabi/lib/thumb/v7m\libc.a(lib_a-wsetup.o)
 .debug_info    0x0001ecc8       0x8b c:/users/montoya/documents/classes/cmpe146/lab/cmpe146package_lpc1758/yagarto/bin/../lib/gcc/arm-none-eabi/4.6.2/../../../../arm-none-eabi/lib/thumb/v7m\libc.a(lib_a-ctype_.o)
 .debug_info    0x0001ed53      0xaae c:/users/montoya/documents/classes/cmpe146/lab/cmpe146package_lpc1758/yagarto/bin/../lib/gcc/arm-none-eabi/4.6.2/../../../../arm-none-eabi/lib/thumb/v7m\libc.a(lib_a-fflush.o)
 .debug_info    0x0001f801      0xbfa c:/users/montoya/documents/classes/cmpe146/lab/cmpe146package_lpc1758/yagarto/bin/../lib/gcc/arm-none-eabi/4.6.2/../../../../arm-none-eabi/lib/thumb/v7m\libc.a(lib_a-findfp.o)
 .debug_info    0x000203fb      0xaa5 c:/users/montoya/documents/classes/cmpe146/lab/cmpe146package_lpc1758/yagarto/bin/../lib/gcc/arm-none-eabi/4.6.2/../../../../arm-none-eabi/lib/thumb/v7m\libc.a(lib_a-fputwc.o)
 .debug_info    0x00020ea0      0xc40 c:/users/montoya/documents/classes/cmpe146/lab/cmpe146package_lpc1758/yagarto/bin/../lib/gcc/arm-none-eabi/4.6.2/../../../../arm-none-eabi/lib/thumb/v7m\libc.a(lib_a-freer.o)
 .debug_info    0x00021ae0      0xab7 c:/users/montoya/documents/classes/cmpe146/lab/cmpe146package_lpc1758/yagarto/bin/../lib/gcc/arm-none-eabi/4.6.2/../../../../arm-none-eabi/lib/thumb/v7m\libc.a(lib_a-fvwrite.o)
 .debug_info    0x00022597      0xb36 c:/users/montoya/documents/classes/cmpe146/lab/cmpe146package_lpc1758/yagarto/bin/../lib/gcc/arm-none-eabi/4.6.2/../../../../arm-none-eabi/lib/thumb/v7m\libc.a(lib_a-fwalk.o)
 .debug_info    0x000230cd      0xc96 c:/users/montoya/documents/classes/cmpe146/lab/cmpe146package_lpc1758/yagarto/bin/../lib/gcc/arm-none-eabi/4.6.2/../../../../arm-none-eabi/lib/thumb/v7m\libc.a(lib_a-locale.o)
 .debug_info    0x00023d63      0xb45 c:/users/montoya/documents/classes/cmpe146/lab/cmpe146package_lpc1758/yagarto/bin/../lib/gcc/arm-none-eabi/4.6.2/../../../../arm-none-eabi/lib/thumb/v7m\libc.a(lib_a-makebuf.o)
 .debug_info    0x000248a8      0xb27 c:/users/montoya/documents/classes/cmpe146/lab/cmpe146package_lpc1758/yagarto/bin/../lib/gcc/arm-none-eabi/4.6.2/../../../../arm-none-eabi/lib/thumb/v7m\libc.a(lib_a-mallinfor.o)
 .debug_info    0x000253cf      0x9b1 c:/users/montoya/documents/classes/cmpe146/lab/cmpe146package_lpc1758/yagarto/bin/../lib/gcc/arm-none-eabi/4.6.2/../../../../arm-none-eabi/lib/thumb/v7m\libc.a(lib_a-malloptr.o)
 .debug_info    0x00025d80      0xa7f c:/users/montoya/documents/classes/cmpe146/lab/cmpe146package_lpc1758/yagarto/bin/../lib/gcc/arm-none-eabi/4.6.2/../../../../arm-none-eabi/lib/thumb/v7m\libc.a(lib_a-mallstatsr.o)
 .debug_info    0x000267ff      0x122 c:/users/montoya/documents/classes/cmpe146/lab/cmpe146package_lpc1758/yagarto/bin/../lib/gcc/arm-none-eabi/4.6.2/../../../../arm-none-eabi/lib/thumb/v7m\libc.a(lib_a-memchr.o)
 .debug_info    0x00026921      0xa64 c:/users/montoya/documents/classes/cmpe146/lab/cmpe146package_lpc1758/yagarto/bin/../lib/gcc/arm-none-eabi/4.6.2/../../../../arm-none-eabi/lib/thumb/v7m\libc.a(lib_a-reent.o)
 .debug_info    0x00027385      0xb35 c:/users/montoya/documents/classes/cmpe146/lab/cmpe146package_lpc1758/yagarto/bin/../lib/gcc/arm-none-eabi/4.6.2/../../../../arm-none-eabi/lib/thumb/v7m\libc.a(lib_a-stdio.o)
 .debug_info    0x00027eba      0xe6b c:/users/montoya/documents/classes/cmpe146/lab/cmpe146package_lpc1758/yagarto/bin/../lib/gcc/arm-none-eabi/4.6.2/../../../../arm-none-eabi/lib/thumb/v7m\libc.a(lib_a-svfiscanf.o)
 .debug_info    0x00028d25     0x1015 c:/users/montoya/documents/classes/cmpe146/lab/cmpe146package_lpc1758/yagarto/bin/../lib/gcc/arm-none-eabi/4.6.2/../../../../arm-none-eabi/lib/thumb/v7m\libc.a(lib_a-svfprintf.o)
 .debug_info    0x00029d3a      0xa38 c:/users/montoya/documents/classes/cmpe146/lab/cmpe146package_lpc1758/yagarto/bin/../lib/gcc/arm-none-eabi/4.6.2/../../../../arm-none-eabi/lib/thumb/v7m\libc.a(lib_a-ungetc.o)
 .debug_info    0x0002a772      0xa99 c:/users/montoya/documents/classes/cmpe146/lab/cmpe146package_lpc1758/yagarto/bin/../lib/gcc/arm-none-eabi/4.6.2/../../../../arm-none-eabi/lib/thumb/v7m\libc.a(lib_a-wcrtomb.o)
 .debug_info    0x0002b20b      0xa61 c:/users/montoya/documents/classes/cmpe146/lab/cmpe146package_lpc1758/yagarto/bin/../lib/gcc/arm-none-eabi/4.6.2/../../../../arm-none-eabi/lib/thumb/v7m\libc.a(lib_a-wctomb_r.o)
 .debug_info    0x0002bc6c      0x99b c:/users/montoya/documents/classes/cmpe146/lab/cmpe146package_lpc1758/yagarto/bin/../lib/gcc/arm-none-eabi/4.6.2/../../../../arm-none-eabi/lib/thumb/v7m\libc.a(lib_a-closer.o)
 .debug_info    0x0002c607      0xdce c:/users/montoya/documents/classes/cmpe146/lab/cmpe146package_lpc1758/yagarto/bin/../lib/gcc/arm-none-eabi/4.6.2/../../../../arm-none-eabi/lib/thumb/v7m\libc.a(lib_a-dtoa.o)
 .debug_info    0x0002d3d5      0x9cb c:/users/montoya/documents/classes/cmpe146/lab/cmpe146package_lpc1758/yagarto/bin/../lib/gcc/arm-none-eabi/4.6.2/../../../../arm-none-eabi/lib/thumb/v7m\libc.a(lib_a-fclose.o)
 .debug_info    0x0002dda0      0xb3f c:/users/montoya/documents/classes/cmpe146/lab/cmpe146package_lpc1758/yagarto/bin/../lib/gcc/arm-none-eabi/4.6.2/../../../../arm-none-eabi/lib/thumb/v7m\libc.a(lib_a-fstatr.o)
 .debug_info    0x0002e8df      0x99b c:/users/montoya/documents/classes/cmpe146/lab/cmpe146package_lpc1758/yagarto/bin/../lib/gcc/arm-none-eabi/4.6.2/../../../../arm-none-eabi/lib/thumb/v7m\libc.a(lib_a-isattyr.o)
 .debug_info    0x0002f27a       0xce c:/users/montoya/documents/classes/cmpe146/lab/cmpe146package_lpc1758/yagarto/bin/../lib/gcc/arm-none-eabi/4.6.2/../../../../arm-none-eabi/lib/thumb/v7m\libc.a(lib_a-iswspace.o)
 .debug_info    0x0002f348      0x9c4 c:/users/montoya/documents/classes/cmpe146/lab/cmpe146package_lpc1758/yagarto/bin/../lib/gcc/arm-none-eabi/4.6.2/../../../../arm-none-eabi/lib/thumb/v7m\libc.a(lib_a-lseekr.o)
 .debug_info    0x0002fd0c      0xa93 c:/users/montoya/documents/classes/cmpe146/lab/cmpe146package_lpc1758/yagarto/bin/../lib/gcc/arm-none-eabi/4.6.2/../../../../arm-none-eabi/lib/thumb/v7m\libc.a(lib_a-mbrtowc.o)
 .debug_info    0x0003079f      0xa8f c:/users/montoya/documents/classes/cmpe146/lab/cmpe146package_lpc1758/yagarto/bin/../lib/gcc/arm-none-eabi/4.6.2/../../../../arm-none-eabi/lib/thumb/v7m\libc.a(lib_a-mbtowc_r.o)
 .debug_info    0x0003122e     0x14d9 c:/users/montoya/documents/classes/cmpe146/lab/cmpe146package_lpc1758/yagarto/bin/../lib/gcc/arm-none-eabi/4.6.2/../../../../arm-none-eabi/lib/thumb/v7m\libc.a(lib_a-mprec.o)
 .debug_info    0x00032707      0x9cf c:/users/montoya/documents/classes/cmpe146/lab/cmpe146package_lpc1758/yagarto/bin/../lib/gcc/arm-none-eabi/4.6.2/../../../../arm-none-eabi/lib/thumb/v7m\libc.a(lib_a-readr.o)
 .debug_info    0x000330d6      0x143 c:/users/montoya/documents/classes/cmpe146/lab/cmpe146package_lpc1758/yagarto/bin/../lib/gcc/arm-none-eabi/4.6.2/../../../../arm-none-eabi/lib/thumb/v7m\libc.a(lib_a-s_fpclassify.o)
 .debug_info    0x00033219       0xf8 c:/users/montoya/documents/classes/cmpe146/lab/cmpe146package_lpc1758/yagarto/bin/../lib/gcc/arm-none-eabi/4.6.2/../../../../arm-none-eabi/lib/thumb/v7m\libc.a(lib_a-sccl.o)
 .debug_info    0x00033311      0xa79 c:/users/montoya/documents/classes/cmpe146/lab/cmpe146package_lpc1758/yagarto/bin/../lib/gcc/arm-none-eabi/4.6.2/../../../../arm-none-eabi/lib/thumb/v7m\libc.a(lib_a-strtoul.o)
 .debug_info    0x00033d8a      0xa4e c:/users/montoya/documents/classes/cmpe146/lab/cmpe146package_lpc1758/yagarto/bin/../lib/gcc/arm-none-eabi/4.6.2/../../../../arm-none-eabi/lib/thumb/v7m\libc.a(lib_a-callocr.o)
 .debug_info    0x000347d8       0xa8 c:/users/montoya/documents/classes/cmpe146/lab/cmpe146package_lpc1758/yagarto/bin/../lib/gcc/arm-none-eabi/4.6.2/thumb/v7m\libgcc.a(_udivsi3.o)
 .debug_info    0x00034880       0xa8 c:/users/montoya/documents/classes/cmpe146/lab/cmpe146package_lpc1758/yagarto/bin/../lib/gcc/arm-none-eabi/4.6.2/thumb/v7m\libgcc.a(_dvmd_tls.o)

.debug_abbrev   0x00000000     0xb2fd
 .debug_abbrev  0x00000000      0x2b5 c:/users/montoya/documents/classes/cmpe146/lab/cmpe146package_lpc1758/yagarto/bin/../lib/gcc/arm-none-eabi/4.6.2/../../../../arm-none-eabi/lib/thumb/v7m\libstdc++.a(guard.o)
 .debug_abbrev  0x000002b5      0x11f c:/users/montoya/documents/classes/cmpe146/lab/cmpe146package_lpc1758/yagarto/bin/../lib/gcc/arm-none-eabi/4.6.2/../../../../arm-none-eabi/lib/thumb/v7m\libstdc++.a(guard_error.o)
 .debug_abbrev  0x000003d4       0x6d c:/users/montoya/documents/classes/cmpe146/lab/cmpe146package_lpc1758/yagarto/bin/../lib/gcc/arm-none-eabi/4.6.2/../../../../arm-none-eabi/lib/thumb/v7m\libstdc++.a(pure.o)
 .debug_abbrev  0x00000441      0x2f8 c:/users/montoya/documents/classes/cmpe146/lab/cmpe146package_lpc1758/yagarto/bin/../lib/gcc/arm-none-eabi/4.6.2/../../../../arm-none-eabi/lib/thumb/v7m\libstdc++.a(si_class_type_info.o)
 .debug_abbrev  0x00000739      0x299 c:/users/montoya/documents/classes/cmpe146/lab/cmpe146package_lpc1758/yagarto/bin/../lib/gcc/arm-none-eabi/4.6.2/../../../../arm-none-eabi/lib/thumb/v7m\libstdc++.a(tinfo.o)
 .debug_abbrev  0x000009d2      0x3a2 c:/users/montoya/documents/classes/cmpe146/lab/cmpe146package_lpc1758/yagarto/bin/../lib/gcc/arm-none-eabi/4.6.2/../../../../arm-none-eabi/lib/thumb/v7m\libstdc++.a(class_type_info.o)
 .debug_abbrev  0x00000d74      0x44c c:/users/montoya/documents/classes/cmpe146/lab/cmpe146package_lpc1758/yagarto/bin/../lib/gcc/arm-none-eabi/4.6.2/../../../../arm-none-eabi/lib/thumb/v7m\libstdc++.a(eh_alloc.o)
 .debug_abbrev  0x000011c0      0x226 c:/users/montoya/documents/classes/cmpe146/lab/cmpe146package_lpc1758/yagarto/bin/../lib/gcc/arm-none-eabi/4.6.2/../../../../arm-none-eabi/lib/thumb/v7m\libstdc++.a(eh_exception.o)
 .debug_abbrev  0x000013e6      0x1b5 c:/users/montoya/documents/classes/cmpe146/lab/cmpe146package_lpc1758/yagarto/bin/../lib/gcc/arm-none-eabi/4.6.2/../../../../arm-none-eabi/lib/thumb/v7m\libstdc++.a(eh_globals.o)
 .debug_abbrev  0x0000159b      0x219 c:/users/montoya/documents/classes/cmpe146/lab/cmpe146package_lpc1758/yagarto/bin/../lib/gcc/arm-none-eabi/4.6.2/../../../../arm-none-eabi/lib/thumb/v7m\libstdc++.a(eh_terminate.o)
 .debug_abbrev  0x000017b4       0x7c c:/users/montoya/documents/classes/cmpe146/lab/cmpe146package_lpc1758/yagarto/bin/../lib/gcc/arm-none-eabi/4.6.2/../../../../arm-none-eabi/lib/thumb/v7m\libstdc++.a(eh_term_handler.o)
 .debug_abbrev  0x00001830      0x25f c:/users/montoya/documents/classes/cmpe146/lab/cmpe146package_lpc1758/yagarto/bin/../lib/gcc/arm-none-eabi/4.6.2/../../../../arm-none-eabi/lib/thumb/v7m\libstdc++.a(eh_throw.o)
 .debug_abbrev  0x00001a8f       0x7c c:/users/montoya/documents/classes/cmpe146/lab/cmpe146package_lpc1758/yagarto/bin/../lib/gcc/arm-none-eabi/4.6.2/../../../../arm-none-eabi/lib/thumb/v7m\libstdc++.a(eh_unex_handler.o)
 .debug_abbrev  0x00001b0b      0x29a c:/users/montoya/documents/classes/cmpe146/lab/cmpe146package_lpc1758/yagarto/bin/../lib/gcc/arm-none-eabi/4.6.2/../../../../arm-none-eabi/lib/thumb/v7m\libstdc++.a(eh_arm.o)
 .debug_abbrev  0x00001da5      0x190 c:/users/montoya/documents/classes/cmpe146/lab/cmpe146package_lpc1758/yagarto/bin/../lib/gcc/arm-none-eabi/4.6.2/../../../../arm-none-eabi/lib/thumb/v7m\libstdc++.a(eh_aux_runtime.o)
 .debug_abbrev  0x00001f35      0x36e c:/users/montoya/documents/classes/cmpe146/lab/cmpe146package_lpc1758/yagarto/bin/../lib/gcc/arm-none-eabi/4.6.2/../../../../arm-none-eabi/lib/thumb/v7m\libstdc++.a(eh_call.o)
 .debug_abbrev  0x000022a3      0x290 c:/users/montoya/documents/classes/cmpe146/lab/cmpe146package_lpc1758/yagarto/bin/../lib/gcc/arm-none-eabi/4.6.2/../../../../arm-none-eabi/lib/thumb/v7m\libstdc++.a(eh_catch.o)
 .debug_abbrev  0x00002533      0x47b c:/users/montoya/documents/classes/cmpe146/lab/cmpe146package_lpc1758/yagarto/bin/../lib/gcc/arm-none-eabi/4.6.2/../../../../arm-none-eabi/lib/thumb/v7m\libstdc++.a(eh_personality.o)
 .debug_abbrev  0x000029ae      0x164 c:/users/montoya/documents/classes/cmpe146/lab/cmpe146package_lpc1758/yagarto/bin/../lib/gcc/arm-none-eabi/4.6.2/../../../../arm-none-eabi/lib/thumb/v7m\libstdc++.a(fundamental_type_info.o)
 .debug_abbrev  0x00002b12      0x208 c:/users/montoya/documents/classes/cmpe146/lab/cmpe146package_lpc1758/yagarto/bin/../lib/gcc/arm-none-eabi/4.6.2/../../../../arm-none-eabi/lib/thumb/v7m\libstdc++.a(pointer_type_info.o)
 .debug_abbrev  0x00002d1a      0x136 c:/users/montoya/documents/classes/cmpe146/lab/cmpe146package_lpc1758/yagarto/bin/../lib/gcc/arm-none-eabi/4.6.2/../../../../arm-none-eabi/lib/thumb/v7m\libstdc++.a(bad_cast.o)
 .debug_abbrev  0x00002e50      0x136 c:/users/montoya/documents/classes/cmpe146/lab/cmpe146package_lpc1758/yagarto/bin/../lib/gcc/arm-none-eabi/4.6.2/../../../../arm-none-eabi/lib/thumb/v7m\libstdc++.a(bad_typeid.o)
 .debug_abbrev  0x00002f86      0x280 c:/users/montoya/documents/classes/cmpe146/lab/cmpe146package_lpc1758/yagarto/bin/../lib/gcc/arm-none-eabi/4.6.2/../../../../arm-none-eabi/lib/thumb/v7m\libstdc++.a(pbase_type_info.o)
 .debug_abbrev  0x00003206       0x14 c:/users/montoya/documents/classes/cmpe146/lab/cmpe146package_lpc1758/yagarto/bin/../lib/gcc/arm-none-eabi/4.6.2/thumb/v7m\libgcc.a(_arm_addsubdf3.o)
 .debug_abbrev  0x0000321a       0x14 c:/users/montoya/documents/classes/cmpe146/lab/cmpe146package_lpc1758/yagarto/bin/../lib/gcc/arm-none-eabi/4.6.2/thumb/v7m\libgcc.a(_arm_muldivdf3.o)
 .debug_abbrev  0x0000322e       0x14 c:/users/montoya/documents/classes/cmpe146/lab/cmpe146package_lpc1758/yagarto/bin/../lib/gcc/arm-none-eabi/4.6.2/thumb/v7m\libgcc.a(_arm_cmpdf2.o)
 .debug_abbrev  0x00003242       0x14 c:/users/montoya/documents/classes/cmpe146/lab/cmpe146package_lpc1758/yagarto/bin/../lib/gcc/arm-none-eabi/4.6.2/thumb/v7m\libgcc.a(_arm_fixdfsi.o)
 .debug_abbrev  0x00003256       0x14 c:/users/montoya/documents/classes/cmpe146/lab/cmpe146package_lpc1758/yagarto/bin/../lib/gcc/arm-none-eabi/4.6.2/thumb/v7m\libgcc.a(_arm_fixunsdfsi.o)
 .debug_abbrev  0x0000326a       0x14 c:/users/montoya/documents/classes/cmpe146/lab/cmpe146package_lpc1758/yagarto/bin/../lib/gcc/arm-none-eabi/4.6.2/thumb/v7m\libgcc.a(_arm_truncdfsf2.o)
 .debug_abbrev  0x0000327e       0x14 c:/users/montoya/documents/classes/cmpe146/lab/cmpe146package_lpc1758/yagarto/bin/../lib/gcc/arm-none-eabi/4.6.2/thumb/v7m\libgcc.a(_arm_addsubsf3.o)
 .debug_abbrev  0x00003292       0x14 c:/users/montoya/documents/classes/cmpe146/lab/cmpe146package_lpc1758/yagarto/bin/../lib/gcc/arm-none-eabi/4.6.2/thumb/v7m\libgcc.a(_arm_muldivsf3.o)
 .debug_abbrev  0x000032a6       0x14 c:/users/montoya/documents/classes/cmpe146/lab/cmpe146package_lpc1758/yagarto/bin/../lib/gcc/arm-none-eabi/4.6.2/thumb/v7m\libgcc.a(_arm_cmpsf2.o)
 .debug_abbrev  0x000032ba       0x14 c:/users/montoya/documents/classes/cmpe146/lab/cmpe146package_lpc1758/yagarto/bin/../lib/gcc/arm-none-eabi/4.6.2/thumb/v7m\libgcc.a(_arm_fixsfsi.o)
 .debug_abbrev  0x000032ce      0x2fc c:/users/montoya/documents/classes/cmpe146/lab/cmpe146package_lpc1758/yagarto/bin/../lib/gcc/arm-none-eabi/4.6.2/thumb/v7m\libgcc.a(unwind-arm.o)
 .debug_abbrev  0x000035ca       0x14 c:/users/montoya/documents/classes/cmpe146/lab/cmpe146package_lpc1758/yagarto/bin/../lib/gcc/arm-none-eabi/4.6.2/thumb/v7m\libgcc.a(libunwind.o)
 .debug_abbrev  0x000035de      0x226 c:/users/montoya/documents/classes/cmpe146/lab/cmpe146package_lpc1758/yagarto/bin/../lib/gcc/arm-none-eabi/4.6.2/thumb/v7m\libgcc.a(pr-support.o)
 .debug_abbrev  0x00003804       0x3f c:/users/montoya/documents/classes/cmpe146/lab/cmpe146package_lpc1758/yagarto/bin/../lib/gcc/arm-none-eabi/4.6.2/../../../../arm-none-eabi/lib/thumb/v7m\libc.a(lib_a-abort.o)
 .debug_abbrev  0x00003843      0x17d c:/users/montoya/documents/classes/cmpe146/lab/cmpe146package_lpc1758/yagarto/bin/../lib/gcc/arm-none-eabi/4.6.2/../../../../arm-none-eabi/lib/thumb/v7m\libc.a(lib_a-assert.o)
 .debug_abbrev  0x000039c0      0x185 c:/users/montoya/documents/classes/cmpe146/lab/cmpe146package_lpc1758/yagarto/bin/../lib/gcc/arm-none-eabi/4.6.2/../../../../arm-none-eabi/lib/thumb/v7m\libc.a(lib_a-atoi.o)
 .debug_abbrev  0x00003b45      0x1c8 c:/users/montoya/documents/classes/cmpe146/lab/cmpe146package_lpc1758/yagarto/bin/../lib/gcc/arm-none-eabi/4.6.2/../../../../arm-none-eabi/lib/thumb/v7m\libc.a(lib_a-fiprintf.o)
 .debug_abbrev  0x00003d0d      0x166 c:/users/montoya/documents/classes/cmpe146/lab/cmpe146package_lpc1758/yagarto/bin/../lib/gcc/arm-none-eabi/4.6.2/../../../../arm-none-eabi/lib/thumb/v7m\libc.a(lib_a-impure.o)
 .debug_abbrev  0x00003e73       0x9b c:/users/montoya/documents/classes/cmpe146/lab/cmpe146package_lpc1758/yagarto/bin/../lib/gcc/arm-none-eabi/4.6.2/../../../../arm-none-eabi/lib/thumb/v7m\libc.a(lib_a-init.o)
 .debug_abbrev  0x00003f0e       0x73 c:/users/montoya/documents/classes/cmpe146/lab/cmpe146package_lpc1758/yagarto/bin/../lib/gcc/arm-none-eabi/4.6.2/../../../../arm-none-eabi/lib/thumb/v7m\libc.a(lib_a-isalnum.o)
 .debug_abbrev  0x00003f81       0x73 c:/users/montoya/documents/classes/cmpe146/lab/cmpe146package_lpc1758/yagarto/bin/../lib/gcc/arm-none-eabi/4.6.2/../../../../arm-none-eabi/lib/thumb/v7m\libc.a(lib_a-isalpha.o)
 .debug_abbrev  0x00003ff4      0x196 c:/users/montoya/documents/classes/cmpe146/lab/cmpe146package_lpc1758/yagarto/bin/../lib/gcc/arm-none-eabi/4.6.2/../../../../arm-none-eabi/lib/thumb/v7m\libc.a(lib_a-malloc.o)
 .debug_abbrev  0x0000418a      0x233 c:/users/montoya/documents/classes/cmpe146/lab/cmpe146package_lpc1758/yagarto/bin/../lib/gcc/arm-none-eabi/4.6.2/../../../../arm-none-eabi/lib/thumb/v7m\libc.a(lib_a-mallocr.o)
 .debug_abbrev  0x000043bd       0x7c c:/users/montoya/documents/classes/cmpe146/lab/cmpe146package_lpc1758/yagarto/bin/../lib/gcc/arm-none-eabi/4.6.2/../../../../arm-none-eabi/lib/thumb/v7m\libc.a(lib_a-memcmp.o)
 .debug_abbrev  0x00004439       0x99 c:/users/montoya/documents/classes/cmpe146/lab/cmpe146package_lpc1758/yagarto/bin/../lib/gcc/arm-none-eabi/4.6.2/../../../../arm-none-eabi/lib/thumb/v7m\libc.a(lib_a-memcpy.o)
 .debug_abbrev  0x000044d2       0xa8 c:/users/montoya/documents/classes/cmpe146/lab/cmpe146package_lpc1758/yagarto/bin/../lib/gcc/arm-none-eabi/4.6.2/../../../../arm-none-eabi/lib/thumb/v7m\libc.a(lib_a-memmove.o)
 .debug_abbrev  0x0000457a       0x8d c:/users/montoya/documents/classes/cmpe146/lab/cmpe146package_lpc1758/yagarto/bin/../lib/gcc/arm-none-eabi/4.6.2/../../../../arm-none-eabi/lib/thumb/v7m\libc.a(lib_a-memset.o)
 .debug_abbrev  0x00004607      0x179 c:/users/montoya/documents/classes/cmpe146/lab/cmpe146package_lpc1758/yagarto/bin/../lib/gcc/arm-none-eabi/4.6.2/../../../../arm-none-eabi/lib/thumb/v7m\libc.a(lib_a-mlock.o)
 .debug_abbrev  0x00004780      0x1d9 c:/users/montoya/documents/classes/cmpe146/lab/cmpe146package_lpc1758/yagarto/bin/../lib/gcc/arm-none-eabi/4.6.2/../../../../arm-none-eabi/lib/thumb/v7m\libc.a(lib_a-mstats.o)
 .debug_abbrev  0x00004959      0x1bb c:/users/montoya/documents/classes/cmpe146/lab/cmpe146package_lpc1758/yagarto/bin/../lib/gcc/arm-none-eabi/4.6.2/../../../../arm-none-eabi/lib/thumb/v7m\libc.a(lib_a-puts.o)
 .debug_abbrev  0x00004b14      0x18e c:/users/montoya/documents/classes/cmpe146/lab/cmpe146package_lpc1758/yagarto/bin/../lib/gcc/arm-none-eabi/4.6.2/../../../../arm-none-eabi/lib/thumb/v7m\libc.a(lib_a-realloc.o)
 .debug_abbrev  0x00004ca2      0x1db c:/users/montoya/documents/classes/cmpe146/lab/cmpe146package_lpc1758/yagarto/bin/../lib/gcc/arm-none-eabi/4.6.2/../../../../arm-none-eabi/lib/thumb/v7m\libc.a(lib_a-reallocr.o)
 .debug_abbrev  0x00004e7d      0x1b0 c:/users/montoya/documents/classes/cmpe146/lab/cmpe146package_lpc1758/yagarto/bin/../lib/gcc/arm-none-eabi/4.6.2/../../../../arm-none-eabi/lib/thumb/v7m\libc.a(lib_a-sbrkr.o)
 .debug_abbrev  0x0000502d      0x1aa c:/users/montoya/documents/classes/cmpe146/lab/cmpe146package_lpc1758/yagarto/bin/../lib/gcc/arm-none-eabi/4.6.2/../../../../arm-none-eabi/lib/thumb/v7m\libc.a(lib_a-setvbuf.o)
 .debug_abbrev  0x000051d7      0x23a c:/users/montoya/documents/classes/cmpe146/lab/cmpe146package_lpc1758/yagarto/bin/../lib/gcc/arm-none-eabi/4.6.2/../../../../arm-none-eabi/lib/thumb/v7m\libc.a(lib_a-signal.o)
 .debug_abbrev  0x00005411      0x1ca c:/users/montoya/documents/classes/cmpe146/lab/cmpe146package_lpc1758/yagarto/bin/../lib/gcc/arm-none-eabi/4.6.2/../../../../arm-none-eabi/lib/thumb/v7m\libc.a(lib_a-signalr.o)
 .debug_abbrev  0x000055db      0x1af c:/users/montoya/documents/classes/cmpe146/lab/cmpe146package_lpc1758/yagarto/bin/../lib/gcc/arm-none-eabi/4.6.2/../../../../arm-none-eabi/lib/thumb/v7m\libc.a(lib_a-siprintf.o)
 .debug_abbrev  0x0000578a       0xb9 c:/users/montoya/documents/classes/cmpe146/lab/cmpe146package_lpc1758/yagarto/bin/../lib/gcc/arm-none-eabi/4.6.2/../../../../arm-none-eabi/lib/thumb/v7m\libc.a(lib_a-strcasecmp.o)
 .debug_abbrev  0x00005843       0x87 c:/users/montoya/documents/classes/cmpe146/lab/cmpe146package_lpc1758/yagarto/bin/../lib/gcc/arm-none-eabi/4.6.2/../../../../arm-none-eabi/lib/thumb/v7m\libc.a(lib_a-strcat.o)
 .debug_abbrev  0x000058ca       0x80 c:/users/montoya/documents/classes/cmpe146/lab/cmpe146package_lpc1758/yagarto/bin/../lib/gcc/arm-none-eabi/4.6.2/../../../../arm-none-eabi/lib/thumb/v7m\libc.a(lib_a-strchr.o)
 .debug_abbrev  0x0000594a       0x86 c:/users/montoya/documents/classes/cmpe146/lab/cmpe146package_lpc1758/yagarto/bin/../lib/gcc/arm-none-eabi/4.6.2/../../../../arm-none-eabi/lib/thumb/v7m\libc.a(lib_a-strcmp.o)
 .debug_abbrev  0x000059d0       0x6f c:/users/montoya/documents/classes/cmpe146/lab/cmpe146package_lpc1758/yagarto/bin/../lib/gcc/arm-none-eabi/4.6.2/../../../../arm-none-eabi/lib/thumb/v7m\libc.a(lib_a-strcpy.o)
 .debug_abbrev  0x00005a3f       0x6d c:/users/montoya/documents/classes/cmpe146/lab/cmpe146package_lpc1758/yagarto/bin/../lib/gcc/arm-none-eabi/4.6.2/../../../../arm-none-eabi/lib/thumb/v7m\libc.a(lib_a-strlen.o)
 .debug_abbrev  0x00005aac       0xae c:/users/montoya/documents/classes/cmpe146/lab/cmpe146package_lpc1758/yagarto/bin/../lib/gcc/arm-none-eabi/4.6.2/../../../../arm-none-eabi/lib/thumb/v7m\libc.a(lib_a-strncasecmp.o)
 .debug_abbrev  0x00005b5a       0x7e c:/users/montoya/documents/classes/cmpe146/lab/cmpe146package_lpc1758/yagarto/bin/../lib/gcc/arm-none-eabi/4.6.2/../../../../arm-none-eabi/lib/thumb/v7m\libc.a(lib_a-strncmp.o)
 .debug_abbrev  0x00005bd8       0x9c c:/users/montoya/documents/classes/cmpe146/lab/cmpe146package_lpc1758/yagarto/bin/../lib/gcc/arm-none-eabi/4.6.2/../../../../arm-none-eabi/lib/thumb/v7m\libc.a(lib_a-strncpy.o)
 .debug_abbrev  0x00005c74       0x6f c:/users/montoya/documents/classes/cmpe146/lab/cmpe146package_lpc1758/yagarto/bin/../lib/gcc/arm-none-eabi/4.6.2/../../../../arm-none-eabi/lib/thumb/v7m\libc.a(lib_a-strpbrk.o)
 .debug_abbrev  0x00005ce3       0x6f c:/users/montoya/documents/classes/cmpe146/lab/cmpe146package_lpc1758/yagarto/bin/../lib/gcc/arm-none-eabi/4.6.2/../../../../arm-none-eabi/lib/thumb/v7m\libc.a(lib_a-strrchr.o)
 .debug_abbrev  0x00005d52      0x186 c:/users/montoya/documents/classes/cmpe146/lab/cmpe146package_lpc1758/yagarto/bin/../lib/gcc/arm-none-eabi/4.6.2/../../../../arm-none-eabi/lib/thumb/v7m\libc.a(lib_a-strstr.o)
 .debug_abbrev  0x00005ed8      0x1bd c:/users/montoya/documents/classes/cmpe146/lab/cmpe146package_lpc1758/yagarto/bin/../lib/gcc/arm-none-eabi/4.6.2/../../../../arm-none-eabi/lib/thumb/v7m\libc.a(lib_a-strtol.o)
 .debug_abbrev  0x00006095      0x262 c:/users/montoya/documents/classes/cmpe146/lab/cmpe146package_lpc1758/yagarto/bin/../lib/gcc/arm-none-eabi/4.6.2/../../../../arm-none-eabi/lib/thumb/v7m\libc.a(lib_a-svfiprintf.o)
 .debug_abbrev  0x000062f7      0x184 c:/users/montoya/documents/classes/cmpe146/lab/cmpe146package_lpc1758/yagarto/bin/../lib/gcc/arm-none-eabi/4.6.2/../../../../arm-none-eabi/lib/thumb/v7m\libc.a(lib_a-syswrite.o)
 .debug_abbrev  0x0000647b       0x73 c:/users/montoya/documents/classes/cmpe146/lab/cmpe146package_lpc1758/yagarto/bin/../lib/gcc/arm-none-eabi/4.6.2/../../../../arm-none-eabi/lib/thumb/v7m\libc.a(lib_a-tolower.o)
 .debug_abbrev  0x000064ee       0x73 c:/users/montoya/documents/classes/cmpe146/lab/cmpe146package_lpc1758/yagarto/bin/../lib/gcc/arm-none-eabi/4.6.2/../../../../arm-none-eabi/lib/thumb/v7m\libc.a(lib_a-toupper.o)
 .debug_abbrev  0x00006561      0x31c c:/users/montoya/documents/classes/cmpe146/lab/cmpe146package_lpc1758/yagarto/bin/../lib/gcc/arm-none-eabi/4.6.2/../../../../arm-none-eabi/lib/thumb/v7m\libc.a(lib_a-vfiprintf.o)
 .debug_abbrev  0x0000687d      0x18c c:/users/montoya/documents/classes/cmpe146/lab/cmpe146package_lpc1758/yagarto/bin/../lib/gcc/arm-none-eabi/4.6.2/../../../../arm-none-eabi/lib/thumb/v7m\libc.a(lib_a-viprintf.o)
 .debug_abbrev  0x00006a09      0x1b1 c:/users/montoya/documents/classes/cmpe146/lab/cmpe146package_lpc1758/yagarto/bin/../lib/gcc/arm-none-eabi/4.6.2/../../../../arm-none-eabi/lib/thumb/v7m\libc.a(lib_a-vsiprintf.o)
 .debug_abbrev  0x00006bba      0x19b c:/users/montoya/documents/classes/cmpe146/lab/cmpe146package_lpc1758/yagarto/bin/../lib/gcc/arm-none-eabi/4.6.2/../../../../arm-none-eabi/lib/thumb/v7m\libc.a(lib_a-vsiscanf.o)
 .debug_abbrev  0x00006d55      0x1de c:/users/montoya/documents/classes/cmpe146/lab/cmpe146package_lpc1758/yagarto/bin/../lib/gcc/arm-none-eabi/4.6.2/../../../../arm-none-eabi/lib/thumb/v7m\libc.a(lib_a-vsniprintf.o)
 .debug_abbrev  0x00006f33      0x1de c:/users/montoya/documents/classes/cmpe146/lab/cmpe146package_lpc1758/yagarto/bin/../lib/gcc/arm-none-eabi/4.6.2/../../../../arm-none-eabi/lib/thumb/v7m\libc.a(lib_a-vsnprintf.o)
 .debug_abbrev  0x00007111      0x1a7 c:/users/montoya/documents/classes/cmpe146/lab/cmpe146package_lpc1758/yagarto/bin/../lib/gcc/arm-none-eabi/4.6.2/../../../../arm-none-eabi/lib/thumb/v7m\libc.a(lib_a-wbuf.o)
 .debug_abbrev  0x000072b8      0x1a9 c:/users/montoya/documents/classes/cmpe146/lab/cmpe146package_lpc1758/yagarto/bin/../lib/gcc/arm-none-eabi/4.6.2/../../../../arm-none-eabi/lib/thumb/v7m\libc.a(lib_a-writer.o)
 .debug_abbrev  0x00007461      0x17f c:/users/montoya/documents/classes/cmpe146/lab/cmpe146package_lpc1758/yagarto/bin/../lib/gcc/arm-none-eabi/4.6.2/../../../../arm-none-eabi/lib/thumb/v7m\libc.a(lib_a-wsetup.o)
 .debug_abbrev  0x000075e0       0x63 c:/users/montoya/documents/classes/cmpe146/lab/cmpe146package_lpc1758/yagarto/bin/../lib/gcc/arm-none-eabi/4.6.2/../../../../arm-none-eabi/lib/thumb/v7m\libc.a(lib_a-ctype_.o)
 .debug_abbrev  0x00007643      0x1fe c:/users/montoya/documents/classes/cmpe146/lab/cmpe146package_lpc1758/yagarto/bin/../lib/gcc/arm-none-eabi/4.6.2/../../../../arm-none-eabi/lib/thumb/v7m\libc.a(lib_a-fflush.o)
 .debug_abbrev  0x00007841      0x289 c:/users/montoya/documents/classes/cmpe146/lab/cmpe146package_lpc1758/yagarto/bin/../lib/gcc/arm-none-eabi/4.6.2/../../../../arm-none-eabi/lib/thumb/v7m\libc.a(lib_a-findfp.o)
 .debug_abbrev  0x00007aca      0x1f5 c:/users/montoya/documents/classes/cmpe146/lab/cmpe146package_lpc1758/yagarto/bin/../lib/gcc/arm-none-eabi/4.6.2/../../../../arm-none-eabi/lib/thumb/v7m\libc.a(lib_a-fputwc.o)
 .debug_abbrev  0x00007cbf      0x1ea c:/users/montoya/documents/classes/cmpe146/lab/cmpe146package_lpc1758/yagarto/bin/../lib/gcc/arm-none-eabi/4.6.2/../../../../arm-none-eabi/lib/thumb/v7m\libc.a(lib_a-freer.o)
 .debug_abbrev  0x00007ea9      0x1a7 c:/users/montoya/documents/classes/cmpe146/lab/cmpe146package_lpc1758/yagarto/bin/../lib/gcc/arm-none-eabi/4.6.2/../../../../arm-none-eabi/lib/thumb/v7m\libc.a(lib_a-fvwrite.o)
 .debug_abbrev  0x00008050      0x210 c:/users/montoya/documents/classes/cmpe146/lab/cmpe146package_lpc1758/yagarto/bin/../lib/gcc/arm-none-eabi/4.6.2/../../../../arm-none-eabi/lib/thumb/v7m\libc.a(lib_a-fwalk.o)
 .debug_abbrev  0x00008260      0x25e c:/users/montoya/documents/classes/cmpe146/lab/cmpe146package_lpc1758/yagarto/bin/../lib/gcc/arm-none-eabi/4.6.2/../../../../arm-none-eabi/lib/thumb/v7m\libc.a(lib_a-locale.o)
 .debug_abbrev  0x000084be      0x199 c:/users/montoya/documents/classes/cmpe146/lab/cmpe146package_lpc1758/yagarto/bin/../lib/gcc/arm-none-eabi/4.6.2/../../../../arm-none-eabi/lib/thumb/v7m\libc.a(lib_a-makebuf.o)
 .debug_abbrev  0x00008657      0x1d7 c:/users/montoya/documents/classes/cmpe146/lab/cmpe146package_lpc1758/yagarto/bin/../lib/gcc/arm-none-eabi/4.6.2/../../../../arm-none-eabi/lib/thumb/v7m\libc.a(lib_a-mallinfor.o)
 .debug_abbrev  0x0000882e      0x17f c:/users/montoya/documents/classes/cmpe146/lab/cmpe146package_lpc1758/yagarto/bin/../lib/gcc/arm-none-eabi/4.6.2/../../../../arm-none-eabi/lib/thumb/v7m\libc.a(lib_a-malloptr.o)
 .debug_abbrev  0x000089ad      0x19b c:/users/montoya/documents/classes/cmpe146/lab/cmpe146package_lpc1758/yagarto/bin/../lib/gcc/arm-none-eabi/4.6.2/../../../../arm-none-eabi/lib/thumb/v7m\libc.a(lib_a-mallstatsr.o)
 .debug_abbrev  0x00008b48       0xc4 c:/users/montoya/documents/classes/cmpe146/lab/cmpe146package_lpc1758/yagarto/bin/../lib/gcc/arm-none-eabi/4.6.2/../../../../arm-none-eabi/lib/thumb/v7m\libc.a(lib_a-memchr.o)
 .debug_abbrev  0x00008c0c      0x1e6 c:/users/montoya/documents/classes/cmpe146/lab/cmpe146package_lpc1758/yagarto/bin/../lib/gcc/arm-none-eabi/4.6.2/../../../../arm-none-eabi/lib/thumb/v7m\libc.a(lib_a-reent.o)
 .debug_abbrev  0x00008df2      0x1f6 c:/users/montoya/documents/classes/cmpe146/lab/cmpe146package_lpc1758/yagarto/bin/../lib/gcc/arm-none-eabi/4.6.2/../../../../arm-none-eabi/lib/thumb/v7m\libc.a(lib_a-stdio.o)
 .debug_abbrev  0x00008fe8      0x2a6 c:/users/montoya/documents/classes/cmpe146/lab/cmpe146package_lpc1758/yagarto/bin/../lib/gcc/arm-none-eabi/4.6.2/../../../../arm-none-eabi/lib/thumb/v7m\libc.a(lib_a-svfiscanf.o)
 .debug_abbrev  0x0000928e      0x2ea c:/users/montoya/documents/classes/cmpe146/lab/cmpe146package_lpc1758/yagarto/bin/../lib/gcc/arm-none-eabi/4.6.2/../../../../arm-none-eabi/lib/thumb/v7m\libc.a(lib_a-svfprintf.o)
 .debug_abbrev  0x00009578      0x1cf c:/users/montoya/documents/classes/cmpe146/lab/cmpe146package_lpc1758/yagarto/bin/../lib/gcc/arm-none-eabi/4.6.2/../../../../arm-none-eabi/lib/thumb/v7m\libc.a(lib_a-ungetc.o)
 .debug_abbrev  0x00009747      0x1ae c:/users/montoya/documents/classes/cmpe146/lab/cmpe146package_lpc1758/yagarto/bin/../lib/gcc/arm-none-eabi/4.6.2/../../../../arm-none-eabi/lib/thumb/v7m\libc.a(lib_a-wcrtomb.o)
 .debug_abbrev  0x000098f5      0x1e5 c:/users/montoya/documents/classes/cmpe146/lab/cmpe146package_lpc1758/yagarto/bin/../lib/gcc/arm-none-eabi/4.6.2/../../../../arm-none-eabi/lib/thumb/v7m\libc.a(lib_a-wctomb_r.o)
 .debug_abbrev  0x00009ada      0x1a4 c:/users/montoya/documents/classes/cmpe146/lab/cmpe146package_lpc1758/yagarto/bin/../lib/gcc/arm-none-eabi/4.6.2/../../../../arm-none-eabi/lib/thumb/v7m\libc.a(lib_a-closer.o)
 .debug_abbrev  0x00009c7e      0x22b c:/users/montoya/documents/classes/cmpe146/lab/cmpe146package_lpc1758/yagarto/bin/../lib/gcc/arm-none-eabi/4.6.2/../../../../arm-none-eabi/lib/thumb/v7m\libc.a(lib_a-dtoa.o)
 .debug_abbrev  0x00009ea9      0x1b6 c:/users/montoya/documents/classes/cmpe146/lab/cmpe146package_lpc1758/yagarto/bin/../lib/gcc/arm-none-eabi/4.6.2/../../../../arm-none-eabi/lib/thumb/v7m\libc.a(lib_a-fclose.o)
 .debug_abbrev  0x0000a05f      0x1b3 c:/users/montoya/documents/classes/cmpe146/lab/cmpe146package_lpc1758/yagarto/bin/../lib/gcc/arm-none-eabi/4.6.2/../../../../arm-none-eabi/lib/thumb/v7m\libc.a(lib_a-fstatr.o)
 .debug_abbrev  0x0000a212      0x1a4 c:/users/montoya/documents/classes/cmpe146/lab/cmpe146package_lpc1758/yagarto/bin/../lib/gcc/arm-none-eabi/4.6.2/../../../../arm-none-eabi/lib/thumb/v7m\libc.a(lib_a-isattyr.o)
 .debug_abbrev  0x0000a3b6       0x80 c:/users/montoya/documents/classes/cmpe146/lab/cmpe146package_lpc1758/yagarto/bin/../lib/gcc/arm-none-eabi/4.6.2/../../../../arm-none-eabi/lib/thumb/v7m\libc.a(lib_a-iswspace.o)
 .debug_abbrev  0x0000a436      0x1b3 c:/users/montoya/documents/classes/cmpe146/lab/cmpe146package_lpc1758/yagarto/bin/../lib/gcc/arm-none-eabi/4.6.2/../../../../arm-none-eabi/lib/thumb/v7m\libc.a(lib_a-lseekr.o)
 .debug_abbrev  0x0000a5e9      0x1ae c:/users/montoya/documents/classes/cmpe146/lab/cmpe146package_lpc1758/yagarto/bin/../lib/gcc/arm-none-eabi/4.6.2/../../../../arm-none-eabi/lib/thumb/v7m\libc.a(lib_a-mbrtowc.o)
 .debug_abbrev  0x0000a797      0x1cc c:/users/montoya/documents/classes/cmpe146/lab/cmpe146package_lpc1758/yagarto/bin/../lib/gcc/arm-none-eabi/4.6.2/../../../../arm-none-eabi/lib/thumb/v7m\libc.a(lib_a-mbtowc_r.o)
 .debug_abbrev  0x0000a963      0x30e c:/users/montoya/documents/classes/cmpe146/lab/cmpe146package_lpc1758/yagarto/bin/../lib/gcc/arm-none-eabi/4.6.2/../../../../arm-none-eabi/lib/thumb/v7m\libc.a(lib_a-mprec.o)
 .debug_abbrev  0x0000ac71      0x1a4 c:/users/montoya/documents/classes/cmpe146/lab/cmpe146package_lpc1758/yagarto/bin/../lib/gcc/arm-none-eabi/4.6.2/../../../../arm-none-eabi/lib/thumb/v7m\libc.a(lib_a-readr.o)
 .debug_abbrev  0x0000ae15       0xc5 c:/users/montoya/documents/classes/cmpe146/lab/cmpe146package_lpc1758/yagarto/bin/../lib/gcc/arm-none-eabi/4.6.2/../../../../arm-none-eabi/lib/thumb/v7m\libc.a(lib_a-s_fpclassify.o)
 .debug_abbrev  0x0000aeda       0x84 c:/users/montoya/documents/classes/cmpe146/lab/cmpe146package_lpc1758/yagarto/bin/../lib/gcc/arm-none-eabi/4.6.2/../../../../arm-none-eabi/lib/thumb/v7m\libc.a(lib_a-sccl.o)
 .debug_abbrev  0x0000af5e      0x1bd c:/users/montoya/documents/classes/cmpe146/lab/cmpe146package_lpc1758/yagarto/bin/../lib/gcc/arm-none-eabi/4.6.2/../../../../arm-none-eabi/lib/thumb/v7m\libc.a(lib_a-strtoul.o)
 .debug_abbrev  0x0000b11b      0x1ba c:/users/montoya/documents/classes/cmpe146/lab/cmpe146package_lpc1758/yagarto/bin/../lib/gcc/arm-none-eabi/4.6.2/../../../../arm-none-eabi/lib/thumb/v7m\libc.a(lib_a-callocr.o)
 .debug_abbrev  0x0000b2d5       0x14 c:/users/montoya/documents/classes/cmpe146/lab/cmpe146package_lpc1758/yagarto/bin/../lib/gcc/arm-none-eabi/4.6.2/thumb/v7m\libgcc.a(_udivsi3.o)
 .debug_abbrev  0x0000b2e9       0x14 c:/users/montoya/documents/classes/cmpe146/lab/cmpe146package_lpc1758/yagarto/bin/../lib/gcc/arm-none-eabi/4.6.2/thumb/v7m\libgcc.a(_dvmd_tls.o)

.debug_loc      0x00000000    0x15269
 .debug_loc     0x00000000       0xac c:/users/montoya/documents/classes/cmpe146/lab/cmpe146package_lpc1758/yagarto/bin/../lib/gcc/arm-none-eabi/4.6.2/../../../../arm-none-eabi/lib/thumb/v7m\libstdc++.a(guard.o)
 .debug_loc     0x000000ac       0x8f c:/users/montoya/documents/classes/cmpe146/lab/cmpe146package_lpc1758/yagarto/bin/../lib/gcc/arm-none-eabi/4.6.2/../../../../arm-none-eabi/lib/thumb/v7m\libstdc++.a(guard_error.o)
 .debug_loc     0x0000013b       0x20 c:/users/montoya/documents/classes/cmpe146/lab/cmpe146package_lpc1758/yagarto/bin/../lib/gcc/arm-none-eabi/4.6.2/../../../../arm-none-eabi/lib/thumb/v7m\libstdc++.a(pure.o)
 .debug_loc     0x0000015b      0x441 c:/users/montoya/documents/classes/cmpe146/lab/cmpe146package_lpc1758/yagarto/bin/../lib/gcc/arm-none-eabi/4.6.2/../../../../arm-none-eabi/lib/thumb/v7m\libstdc++.a(si_class_type_info.o)
 .debug_loc     0x0000059c      0x13d c:/users/montoya/documents/classes/cmpe146/lab/cmpe146package_lpc1758/yagarto/bin/../lib/gcc/arm-none-eabi/4.6.2/../../../../arm-none-eabi/lib/thumb/v7m\libstdc++.a(tinfo.o)
 .debug_loc     0x000006d9      0x341 c:/users/montoya/documents/classes/cmpe146/lab/cmpe146package_lpc1758/yagarto/bin/../lib/gcc/arm-none-eabi/4.6.2/../../../../arm-none-eabi/lib/thumb/v7m\libstdc++.a(class_type_info.o)
 .debug_loc     0x00000a1a      0x2f6 c:/users/montoya/documents/classes/cmpe146/lab/cmpe146package_lpc1758/yagarto/bin/../lib/gcc/arm-none-eabi/4.6.2/../../../../arm-none-eabi/lib/thumb/v7m\libstdc++.a(eh_alloc.o)
 .debug_loc     0x00000d10      0x175 c:/users/montoya/documents/classes/cmpe146/lab/cmpe146package_lpc1758/yagarto/bin/../lib/gcc/arm-none-eabi/4.6.2/../../../../arm-none-eabi/lib/thumb/v7m\libstdc++.a(eh_exception.o)
 .debug_loc     0x00000e85       0xe4 c:/users/montoya/documents/classes/cmpe146/lab/cmpe146package_lpc1758/yagarto/bin/../lib/gcc/arm-none-eabi/4.6.2/../../../../arm-none-eabi/lib/thumb/v7m\libstdc++.a(eh_terminate.o)
 .debug_loc     0x00000f69      0x1b0 c:/users/montoya/documents/classes/cmpe146/lab/cmpe146package_lpc1758/yagarto/bin/../lib/gcc/arm-none-eabi/4.6.2/../../../../arm-none-eabi/lib/thumb/v7m\libstdc++.a(eh_throw.o)
 .debug_loc     0x00001119      0x2c0 c:/users/montoya/documents/classes/cmpe146/lab/cmpe146package_lpc1758/yagarto/bin/../lib/gcc/arm-none-eabi/4.6.2/../../../../arm-none-eabi/lib/thumb/v7m\libstdc++.a(eh_arm.o)
 .debug_loc     0x000013d9       0x66 c:/users/montoya/documents/classes/cmpe146/lab/cmpe146package_lpc1758/yagarto/bin/../lib/gcc/arm-none-eabi/4.6.2/../../../../arm-none-eabi/lib/thumb/v7m\libstdc++.a(eh_aux_runtime.o)
 .debug_loc     0x0000143f      0x3d7 c:/users/montoya/documents/classes/cmpe146/lab/cmpe146package_lpc1758/yagarto/bin/../lib/gcc/arm-none-eabi/4.6.2/../../../../arm-none-eabi/lib/thumb/v7m\libstdc++.a(eh_call.o)
 .debug_loc     0x00001816      0x29a c:/users/montoya/documents/classes/cmpe146/lab/cmpe146package_lpc1758/yagarto/bin/../lib/gcc/arm-none-eabi/4.6.2/../../../../arm-none-eabi/lib/thumb/v7m\libstdc++.a(eh_catch.o)
 .debug_loc     0x00001ab0     0x1643 c:/users/montoya/documents/classes/cmpe146/lab/cmpe146package_lpc1758/yagarto/bin/../lib/gcc/arm-none-eabi/4.6.2/../../../../arm-none-eabi/lib/thumb/v7m\libstdc++.a(eh_personality.o)
 .debug_loc     0x000030f3       0x8f c:/users/montoya/documents/classes/cmpe146/lab/cmpe146package_lpc1758/yagarto/bin/../lib/gcc/arm-none-eabi/4.6.2/../../../../arm-none-eabi/lib/thumb/v7m\libstdc++.a(fundamental_type_info.o)
 .debug_loc     0x00003182      0x1b5 c:/users/montoya/documents/classes/cmpe146/lab/cmpe146package_lpc1758/yagarto/bin/../lib/gcc/arm-none-eabi/4.6.2/../../../../arm-none-eabi/lib/thumb/v7m\libstdc++.a(pointer_type_info.o)
 .debug_loc     0x00003337       0xa2 c:/users/montoya/documents/classes/cmpe146/lab/cmpe146package_lpc1758/yagarto/bin/../lib/gcc/arm-none-eabi/4.6.2/../../../../arm-none-eabi/lib/thumb/v7m\libstdc++.a(bad_cast.o)
 .debug_loc     0x000033d9       0xad c:/users/montoya/documents/classes/cmpe146/lab/cmpe146package_lpc1758/yagarto/bin/../lib/gcc/arm-none-eabi/4.6.2/../../../../arm-none-eabi/lib/thumb/v7m\libstdc++.a(bad_typeid.o)
 .debug_loc     0x00003486      0x26f c:/users/montoya/documents/classes/cmpe146/lab/cmpe146package_lpc1758/yagarto/bin/../lib/gcc/arm-none-eabi/4.6.2/../../../../arm-none-eabi/lib/thumb/v7m\libstdc++.a(pbase_type_info.o)
 .debug_loc     0x000036f5     0x1377 c:/users/montoya/documents/classes/cmpe146/lab/cmpe146package_lpc1758/yagarto/bin/../lib/gcc/arm-none-eabi/4.6.2/thumb/v7m\libgcc.a(unwind-arm.o)
 .debug_loc     0x00004a6c      0x58a c:/users/montoya/documents/classes/cmpe146/lab/cmpe146package_lpc1758/yagarto/bin/../lib/gcc/arm-none-eabi/4.6.2/thumb/v7m\libgcc.a(pr-support.o)
 .debug_loc     0x00004ff6       0x20 c:/users/montoya/documents/classes/cmpe146/lab/cmpe146package_lpc1758/yagarto/bin/../lib/gcc/arm-none-eabi/4.6.2/../../../../arm-none-eabi/lib/thumb/v7m\libc.a(lib_a-abort.o)
 .debug_loc     0x00005016      0x11f c:/users/montoya/documents/classes/cmpe146/lab/cmpe146package_lpc1758/yagarto/bin/../lib/gcc/arm-none-eabi/4.6.2/../../../../arm-none-eabi/lib/thumb/v7m\libc.a(lib_a-assert.o)
 .debug_loc     0x00005135       0x39 c:/users/montoya/documents/classes/cmpe146/lab/cmpe146package_lpc1758/yagarto/bin/../lib/gcc/arm-none-eabi/4.6.2/../../../../arm-none-eabi/lib/thumb/v7m\libc.a(lib_a-atoi.o)
 .debug_loc     0x0000516e       0xb4 c:/users/montoya/documents/classes/cmpe146/lab/cmpe146package_lpc1758/yagarto/bin/../lib/gcc/arm-none-eabi/4.6.2/../../../../arm-none-eabi/lib/thumb/v7m\libc.a(lib_a-fiprintf.o)
 .debug_loc     0x00005222       0x7c c:/users/montoya/documents/classes/cmpe146/lab/cmpe146package_lpc1758/yagarto/bin/../lib/gcc/arm-none-eabi/4.6.2/../../../../arm-none-eabi/lib/thumb/v7m\libc.a(lib_a-init.o)
 .debug_loc     0x0000529e       0x13 c:/users/montoya/documents/classes/cmpe146/lab/cmpe146package_lpc1758/yagarto/bin/../lib/gcc/arm-none-eabi/4.6.2/../../../../arm-none-eabi/lib/thumb/v7m\libc.a(lib_a-isalnum.o)
 .debug_loc     0x000052b1       0x13 c:/users/montoya/documents/classes/cmpe146/lab/cmpe146package_lpc1758/yagarto/bin/../lib/gcc/arm-none-eabi/4.6.2/../../../../arm-none-eabi/lib/thumb/v7m\libc.a(lib_a-isalpha.o)
 .debug_loc     0x000052c4       0x3c c:/users/montoya/documents/classes/cmpe146/lab/cmpe146package_lpc1758/yagarto/bin/../lib/gcc/arm-none-eabi/4.6.2/../../../../arm-none-eabi/lib/thumb/v7m\libc.a(lib_a-malloc.o)
 .debug_loc     0x00005300      0x995 c:/users/montoya/documents/classes/cmpe146/lab/cmpe146package_lpc1758/yagarto/bin/../lib/gcc/arm-none-eabi/4.6.2/../../../../arm-none-eabi/lib/thumb/v7m\libc.a(lib_a-mallocr.o)
 .debug_loc     0x00005c95       0xd3 c:/users/montoya/documents/classes/cmpe146/lab/cmpe146package_lpc1758/yagarto/bin/../lib/gcc/arm-none-eabi/4.6.2/../../../../arm-none-eabi/lib/thumb/v7m\libc.a(lib_a-memcmp.o)
 .debug_loc     0x00005d68      0x1cc c:/users/montoya/documents/classes/cmpe146/lab/cmpe146package_lpc1758/yagarto/bin/../lib/gcc/arm-none-eabi/4.6.2/../../../../arm-none-eabi/lib/thumb/v7m\libc.a(lib_a-memcpy.o)
 .debug_loc     0x00005f34      0x251 c:/users/montoya/documents/classes/cmpe146/lab/cmpe146package_lpc1758/yagarto/bin/../lib/gcc/arm-none-eabi/4.6.2/../../../../arm-none-eabi/lib/thumb/v7m\libc.a(lib_a-memmove.o)
 .debug_loc     0x00006185      0x1fb c:/users/montoya/documents/classes/cmpe146/lab/cmpe146package_lpc1758/yagarto/bin/../lib/gcc/arm-none-eabi/4.6.2/../../../../arm-none-eabi/lib/thumb/v7m\libc.a(lib_a-memset.o)
 .debug_loc     0x00006380       0xd6 c:/users/montoya/documents/classes/cmpe146/lab/cmpe146package_lpc1758/yagarto/bin/../lib/gcc/arm-none-eabi/4.6.2/../../../../arm-none-eabi/lib/thumb/v7m\libc.a(lib_a-mstats.o)
 .debug_loc     0x00006456       0xa5 c:/users/montoya/documents/classes/cmpe146/lab/cmpe146package_lpc1758/yagarto/bin/../lib/gcc/arm-none-eabi/4.6.2/../../../../arm-none-eabi/lib/thumb/v7m\libc.a(lib_a-puts.o)
 .debug_loc     0x000064fb       0x3c c:/users/montoya/documents/classes/cmpe146/lab/cmpe146package_lpc1758/yagarto/bin/../lib/gcc/arm-none-eabi/4.6.2/../../../../arm-none-eabi/lib/thumb/v7m\libc.a(lib_a-realloc.o)
 .debug_loc     0x00006537      0xb8a c:/users/montoya/documents/classes/cmpe146/lab/cmpe146package_lpc1758/yagarto/bin/../lib/gcc/arm-none-eabi/4.6.2/../../../../arm-none-eabi/lib/thumb/v7m\libc.a(lib_a-reallocr.o)
 .debug_loc     0x000070c1       0x51 c:/users/montoya/documents/classes/cmpe146/lab/cmpe146package_lpc1758/yagarto/bin/../lib/gcc/arm-none-eabi/4.6.2/../../../../arm-none-eabi/lib/thumb/v7m\libc.a(lib_a-sbrkr.o)
 .debug_loc     0x00007112      0x14e c:/users/montoya/documents/classes/cmpe146/lab/cmpe146package_lpc1758/yagarto/bin/../lib/gcc/arm-none-eabi/4.6.2/../../../../arm-none-eabi/lib/thumb/v7m\libc.a(lib_a-setvbuf.o)
 .debug_loc     0x00007260      0x2ba c:/users/montoya/documents/classes/cmpe146/lab/cmpe146package_lpc1758/yagarto/bin/../lib/gcc/arm-none-eabi/4.6.2/../../../../arm-none-eabi/lib/thumb/v7m\libc.a(lib_a-signal.o)
 .debug_loc     0x0000751a       0x8d c:/users/montoya/documents/classes/cmpe146/lab/cmpe146package_lpc1758/yagarto/bin/../lib/gcc/arm-none-eabi/4.6.2/../../../../arm-none-eabi/lib/thumb/v7m\libc.a(lib_a-signalr.o)
 .debug_loc     0x000075a7       0xd9 c:/users/montoya/documents/classes/cmpe146/lab/cmpe146package_lpc1758/yagarto/bin/../lib/gcc/arm-none-eabi/4.6.2/../../../../arm-none-eabi/lib/thumb/v7m\libc.a(lib_a-siprintf.o)
 .debug_loc     0x00007680       0xc6 c:/users/montoya/documents/classes/cmpe146/lab/cmpe146package_lpc1758/yagarto/bin/../lib/gcc/arm-none-eabi/4.6.2/../../../../arm-none-eabi/lib/thumb/v7m\libc.a(lib_a-strcasecmp.o)
 .debug_loc     0x00007746       0xb9 c:/users/montoya/documents/classes/cmpe146/lab/cmpe146package_lpc1758/yagarto/bin/../lib/gcc/arm-none-eabi/4.6.2/../../../../arm-none-eabi/lib/thumb/v7m\libc.a(lib_a-strcat.o)
 .debug_loc     0x000077ff      0x15b c:/users/montoya/documents/classes/cmpe146/lab/cmpe146package_lpc1758/yagarto/bin/../lib/gcc/arm-none-eabi/4.6.2/../../../../arm-none-eabi/lib/thumb/v7m\libc.a(lib_a-strchr.o)
 .debug_loc     0x0000795a       0x26 c:/users/montoya/documents/classes/cmpe146/lab/cmpe146package_lpc1758/yagarto/bin/../lib/gcc/arm-none-eabi/4.6.2/../../../../arm-none-eabi/lib/thumb/v7m\libc.a(lib_a-strcmp.o)
 .debug_loc     0x00007980       0x13 c:/users/montoya/documents/classes/cmpe146/lab/cmpe146package_lpc1758/yagarto/bin/../lib/gcc/arm-none-eabi/4.6.2/../../../../arm-none-eabi/lib/thumb/v7m\libc.a(lib_a-strcpy.o)
 .debug_loc     0x00007993       0x13 c:/users/montoya/documents/classes/cmpe146/lab/cmpe146package_lpc1758/yagarto/bin/../lib/gcc/arm-none-eabi/4.6.2/../../../../arm-none-eabi/lib/thumb/v7m\libc.a(lib_a-strlen.o)
 .debug_loc     0x000079a6      0x19a c:/users/montoya/documents/classes/cmpe146/lab/cmpe146package_lpc1758/yagarto/bin/../lib/gcc/arm-none-eabi/4.6.2/../../../../arm-none-eabi/lib/thumb/v7m\libc.a(lib_a-strncasecmp.o)
 .debug_loc     0x00007b40      0x16e c:/users/montoya/documents/classes/cmpe146/lab/cmpe146package_lpc1758/yagarto/bin/../lib/gcc/arm-none-eabi/4.6.2/../../../../arm-none-eabi/lib/thumb/v7m\libc.a(lib_a-strncmp.o)
 .debug_loc     0x00007cae       0xe3 c:/users/montoya/documents/classes/cmpe146/lab/cmpe146package_lpc1758/yagarto/bin/../lib/gcc/arm-none-eabi/4.6.2/../../../../arm-none-eabi/lib/thumb/v7m\libc.a(lib_a-strncpy.o)
 .debug_loc     0x00007d91       0x85 c:/users/montoya/documents/classes/cmpe146/lab/cmpe146package_lpc1758/yagarto/bin/../lib/gcc/arm-none-eabi/4.6.2/../../../../arm-none-eabi/lib/thumb/v7m\libc.a(lib_a-strpbrk.o)
 .debug_loc     0x00007e16       0xb3 c:/users/montoya/documents/classes/cmpe146/lab/cmpe146package_lpc1758/yagarto/bin/../lib/gcc/arm-none-eabi/4.6.2/../../../../arm-none-eabi/lib/thumb/v7m\libc.a(lib_a-strrchr.o)
 .debug_loc     0x00007ec9      0xb4b c:/users/montoya/documents/classes/cmpe146/lab/cmpe146package_lpc1758/yagarto/bin/../lib/gcc/arm-none-eabi/4.6.2/../../../../arm-none-eabi/lib/thumb/v7m\libc.a(lib_a-strstr.o)
 .debug_loc     0x00008a14      0x339 c:/users/montoya/documents/classes/cmpe146/lab/cmpe146package_lpc1758/yagarto/bin/../lib/gcc/arm-none-eabi/4.6.2/../../../../arm-none-eabi/lib/thumb/v7m\libc.a(lib_a-strtol.o)
 .debug_loc     0x00008d4d     0x121a c:/users/montoya/documents/classes/cmpe146/lab/cmpe146package_lpc1758/yagarto/bin/../lib/gcc/arm-none-eabi/4.6.2/../../../../arm-none-eabi/lib/thumb/v7m\libc.a(lib_a-svfiprintf.o)
 .debug_loc     0x00009f67       0x7a c:/users/montoya/documents/classes/cmpe146/lab/cmpe146package_lpc1758/yagarto/bin/../lib/gcc/arm-none-eabi/4.6.2/../../../../arm-none-eabi/lib/thumb/v7m\libc.a(lib_a-syswrite.o)
 .debug_loc     0x00009fe1       0x13 c:/users/montoya/documents/classes/cmpe146/lab/cmpe146package_lpc1758/yagarto/bin/../lib/gcc/arm-none-eabi/4.6.2/../../../../arm-none-eabi/lib/thumb/v7m\libc.a(lib_a-tolower.o)
 .debug_loc     0x00009ff4       0x13 c:/users/montoya/documents/classes/cmpe146/lab/cmpe146package_lpc1758/yagarto/bin/../lib/gcc/arm-none-eabi/4.6.2/../../../../arm-none-eabi/lib/thumb/v7m\libc.a(lib_a-toupper.o)
 .debug_loc     0x0000a007     0x14dd c:/users/montoya/documents/classes/cmpe146/lab/cmpe146package_lpc1758/yagarto/bin/../lib/gcc/arm-none-eabi/4.6.2/../../../../arm-none-eabi/lib/thumb/v7m\libc.a(lib_a-vfiprintf.o)
 .debug_loc     0x0000b4e4       0xb5 c:/users/montoya/documents/classes/cmpe146/lab/cmpe146package_lpc1758/yagarto/bin/../lib/gcc/arm-none-eabi/4.6.2/../../../../arm-none-eabi/lib/thumb/v7m\libc.a(lib_a-viprintf.o)
 .debug_loc     0x0000b599       0xff c:/users/montoya/documents/classes/cmpe146/lab/cmpe146package_lpc1758/yagarto/bin/../lib/gcc/arm-none-eabi/4.6.2/../../../../arm-none-eabi/lib/thumb/v7m\libc.a(lib_a-vsiprintf.o)
 .debug_loc     0x0000b698      0x114 c:/users/montoya/documents/classes/cmpe146/lab/cmpe146package_lpc1758/yagarto/bin/../lib/gcc/arm-none-eabi/4.6.2/../../../../arm-none-eabi/lib/thumb/v7m\libc.a(lib_a-vsiscanf.o)
 .debug_loc     0x0000b7ac      0x17e c:/users/montoya/documents/classes/cmpe146/lab/cmpe146package_lpc1758/yagarto/bin/../lib/gcc/arm-none-eabi/4.6.2/../../../../arm-none-eabi/lib/thumb/v7m\libc.a(lib_a-vsniprintf.o)
 .debug_loc     0x0000b92a      0x17e c:/users/montoya/documents/classes/cmpe146/lab/cmpe146package_lpc1758/yagarto/bin/../lib/gcc/arm-none-eabi/4.6.2/../../../../arm-none-eabi/lib/thumb/v7m\libc.a(lib_a-vsnprintf.o)
 .debug_loc     0x0000baa8      0x128 c:/users/montoya/documents/classes/cmpe146/lab/cmpe146package_lpc1758/yagarto/bin/../lib/gcc/arm-none-eabi/4.6.2/../../../../arm-none-eabi/lib/thumb/v7m\libc.a(lib_a-wbuf.o)
 .debug_loc     0x0000bbd0       0x98 c:/users/montoya/documents/classes/cmpe146/lab/cmpe146package_lpc1758/yagarto/bin/../lib/gcc/arm-none-eabi/4.6.2/../../../../arm-none-eabi/lib/thumb/v7m\libc.a(lib_a-writer.o)
 .debug_loc     0x0000bc68       0x5c c:/users/montoya/documents/classes/cmpe146/lab/cmpe146package_lpc1758/yagarto/bin/../lib/gcc/arm-none-eabi/4.6.2/../../../../arm-none-eabi/lib/thumb/v7m\libc.a(lib_a-wsetup.o)
 .debug_loc     0x0000bcc4      0x1f5 c:/users/montoya/documents/classes/cmpe146/lab/cmpe146package_lpc1758/yagarto/bin/../lib/gcc/arm-none-eabi/4.6.2/../../../../arm-none-eabi/lib/thumb/v7m\libc.a(lib_a-fflush.o)
 .debug_loc     0x0000beb9      0x256 c:/users/montoya/documents/classes/cmpe146/lab/cmpe146package_lpc1758/yagarto/bin/../lib/gcc/arm-none-eabi/4.6.2/../../../../arm-none-eabi/lib/thumb/v7m\libc.a(lib_a-findfp.o)
 .debug_loc     0x0000c10f      0x173 c:/users/montoya/documents/classes/cmpe146/lab/cmpe146package_lpc1758/yagarto/bin/../lib/gcc/arm-none-eabi/4.6.2/../../../../arm-none-eabi/lib/thumb/v7m\libc.a(lib_a-fputwc.o)
 .debug_loc     0x0000c282      0x421 c:/users/montoya/documents/classes/cmpe146/lab/cmpe146package_lpc1758/yagarto/bin/../lib/gcc/arm-none-eabi/4.6.2/../../../../arm-none-eabi/lib/thumb/v7m\libc.a(lib_a-freer.o)
 .debug_loc     0x0000c6a3      0x5a8 c:/users/montoya/documents/classes/cmpe146/lab/cmpe146package_lpc1758/yagarto/bin/../lib/gcc/arm-none-eabi/4.6.2/../../../../arm-none-eabi/lib/thumb/v7m\libc.a(lib_a-fvwrite.o)
 .debug_loc     0x0000cc4b      0x259 c:/users/montoya/documents/classes/cmpe146/lab/cmpe146package_lpc1758/yagarto/bin/../lib/gcc/arm-none-eabi/4.6.2/../../../../arm-none-eabi/lib/thumb/v7m\libc.a(lib_a-fwalk.o)
 .debug_loc     0x0000cea4       0xb3 c:/users/montoya/documents/classes/cmpe146/lab/cmpe146package_lpc1758/yagarto/bin/../lib/gcc/arm-none-eabi/4.6.2/../../../../arm-none-eabi/lib/thumb/v7m\libc.a(lib_a-locale.o)
 .debug_loc     0x0000cf57      0x118 c:/users/montoya/documents/classes/cmpe146/lab/cmpe146package_lpc1758/yagarto/bin/../lib/gcc/arm-none-eabi/4.6.2/../../../../arm-none-eabi/lib/thumb/v7m\libc.a(lib_a-makebuf.o)
 .debug_loc     0x0000d06f      0x11d c:/users/montoya/documents/classes/cmpe146/lab/cmpe146package_lpc1758/yagarto/bin/../lib/gcc/arm-none-eabi/4.6.2/../../../../arm-none-eabi/lib/thumb/v7m\libc.a(lib_a-mallinfor.o)
 .debug_loc     0x0000d18c       0x7c c:/users/montoya/documents/classes/cmpe146/lab/cmpe146package_lpc1758/yagarto/bin/../lib/gcc/arm-none-eabi/4.6.2/../../../../arm-none-eabi/lib/thumb/v7m\libc.a(lib_a-malloptr.o)
 .debug_loc     0x0000d208       0xa7 c:/users/montoya/documents/classes/cmpe146/lab/cmpe146package_lpc1758/yagarto/bin/../lib/gcc/arm-none-eabi/4.6.2/../../../../arm-none-eabi/lib/thumb/v7m\libc.a(lib_a-mallstatsr.o)
 .debug_loc     0x0000d2af      0x13f c:/users/montoya/documents/classes/cmpe146/lab/cmpe146package_lpc1758/yagarto/bin/../lib/gcc/arm-none-eabi/4.6.2/../../../../arm-none-eabi/lib/thumb/v7m\libc.a(lib_a-memchr.o)
 .debug_loc     0x0000d3ee      0x1f3 c:/users/montoya/documents/classes/cmpe146/lab/cmpe146package_lpc1758/yagarto/bin/../lib/gcc/arm-none-eabi/4.6.2/../../../../arm-none-eabi/lib/thumb/v7m\libc.a(lib_a-reent.o)
 .debug_loc     0x0000d5e1      0x219 c:/users/montoya/documents/classes/cmpe146/lab/cmpe146package_lpc1758/yagarto/bin/../lib/gcc/arm-none-eabi/4.6.2/../../../../arm-none-eabi/lib/thumb/v7m\libc.a(lib_a-stdio.o)
 .debug_loc     0x0000d7fa     0x100d c:/users/montoya/documents/classes/cmpe146/lab/cmpe146package_lpc1758/yagarto/bin/../lib/gcc/arm-none-eabi/4.6.2/../../../../arm-none-eabi/lib/thumb/v7m\libc.a(lib_a-svfiscanf.o)
 .debug_loc     0x0000e807     0x2325 c:/users/montoya/documents/classes/cmpe146/lab/cmpe146package_lpc1758/yagarto/bin/../lib/gcc/arm-none-eabi/4.6.2/../../../../arm-none-eabi/lib/thumb/v7m\libc.a(lib_a-svfprintf.o)
 .debug_loc     0x00010b2c      0x207 c:/users/montoya/documents/classes/cmpe146/lab/cmpe146package_lpc1758/yagarto/bin/../lib/gcc/arm-none-eabi/4.6.2/../../../../arm-none-eabi/lib/thumb/v7m\libc.a(lib_a-ungetc.o)
 .debug_loc     0x00010d33      0x1a1 c:/users/montoya/documents/classes/cmpe146/lab/cmpe146package_lpc1758/yagarto/bin/../lib/gcc/arm-none-eabi/4.6.2/../../../../arm-none-eabi/lib/thumb/v7m\libc.a(lib_a-wcrtomb.o)
 .debug_loc     0x00010ed4       0xfb c:/users/montoya/documents/classes/cmpe146/lab/cmpe146package_lpc1758/yagarto/bin/../lib/gcc/arm-none-eabi/4.6.2/../../../../arm-none-eabi/lib/thumb/v7m\libc.a(lib_a-wctomb_r.o)
 .debug_loc     0x00010fcf       0x51 c:/users/montoya/documents/classes/cmpe146/lab/cmpe146package_lpc1758/yagarto/bin/../lib/gcc/arm-none-eabi/4.6.2/../../../../arm-none-eabi/lib/thumb/v7m\libc.a(lib_a-closer.o)
 .debug_loc     0x00011020     0x1ea0 c:/users/montoya/documents/classes/cmpe146/lab/cmpe146package_lpc1758/yagarto/bin/../lib/gcc/arm-none-eabi/4.6.2/../../../../arm-none-eabi/lib/thumb/v7m\libc.a(lib_a-dtoa.o)
 .debug_loc     0x00012ec0       0xa3 c:/users/montoya/documents/classes/cmpe146/lab/cmpe146package_lpc1758/yagarto/bin/../lib/gcc/arm-none-eabi/4.6.2/../../../../arm-none-eabi/lib/thumb/v7m\libc.a(lib_a-fclose.o)
 .debug_loc     0x00012f63       0x7a c:/users/montoya/documents/classes/cmpe146/lab/cmpe146package_lpc1758/yagarto/bin/../lib/gcc/arm-none-eabi/4.6.2/../../../../arm-none-eabi/lib/thumb/v7m\libc.a(lib_a-fstatr.o)
 .debug_loc     0x00012fdd       0x51 c:/users/montoya/documents/classes/cmpe146/lab/cmpe146package_lpc1758/yagarto/bin/../lib/gcc/arm-none-eabi/4.6.2/../../../../arm-none-eabi/lib/thumb/v7m\libc.a(lib_a-isattyr.o)
 .debug_loc     0x0001302e       0x13 c:/users/montoya/documents/classes/cmpe146/lab/cmpe146package_lpc1758/yagarto/bin/../lib/gcc/arm-none-eabi/4.6.2/../../../../arm-none-eabi/lib/thumb/v7m\libc.a(lib_a-iswspace.o)
 .debug_loc     0x00013041       0x98 c:/users/montoya/documents/classes/cmpe146/lab/cmpe146package_lpc1758/yagarto/bin/../lib/gcc/arm-none-eabi/4.6.2/../../../../arm-none-eabi/lib/thumb/v7m\libc.a(lib_a-lseekr.o)
 .debug_loc     0x000130d9      0x1bf c:/users/montoya/documents/classes/cmpe146/lab/cmpe146package_lpc1758/yagarto/bin/../lib/gcc/arm-none-eabi/4.6.2/../../../../arm-none-eabi/lib/thumb/v7m\libc.a(lib_a-mbrtowc.o)
 .debug_loc     0x00013298      0x113 c:/users/montoya/documents/classes/cmpe146/lab/cmpe146package_lpc1758/yagarto/bin/../lib/gcc/arm-none-eabi/4.6.2/../../../../arm-none-eabi/lib/thumb/v7m\libc.a(lib_a-mbtowc_r.o)
 .debug_loc     0x000133ab     0x1799 c:/users/montoya/documents/classes/cmpe146/lab/cmpe146package_lpc1758/yagarto/bin/../lib/gcc/arm-none-eabi/4.6.2/../../../../arm-none-eabi/lib/thumb/v7m\libc.a(lib_a-mprec.o)
 .debug_loc     0x00014b44       0x98 c:/users/montoya/documents/classes/cmpe146/lab/cmpe146package_lpc1758/yagarto/bin/../lib/gcc/arm-none-eabi/4.6.2/../../../../arm-none-eabi/lib/thumb/v7m\libc.a(lib_a-readr.o)
 .debug_loc     0x00014bdc       0xa0 c:/users/montoya/documents/classes/cmpe146/lab/cmpe146package_lpc1758/yagarto/bin/../lib/gcc/arm-none-eabi/4.6.2/../../../../arm-none-eabi/lib/thumb/v7m\libc.a(lib_a-s_fpclassify.o)
 .debug_loc     0x00014c7c      0x19a c:/users/montoya/documents/classes/cmpe146/lab/cmpe146package_lpc1758/yagarto/bin/../lib/gcc/arm-none-eabi/4.6.2/../../../../arm-none-eabi/lib/thumb/v7m\libc.a(lib_a-sccl.o)
 .debug_loc     0x00014e16      0x2e7 c:/users/montoya/documents/classes/cmpe146/lab/cmpe146package_lpc1758/yagarto/bin/../lib/gcc/arm-none-eabi/4.6.2/../../../../arm-none-eabi/lib/thumb/v7m\libc.a(lib_a-strtoul.o)
 .debug_loc     0x000150fd      0x16c c:/users/montoya/documents/classes/cmpe146/lab/cmpe146package_lpc1758/yagarto/bin/../lib/gcc/arm-none-eabi/4.6.2/../../../../arm-none-eabi/lib/thumb/v7m\libc.a(lib_a-callocr.o)

.debug_aranges  0x00000000     0x10c8
 .debug_aranges
                0x00000000       0x30 c:/users/montoya/documents/classes/cmpe146/lab/cmpe146package_lpc1758/yagarto/bin/../lib/gcc/arm-none-eabi/4.6.2/../../../../arm-none-eabi/lib/thumb/v7m\libstdc++.a(guard.o)
 .debug_aranges
                0x00000030       0x28 c:/users/montoya/documents/classes/cmpe146/lab/cmpe146package_lpc1758/yagarto/bin/../lib/gcc/arm-none-eabi/4.6.2/../../../../arm-none-eabi/lib/thumb/v7m\libstdc++.a(guard_error.o)
 .debug_aranges
                0x00000058       0x20 c:/users/montoya/documents/classes/cmpe146/lab/cmpe146package_lpc1758/yagarto/bin/../lib/gcc/arm-none-eabi/4.6.2/../../../../arm-none-eabi/lib/thumb/v7m\libstdc++.a(pure.o)
 .debug_aranges
                0x00000078       0x40 c:/users/montoya/documents/classes/cmpe146/lab/cmpe146package_lpc1758/yagarto/bin/../lib/gcc/arm-none-eabi/4.6.2/../../../../arm-none-eabi/lib/thumb/v7m\libstdc++.a(si_class_type_info.o)
 .debug_aranges
                0x000000b8       0x50 c:/users/montoya/documents/classes/cmpe146/lab/cmpe146package_lpc1758/yagarto/bin/../lib/gcc/arm-none-eabi/4.6.2/../../../../arm-none-eabi/lib/thumb/v7m\libstdc++.a(tinfo.o)
 .debug_aranges
                0x00000108       0x50 c:/users/montoya/documents/classes/cmpe146/lab/cmpe146package_lpc1758/yagarto/bin/../lib/gcc/arm-none-eabi/4.6.2/../../../../arm-none-eabi/lib/thumb/v7m\libstdc++.a(class_type_info.o)
 .debug_aranges
                0x00000158       0x38 c:/users/montoya/documents/classes/cmpe146/lab/cmpe146package_lpc1758/yagarto/bin/../lib/gcc/arm-none-eabi/4.6.2/../../../../arm-none-eabi/lib/thumb/v7m\libstdc++.a(eh_alloc.o)
 .debug_aranges
                0x00000190       0x68 c:/users/montoya/documents/classes/cmpe146/lab/cmpe146package_lpc1758/yagarto/bin/../lib/gcc/arm-none-eabi/4.6.2/../../../../arm-none-eabi/lib/thumb/v7m\libstdc++.a(eh_exception.o)
 .debug_aranges
                0x000001f8       0x28 c:/users/montoya/documents/classes/cmpe146/lab/cmpe146package_lpc1758/yagarto/bin/../lib/gcc/arm-none-eabi/4.6.2/../../../../arm-none-eabi/lib/thumb/v7m\libstdc++.a(eh_globals.o)
 .debug_aranges
                0x00000220       0x48 c:/users/montoya/documents/classes/cmpe146/lab/cmpe146package_lpc1758/yagarto/bin/../lib/gcc/arm-none-eabi/4.6.2/../../../../arm-none-eabi/lib/thumb/v7m\libstdc++.a(eh_terminate.o)
 .debug_aranges
                0x00000268       0x30 c:/users/montoya/documents/classes/cmpe146/lab/cmpe146package_lpc1758/yagarto/bin/../lib/gcc/arm-none-eabi/4.6.2/../../../../arm-none-eabi/lib/thumb/v7m\libstdc++.a(eh_throw.o)
 .debug_aranges
                0x00000298       0x30 c:/users/montoya/documents/classes/cmpe146/lab/cmpe146package_lpc1758/yagarto/bin/../lib/gcc/arm-none-eabi/4.6.2/../../../../arm-none-eabi/lib/thumb/v7m\libstdc++.a(eh_arm.o)
 .debug_aranges
                0x000002c8       0x28 c:/users/montoya/documents/classes/cmpe146/lab/cmpe146package_lpc1758/yagarto/bin/../lib/gcc/arm-none-eabi/4.6.2/../../../../arm-none-eabi/lib/thumb/v7m\libstdc++.a(eh_aux_runtime.o)
 .debug_aranges
                0x000002f0       0x28 c:/users/montoya/documents/classes/cmpe146/lab/cmpe146package_lpc1758/yagarto/bin/../lib/gcc/arm-none-eabi/4.6.2/../../../../arm-none-eabi/lib/thumb/v7m\libstdc++.a(eh_call.o)
 .debug_aranges
                0x00000318       0x38 c:/users/montoya/documents/classes/cmpe146/lab/cmpe146package_lpc1758/yagarto/bin/../lib/gcc/arm-none-eabi/4.6.2/../../../../arm-none-eabi/lib/thumb/v7m\libstdc++.a(eh_catch.o)
 .debug_aranges
                0x00000350       0x40 c:/users/montoya/documents/classes/cmpe146/lab/cmpe146package_lpc1758/yagarto/bin/../lib/gcc/arm-none-eabi/4.6.2/../../../../arm-none-eabi/lib/thumb/v7m\libstdc++.a(eh_personality.o)
 .debug_aranges
                0x00000390       0x28 c:/users/montoya/documents/classes/cmpe146/lab/cmpe146package_lpc1758/yagarto/bin/../lib/gcc/arm-none-eabi/4.6.2/../../../../arm-none-eabi/lib/thumb/v7m\libstdc++.a(fundamental_type_info.o)
 .debug_aranges
                0x000003b8       0x38 c:/users/montoya/documents/classes/cmpe146/lab/cmpe146package_lpc1758/yagarto/bin/../lib/gcc/arm-none-eabi/4.6.2/../../../../arm-none-eabi/lib/thumb/v7m\libstdc++.a(pointer_type_info.o)
 .debug_aranges
                0x000003f0       0x30 c:/users/montoya/documents/classes/cmpe146/lab/cmpe146package_lpc1758/yagarto/bin/../lib/gcc/arm-none-eabi/4.6.2/../../../../arm-none-eabi/lib/thumb/v7m\libstdc++.a(bad_cast.o)
 .debug_aranges
                0x00000420       0x30 c:/users/montoya/documents/classes/cmpe146/lab/cmpe146package_lpc1758/yagarto/bin/../lib/gcc/arm-none-eabi/4.6.2/../../../../arm-none-eabi/lib/thumb/v7m\libstdc++.a(bad_typeid.o)
 .debug_aranges
                0x00000450       0x38 c:/users/montoya/documents/classes/cmpe146/lab/cmpe146package_lpc1758/yagarto/bin/../lib/gcc/arm-none-eabi/4.6.2/../../../../arm-none-eabi/lib/thumb/v7m\libstdc++.a(pbase_type_info.o)
 .debug_aranges
                0x00000488       0x20 c:/users/montoya/documents/classes/cmpe146/lab/cmpe146package_lpc1758/yagarto/bin/../lib/gcc/arm-none-eabi/4.6.2/thumb/v7m\libgcc.a(_arm_addsubdf3.o)
 .debug_aranges
                0x000004a8       0x20 c:/users/montoya/documents/classes/cmpe146/lab/cmpe146package_lpc1758/yagarto/bin/../lib/gcc/arm-none-eabi/4.6.2/thumb/v7m\libgcc.a(_arm_muldivdf3.o)
 .debug_aranges
                0x000004c8       0x20 c:/users/montoya/documents/classes/cmpe146/lab/cmpe146package_lpc1758/yagarto/bin/../lib/gcc/arm-none-eabi/4.6.2/thumb/v7m\libgcc.a(_arm_cmpdf2.o)
 .debug_aranges
                0x000004e8       0x20 c:/users/montoya/documents/classes/cmpe146/lab/cmpe146package_lpc1758/yagarto/bin/../lib/gcc/arm-none-eabi/4.6.2/thumb/v7m\libgcc.a(_arm_fixdfsi.o)
 .debug_aranges
                0x00000508       0x20 c:/users/montoya/documents/classes/cmpe146/lab/cmpe146package_lpc1758/yagarto/bin/../lib/gcc/arm-none-eabi/4.6.2/thumb/v7m\libgcc.a(_arm_fixunsdfsi.o)
 .debug_aranges
                0x00000528       0x20 c:/users/montoya/documents/classes/cmpe146/lab/cmpe146package_lpc1758/yagarto/bin/../lib/gcc/arm-none-eabi/4.6.2/thumb/v7m\libgcc.a(_arm_truncdfsf2.o)
 .debug_aranges
                0x00000548       0x20 c:/users/montoya/documents/classes/cmpe146/lab/cmpe146package_lpc1758/yagarto/bin/../lib/gcc/arm-none-eabi/4.6.2/thumb/v7m\libgcc.a(_arm_addsubsf3.o)
 .debug_aranges
                0x00000568       0x20 c:/users/montoya/documents/classes/cmpe146/lab/cmpe146package_lpc1758/yagarto/bin/../lib/gcc/arm-none-eabi/4.6.2/thumb/v7m\libgcc.a(_arm_muldivsf3.o)
 .debug_aranges
                0x00000588       0x20 c:/users/montoya/documents/classes/cmpe146/lab/cmpe146package_lpc1758/yagarto/bin/../lib/gcc/arm-none-eabi/4.6.2/thumb/v7m\libgcc.a(_arm_cmpsf2.o)
 .debug_aranges
                0x000005a8       0x20 c:/users/montoya/documents/classes/cmpe146/lab/cmpe146package_lpc1758/yagarto/bin/../lib/gcc/arm-none-eabi/4.6.2/thumb/v7m\libgcc.a(_arm_fixsfsi.o)
 .debug_aranges
                0x000005c8       0x20 c:/users/montoya/documents/classes/cmpe146/lab/cmpe146package_lpc1758/yagarto/bin/../lib/gcc/arm-none-eabi/4.6.2/thumb/v7m\libgcc.a(unwind-arm.o)
 .debug_aranges
                0x000005e8       0x20 c:/users/montoya/documents/classes/cmpe146/lab/cmpe146package_lpc1758/yagarto/bin/../lib/gcc/arm-none-eabi/4.6.2/thumb/v7m\libgcc.a(libunwind.o)
 .debug_aranges
                0x00000608       0x20 c:/users/montoya/documents/classes/cmpe146/lab/cmpe146package_lpc1758/yagarto/bin/../lib/gcc/arm-none-eabi/4.6.2/thumb/v7m\libgcc.a(pr-support.o)
 .debug_aranges
                0x00000628       0x20 c:/users/montoya/documents/classes/cmpe146/lab/cmpe146package_lpc1758/yagarto/bin/../lib/gcc/arm-none-eabi/4.6.2/../../../../arm-none-eabi/lib/thumb/v7m\libc.a(lib_a-abort.o)
 .debug_aranges
                0x00000648       0x20 c:/users/montoya/documents/classes/cmpe146/lab/cmpe146package_lpc1758/yagarto/bin/../lib/gcc/arm-none-eabi/4.6.2/../../../../arm-none-eabi/lib/thumb/v7m\libc.a(lib_a-assert.o)
 .debug_aranges
                0x00000668       0x20 c:/users/montoya/documents/classes/cmpe146/lab/cmpe146package_lpc1758/yagarto/bin/../lib/gcc/arm-none-eabi/4.6.2/../../../../arm-none-eabi/lib/thumb/v7m\libc.a(lib_a-atoi.o)
 .debug_aranges
                0x00000688       0x20 c:/users/montoya/documents/classes/cmpe146/lab/cmpe146package_lpc1758/yagarto/bin/../lib/gcc/arm-none-eabi/4.6.2/../../../../arm-none-eabi/lib/thumb/v7m\libc.a(lib_a-fiprintf.o)
 .debug_aranges
                0x000006a8       0x20 c:/users/montoya/documents/classes/cmpe146/lab/cmpe146package_lpc1758/yagarto/bin/../lib/gcc/arm-none-eabi/4.6.2/../../../../arm-none-eabi/lib/thumb/v7m\libc.a(lib_a-init.o)
 .debug_aranges
                0x000006c8       0x20 c:/users/montoya/documents/classes/cmpe146/lab/cmpe146package_lpc1758/yagarto/bin/../lib/gcc/arm-none-eabi/4.6.2/../../../../arm-none-eabi/lib/thumb/v7m\libc.a(lib_a-isalnum.o)
 .debug_aranges
                0x000006e8       0x20 c:/users/montoya/documents/classes/cmpe146/lab/cmpe146package_lpc1758/yagarto/bin/../lib/gcc/arm-none-eabi/4.6.2/../../../../arm-none-eabi/lib/thumb/v7m\libc.a(lib_a-isalpha.o)
 .debug_aranges
                0x00000708       0x20 c:/users/montoya/documents/classes/cmpe146/lab/cmpe146package_lpc1758/yagarto/bin/../lib/gcc/arm-none-eabi/4.6.2/../../../../arm-none-eabi/lib/thumb/v7m\libc.a(lib_a-malloc.o)
 .debug_aranges
                0x00000728       0x20 c:/users/montoya/documents/classes/cmpe146/lab/cmpe146package_lpc1758/yagarto/bin/../lib/gcc/arm-none-eabi/4.6.2/../../../../arm-none-eabi/lib/thumb/v7m\libc.a(lib_a-mallocr.o)
 .debug_aranges
                0x00000748       0x20 c:/users/montoya/documents/classes/cmpe146/lab/cmpe146package_lpc1758/yagarto/bin/../lib/gcc/arm-none-eabi/4.6.2/../../../../arm-none-eabi/lib/thumb/v7m\libc.a(lib_a-memcmp.o)
 .debug_aranges
                0x00000768       0x20 c:/users/montoya/documents/classes/cmpe146/lab/cmpe146package_lpc1758/yagarto/bin/../lib/gcc/arm-none-eabi/4.6.2/../../../../arm-none-eabi/lib/thumb/v7m\libc.a(lib_a-memcpy.o)
 .debug_aranges
                0x00000788       0x20 c:/users/montoya/documents/classes/cmpe146/lab/cmpe146package_lpc1758/yagarto/bin/../lib/gcc/arm-none-eabi/4.6.2/../../../../arm-none-eabi/lib/thumb/v7m\libc.a(lib_a-memmove.o)
 .debug_aranges
                0x000007a8       0x20 c:/users/montoya/documents/classes/cmpe146/lab/cmpe146package_lpc1758/yagarto/bin/../lib/gcc/arm-none-eabi/4.6.2/../../../../arm-none-eabi/lib/thumb/v7m\libc.a(lib_a-memset.o)
 .debug_aranges
                0x000007c8       0x20 c:/users/montoya/documents/classes/cmpe146/lab/cmpe146package_lpc1758/yagarto/bin/../lib/gcc/arm-none-eabi/4.6.2/../../../../arm-none-eabi/lib/thumb/v7m\libc.a(lib_a-mlock.o)
 .debug_aranges
                0x000007e8       0x20 c:/users/montoya/documents/classes/cmpe146/lab/cmpe146package_lpc1758/yagarto/bin/../lib/gcc/arm-none-eabi/4.6.2/../../../../arm-none-eabi/lib/thumb/v7m\libc.a(lib_a-mstats.o)
 .debug_aranges
                0x00000808       0x20 c:/users/montoya/documents/classes/cmpe146/lab/cmpe146package_lpc1758/yagarto/bin/../lib/gcc/arm-none-eabi/4.6.2/../../../../arm-none-eabi/lib/thumb/v7m\libc.a(lib_a-puts.o)
 .debug_aranges
                0x00000828       0x20 c:/users/montoya/documents/classes/cmpe146/lab/cmpe146package_lpc1758/yagarto/bin/../lib/gcc/arm-none-eabi/4.6.2/../../../../arm-none-eabi/lib/thumb/v7m\libc.a(lib_a-realloc.o)
 .debug_aranges
                0x00000848       0x20 c:/users/montoya/documents/classes/cmpe146/lab/cmpe146package_lpc1758/yagarto/bin/../lib/gcc/arm-none-eabi/4.6.2/../../../../arm-none-eabi/lib/thumb/v7m\libc.a(lib_a-reallocr.o)
 .debug_aranges
                0x00000868       0x20 c:/users/montoya/documents/classes/cmpe146/lab/cmpe146package_lpc1758/yagarto/bin/../lib/gcc/arm-none-eabi/4.6.2/../../../../arm-none-eabi/lib/thumb/v7m\libc.a(lib_a-sbrkr.o)
 .debug_aranges
                0x00000888       0x20 c:/users/montoya/documents/classes/cmpe146/lab/cmpe146package_lpc1758/yagarto/bin/../lib/gcc/arm-none-eabi/4.6.2/../../../../arm-none-eabi/lib/thumb/v7m\libc.a(lib_a-setvbuf.o)
 .debug_aranges
                0x000008a8       0x20 c:/users/montoya/documents/classes/cmpe146/lab/cmpe146package_lpc1758/yagarto/bin/../lib/gcc/arm-none-eabi/4.6.2/../../../../arm-none-eabi/lib/thumb/v7m\libc.a(lib_a-signal.o)
 .debug_aranges
                0x000008c8       0x20 c:/users/montoya/documents/classes/cmpe146/lab/cmpe146package_lpc1758/yagarto/bin/../lib/gcc/arm-none-eabi/4.6.2/../../../../arm-none-eabi/lib/thumb/v7m\libc.a(lib_a-signalr.o)
 .debug_aranges
                0x000008e8       0x20 c:/users/montoya/documents/classes/cmpe146/lab/cmpe146package_lpc1758/yagarto/bin/../lib/gcc/arm-none-eabi/4.6.2/../../../../arm-none-eabi/lib/thumb/v7m\libc.a(lib_a-siprintf.o)
 .debug_aranges
                0x00000908       0x20 c:/users/montoya/documents/classes/cmpe146/lab/cmpe146package_lpc1758/yagarto/bin/../lib/gcc/arm-none-eabi/4.6.2/../../../../arm-none-eabi/lib/thumb/v7m\libc.a(lib_a-strcasecmp.o)
 .debug_aranges
                0x00000928       0x20 c:/users/montoya/documents/classes/cmpe146/lab/cmpe146package_lpc1758/yagarto/bin/../lib/gcc/arm-none-eabi/4.6.2/../../../../arm-none-eabi/lib/thumb/v7m\libc.a(lib_a-strcat.o)
 .debug_aranges
                0x00000948       0x20 c:/users/montoya/documents/classes/cmpe146/lab/cmpe146package_lpc1758/yagarto/bin/../lib/gcc/arm-none-eabi/4.6.2/../../../../arm-none-eabi/lib/thumb/v7m\libc.a(lib_a-strchr.o)
 .debug_aranges
                0x00000968       0x20 c:/users/montoya/documents/classes/cmpe146/lab/cmpe146package_lpc1758/yagarto/bin/../lib/gcc/arm-none-eabi/4.6.2/../../../../arm-none-eabi/lib/thumb/v7m\libc.a(lib_a-strcmp.o)
 .debug_aranges
                0x00000988       0x20 c:/users/montoya/documents/classes/cmpe146/lab/cmpe146package_lpc1758/yagarto/bin/../lib/gcc/arm-none-eabi/4.6.2/../../../../arm-none-eabi/lib/thumb/v7m\libc.a(lib_a-strcpy.o)
 .debug_aranges
                0x000009a8       0x20 c:/users/montoya/documents/classes/cmpe146/lab/cmpe146package_lpc1758/yagarto/bin/../lib/gcc/arm-none-eabi/4.6.2/../../../../arm-none-eabi/lib/thumb/v7m\libc.a(lib_a-strlen.o)
 .debug_aranges
                0x000009c8       0x20 c:/users/montoya/documents/classes/cmpe146/lab/cmpe146package_lpc1758/yagarto/bin/../lib/gcc/arm-none-eabi/4.6.2/../../../../arm-none-eabi/lib/thumb/v7m\libc.a(lib_a-strncasecmp.o)
 .debug_aranges
                0x000009e8       0x20 c:/users/montoya/documents/classes/cmpe146/lab/cmpe146package_lpc1758/yagarto/bin/../lib/gcc/arm-none-eabi/4.6.2/../../../../arm-none-eabi/lib/thumb/v7m\libc.a(lib_a-strncmp.o)
 .debug_aranges
                0x00000a08       0x20 c:/users/montoya/documents/classes/cmpe146/lab/cmpe146package_lpc1758/yagarto/bin/../lib/gcc/arm-none-eabi/4.6.2/../../../../arm-none-eabi/lib/thumb/v7m\libc.a(lib_a-strncpy.o)
 .debug_aranges
                0x00000a28       0x20 c:/users/montoya/documents/classes/cmpe146/lab/cmpe146package_lpc1758/yagarto/bin/../lib/gcc/arm-none-eabi/4.6.2/../../../../arm-none-eabi/lib/thumb/v7m\libc.a(lib_a-strpbrk.o)
 .debug_aranges
                0x00000a48       0x20 c:/users/montoya/documents/classes/cmpe146/lab/cmpe146package_lpc1758/yagarto/bin/../lib/gcc/arm-none-eabi/4.6.2/../../../../arm-none-eabi/lib/thumb/v7m\libc.a(lib_a-strrchr.o)
 .debug_aranges
                0x00000a68       0x20 c:/users/montoya/documents/classes/cmpe146/lab/cmpe146package_lpc1758/yagarto/bin/../lib/gcc/arm-none-eabi/4.6.2/../../../../arm-none-eabi/lib/thumb/v7m\libc.a(lib_a-strstr.o)
 .debug_aranges
                0x00000a88       0x20 c:/users/montoya/documents/classes/cmpe146/lab/cmpe146package_lpc1758/yagarto/bin/../lib/gcc/arm-none-eabi/4.6.2/../../../../arm-none-eabi/lib/thumb/v7m\libc.a(lib_a-strtol.o)
 .debug_aranges
                0x00000aa8       0x20 c:/users/montoya/documents/classes/cmpe146/lab/cmpe146package_lpc1758/yagarto/bin/../lib/gcc/arm-none-eabi/4.6.2/../../../../arm-none-eabi/lib/thumb/v7m\libc.a(lib_a-svfiprintf.o)
 .debug_aranges
                0x00000ac8       0x20 c:/users/montoya/documents/classes/cmpe146/lab/cmpe146package_lpc1758/yagarto/bin/../lib/gcc/arm-none-eabi/4.6.2/../../../../arm-none-eabi/lib/thumb/v7m\libc.a(lib_a-syswrite.o)
 .debug_aranges
                0x00000ae8       0x20 c:/users/montoya/documents/classes/cmpe146/lab/cmpe146package_lpc1758/yagarto/bin/../lib/gcc/arm-none-eabi/4.6.2/../../../../arm-none-eabi/lib/thumb/v7m\libc.a(lib_a-tolower.o)
 .debug_aranges
                0x00000b08       0x20 c:/users/montoya/documents/classes/cmpe146/lab/cmpe146package_lpc1758/yagarto/bin/../lib/gcc/arm-none-eabi/4.6.2/../../../../arm-none-eabi/lib/thumb/v7m\libc.a(lib_a-toupper.o)
 .debug_aranges
                0x00000b28       0x20 c:/users/montoya/documents/classes/cmpe146/lab/cmpe146package_lpc1758/yagarto/bin/../lib/gcc/arm-none-eabi/4.6.2/../../../../arm-none-eabi/lib/thumb/v7m\libc.a(lib_a-vfiprintf.o)
 .debug_aranges
                0x00000b48       0x20 c:/users/montoya/documents/classes/cmpe146/lab/cmpe146package_lpc1758/yagarto/bin/../lib/gcc/arm-none-eabi/4.6.2/../../../../arm-none-eabi/lib/thumb/v7m\libc.a(lib_a-viprintf.o)
 .debug_aranges
                0x00000b68       0x20 c:/users/montoya/documents/classes/cmpe146/lab/cmpe146package_lpc1758/yagarto/bin/../lib/gcc/arm-none-eabi/4.6.2/../../../../arm-none-eabi/lib/thumb/v7m\libc.a(lib_a-vsiprintf.o)
 .debug_aranges
                0x00000b88       0x20 c:/users/montoya/documents/classes/cmpe146/lab/cmpe146package_lpc1758/yagarto/bin/../lib/gcc/arm-none-eabi/4.6.2/../../../../arm-none-eabi/lib/thumb/v7m\libc.a(lib_a-vsiscanf.o)
 .debug_aranges
                0x00000ba8       0x20 c:/users/montoya/documents/classes/cmpe146/lab/cmpe146package_lpc1758/yagarto/bin/../lib/gcc/arm-none-eabi/4.6.2/../../../../arm-none-eabi/lib/thumb/v7m\libc.a(lib_a-vsniprintf.o)
 .debug_aranges
                0x00000bc8       0x20 c:/users/montoya/documents/classes/cmpe146/lab/cmpe146package_lpc1758/yagarto/bin/../lib/gcc/arm-none-eabi/4.6.2/../../../../arm-none-eabi/lib/thumb/v7m\libc.a(lib_a-vsnprintf.o)
 .debug_aranges
                0x00000be8       0x20 c:/users/montoya/documents/classes/cmpe146/lab/cmpe146package_lpc1758/yagarto/bin/../lib/gcc/arm-none-eabi/4.6.2/../../../../arm-none-eabi/lib/thumb/v7m\libc.a(lib_a-wbuf.o)
 .debug_aranges
                0x00000c08       0x20 c:/users/montoya/documents/classes/cmpe146/lab/cmpe146package_lpc1758/yagarto/bin/../lib/gcc/arm-none-eabi/4.6.2/../../../../arm-none-eabi/lib/thumb/v7m\libc.a(lib_a-writer.o)
 .debug_aranges
                0x00000c28       0x20 c:/users/montoya/documents/classes/cmpe146/lab/cmpe146package_lpc1758/yagarto/bin/../lib/gcc/arm-none-eabi/4.6.2/../../../../arm-none-eabi/lib/thumb/v7m\libc.a(lib_a-wsetup.o)
 .debug_aranges
                0x00000c48       0x20 c:/users/montoya/documents/classes/cmpe146/lab/cmpe146package_lpc1758/yagarto/bin/../lib/gcc/arm-none-eabi/4.6.2/../../../../arm-none-eabi/lib/thumb/v7m\libc.a(lib_a-fflush.o)
 .debug_aranges
                0x00000c68       0x20 c:/users/montoya/documents/classes/cmpe146/lab/cmpe146package_lpc1758/yagarto/bin/../lib/gcc/arm-none-eabi/4.6.2/../../../../arm-none-eabi/lib/thumb/v7m\libc.a(lib_a-findfp.o)
 .debug_aranges
                0x00000c88       0x20 c:/users/montoya/documents/classes/cmpe146/lab/cmpe146package_lpc1758/yagarto/bin/../lib/gcc/arm-none-eabi/4.6.2/../../../../arm-none-eabi/lib/thumb/v7m\libc.a(lib_a-fputwc.o)
 .debug_aranges
                0x00000ca8       0x20 c:/users/montoya/documents/classes/cmpe146/lab/cmpe146package_lpc1758/yagarto/bin/../lib/gcc/arm-none-eabi/4.6.2/../../../../arm-none-eabi/lib/thumb/v7m\libc.a(lib_a-freer.o)
 .debug_aranges
                0x00000cc8       0x20 c:/users/montoya/documents/classes/cmpe146/lab/cmpe146package_lpc1758/yagarto/bin/../lib/gcc/arm-none-eabi/4.6.2/../../../../arm-none-eabi/lib/thumb/v7m\libc.a(lib_a-fvwrite.o)
 .debug_aranges
                0x00000ce8       0x20 c:/users/montoya/documents/classes/cmpe146/lab/cmpe146package_lpc1758/yagarto/bin/../lib/gcc/arm-none-eabi/4.6.2/../../../../arm-none-eabi/lib/thumb/v7m\libc.a(lib_a-fwalk.o)
 .debug_aranges
                0x00000d08       0x20 c:/users/montoya/documents/classes/cmpe146/lab/cmpe146package_lpc1758/yagarto/bin/../lib/gcc/arm-none-eabi/4.6.2/../../../../arm-none-eabi/lib/thumb/v7m\libc.a(lib_a-locale.o)
 .debug_aranges
                0x00000d28       0x20 c:/users/montoya/documents/classes/cmpe146/lab/cmpe146package_lpc1758/yagarto/bin/../lib/gcc/arm-none-eabi/4.6.2/../../../../arm-none-eabi/lib/thumb/v7m\libc.a(lib_a-makebuf.o)
 .debug_aranges
                0x00000d48       0x20 c:/users/montoya/documents/classes/cmpe146/lab/cmpe146package_lpc1758/yagarto/bin/../lib/gcc/arm-none-eabi/4.6.2/../../../../arm-none-eabi/lib/thumb/v7m\libc.a(lib_a-mallinfor.o)
 .debug_aranges
                0x00000d68       0x20 c:/users/montoya/documents/classes/cmpe146/lab/cmpe146package_lpc1758/yagarto/bin/../lib/gcc/arm-none-eabi/4.6.2/../../../../arm-none-eabi/lib/thumb/v7m\libc.a(lib_a-malloptr.o)
 .debug_aranges
                0x00000d88       0x20 c:/users/montoya/documents/classes/cmpe146/lab/cmpe146package_lpc1758/yagarto/bin/../lib/gcc/arm-none-eabi/4.6.2/../../../../arm-none-eabi/lib/thumb/v7m\libc.a(lib_a-mallstatsr.o)
 .debug_aranges
                0x00000da8       0x20 c:/users/montoya/documents/classes/cmpe146/lab/cmpe146package_lpc1758/yagarto/bin/../lib/gcc/arm-none-eabi/4.6.2/../../../../arm-none-eabi/lib/thumb/v7m\libc.a(lib_a-memchr.o)
 .debug_aranges
                0x00000dc8       0x20 c:/users/montoya/documents/classes/cmpe146/lab/cmpe146package_lpc1758/yagarto/bin/../lib/gcc/arm-none-eabi/4.6.2/../../../../arm-none-eabi/lib/thumb/v7m\libc.a(lib_a-reent.o)
 .debug_aranges
                0x00000de8       0x20 c:/users/montoya/documents/classes/cmpe146/lab/cmpe146package_lpc1758/yagarto/bin/../lib/gcc/arm-none-eabi/4.6.2/../../../../arm-none-eabi/lib/thumb/v7m\libc.a(lib_a-stdio.o)
 .debug_aranges
                0x00000e08       0x20 c:/users/montoya/documents/classes/cmpe146/lab/cmpe146package_lpc1758/yagarto/bin/../lib/gcc/arm-none-eabi/4.6.2/../../../../arm-none-eabi/lib/thumb/v7m\libc.a(lib_a-svfiscanf.o)
 .debug_aranges
                0x00000e28       0x20 c:/users/montoya/documents/classes/cmpe146/lab/cmpe146package_lpc1758/yagarto/bin/../lib/gcc/arm-none-eabi/4.6.2/../../../../arm-none-eabi/lib/thumb/v7m\libc.a(lib_a-svfprintf.o)
 .debug_aranges
                0x00000e48       0x20 c:/users/montoya/documents/classes/cmpe146/lab/cmpe146package_lpc1758/yagarto/bin/../lib/gcc/arm-none-eabi/4.6.2/../../../../arm-none-eabi/lib/thumb/v7m\libc.a(lib_a-ungetc.o)
 .debug_aranges
                0x00000e68       0x20 c:/users/montoya/documents/classes/cmpe146/lab/cmpe146package_lpc1758/yagarto/bin/../lib/gcc/arm-none-eabi/4.6.2/../../../../arm-none-eabi/lib/thumb/v7m\libc.a(lib_a-wcrtomb.o)
 .debug_aranges
                0x00000e88       0x20 c:/users/montoya/documents/classes/cmpe146/lab/cmpe146package_lpc1758/yagarto/bin/../lib/gcc/arm-none-eabi/4.6.2/../../../../arm-none-eabi/lib/thumb/v7m\libc.a(lib_a-wctomb_r.o)
 .debug_aranges
                0x00000ea8       0x20 c:/users/montoya/documents/classes/cmpe146/lab/cmpe146package_lpc1758/yagarto/bin/../lib/gcc/arm-none-eabi/4.6.2/../../../../arm-none-eabi/lib/thumb/v7m\libc.a(lib_a-closer.o)
 .debug_aranges
                0x00000ec8       0x20 c:/users/montoya/documents/classes/cmpe146/lab/cmpe146package_lpc1758/yagarto/bin/../lib/gcc/arm-none-eabi/4.6.2/../../../../arm-none-eabi/lib/thumb/v7m\libc.a(lib_a-dtoa.o)
 .debug_aranges
                0x00000ee8       0x20 c:/users/montoya/documents/classes/cmpe146/lab/cmpe146package_lpc1758/yagarto/bin/../lib/gcc/arm-none-eabi/4.6.2/../../../../arm-none-eabi/lib/thumb/v7m\libc.a(lib_a-fclose.o)
 .debug_aranges
                0x00000f08       0x20 c:/users/montoya/documents/classes/cmpe146/lab/cmpe146package_lpc1758/yagarto/bin/../lib/gcc/arm-none-eabi/4.6.2/../../../../arm-none-eabi/lib/thumb/v7m\libc.a(lib_a-fstatr.o)
 .debug_aranges
                0x00000f28       0x20 c:/users/montoya/documents/classes/cmpe146/lab/cmpe146package_lpc1758/yagarto/bin/../lib/gcc/arm-none-eabi/4.6.2/../../../../arm-none-eabi/lib/thumb/v7m\libc.a(lib_a-isattyr.o)
 .debug_aranges
                0x00000f48       0x20 c:/users/montoya/documents/classes/cmpe146/lab/cmpe146package_lpc1758/yagarto/bin/../lib/gcc/arm-none-eabi/4.6.2/../../../../arm-none-eabi/lib/thumb/v7m\libc.a(lib_a-iswspace.o)
 .debug_aranges
                0x00000f68       0x20 c:/users/montoya/documents/classes/cmpe146/lab/cmpe146package_lpc1758/yagarto/bin/../lib/gcc/arm-none-eabi/4.6.2/../../../../arm-none-eabi/lib/thumb/v7m\libc.a(lib_a-lseekr.o)
 .debug_aranges
                0x00000f88       0x20 c:/users/montoya/documents/classes/cmpe146/lab/cmpe146package_lpc1758/yagarto/bin/../lib/gcc/arm-none-eabi/4.6.2/../../../../arm-none-eabi/lib/thumb/v7m\libc.a(lib_a-mbrtowc.o)
 .debug_aranges
                0x00000fa8       0x20 c:/users/montoya/documents/classes/cmpe146/lab/cmpe146package_lpc1758/yagarto/bin/../lib/gcc/arm-none-eabi/4.6.2/../../../../arm-none-eabi/lib/thumb/v7m\libc.a(lib_a-mbtowc_r.o)
 .debug_aranges
                0x00000fc8       0x20 c:/users/montoya/documents/classes/cmpe146/lab/cmpe146package_lpc1758/yagarto/bin/../lib/gcc/arm-none-eabi/4.6.2/../../../../arm-none-eabi/lib/thumb/v7m\libc.a(lib_a-mprec.o)
 .debug_aranges
                0x00000fe8       0x20 c:/users/montoya/documents/classes/cmpe146/lab/cmpe146package_lpc1758/yagarto/bin/../lib/gcc/arm-none-eabi/4.6.2/../../../../arm-none-eabi/lib/thumb/v7m\libc.a(lib_a-readr.o)
 .debug_aranges
                0x00001008       0x20 c:/users/montoya/documents/classes/cmpe146/lab/cmpe146package_lpc1758/yagarto/bin/../lib/gcc/arm-none-eabi/4.6.2/../../../../arm-none-eabi/lib/thumb/v7m\libc.a(lib_a-s_fpclassify.o)
 .debug_aranges
                0x00001028       0x20 c:/users/montoya/documents/classes/cmpe146/lab/cmpe146package_lpc1758/yagarto/bin/../lib/gcc/arm-none-eabi/4.6.2/../../../../arm-none-eabi/lib/thumb/v7m\libc.a(lib_a-sccl.o)
 .debug_aranges
                0x00001048       0x20 c:/users/montoya/documents/classes/cmpe146/lab/cmpe146package_lpc1758/yagarto/bin/../lib/gcc/arm-none-eabi/4.6.2/../../../../arm-none-eabi/lib/thumb/v7m\libc.a(lib_a-strtoul.o)
 .debug_aranges
                0x00001068       0x20 c:/users/montoya/documents/classes/cmpe146/lab/cmpe146package_lpc1758/yagarto/bin/../lib/gcc/arm-none-eabi/4.6.2/../../../../arm-none-eabi/lib/thumb/v7m\libc.a(lib_a-callocr.o)
 .debug_aranges
                0x00001088       0x20 c:/users/montoya/documents/classes/cmpe146/lab/cmpe146package_lpc1758/yagarto/bin/../lib/gcc/arm-none-eabi/4.6.2/thumb/v7m\libgcc.a(_udivsi3.o)
 .debug_aranges
                0x000010a8       0x20 c:/users/montoya/documents/classes/cmpe146/lab/cmpe146package_lpc1758/yagarto/bin/../lib/gcc/arm-none-eabi/4.6.2/thumb/v7m\libgcc.a(_dvmd_tls.o)

.debug_ranges   0x00000000     0x1330
 .debug_ranges  0x00000000       0x50 c:/users/montoya/documents/classes/cmpe146/lab/cmpe146package_lpc1758/yagarto/bin/../lib/gcc/arm-none-eabi/4.6.2/../../../../arm-none-eabi/lib/thumb/v7m\libstdc++.a(guard.o)
 .debug_ranges  0x00000050       0x30 c:/users/montoya/documents/classes/cmpe146/lab/cmpe146package_lpc1758/yagarto/bin/../lib/gcc/arm-none-eabi/4.6.2/../../../../arm-none-eabi/lib/thumb/v7m\libstdc++.a(guard_error.o)
 .debug_ranges  0x00000080       0x10 c:/users/montoya/documents/classes/cmpe146/lab/cmpe146package_lpc1758/yagarto/bin/../lib/gcc/arm-none-eabi/4.6.2/../../../../arm-none-eabi/lib/thumb/v7m\libstdc++.a(pure.o)
 .debug_ranges  0x00000090       0x60 c:/users/montoya/documents/classes/cmpe146/lab/cmpe146package_lpc1758/yagarto/bin/../lib/gcc/arm-none-eabi/4.6.2/../../../../arm-none-eabi/lib/thumb/v7m\libstdc++.a(si_class_type_info.o)
 .debug_ranges  0x000000f0       0x58 c:/users/montoya/documents/classes/cmpe146/lab/cmpe146package_lpc1758/yagarto/bin/../lib/gcc/arm-none-eabi/4.6.2/../../../../arm-none-eabi/lib/thumb/v7m\libstdc++.a(tinfo.o)
 .debug_ranges  0x00000148       0x90 c:/users/montoya/documents/classes/cmpe146/lab/cmpe146package_lpc1758/yagarto/bin/../lib/gcc/arm-none-eabi/4.6.2/../../../../arm-none-eabi/lib/thumb/v7m\libstdc++.a(class_type_info.o)
 .debug_ranges  0x000001d8       0x98 c:/users/montoya/documents/classes/cmpe146/lab/cmpe146package_lpc1758/yagarto/bin/../lib/gcc/arm-none-eabi/4.6.2/../../../../arm-none-eabi/lib/thumb/v7m\libstdc++.a(eh_alloc.o)
 .debug_ranges  0x00000270       0xd0 c:/users/montoya/documents/classes/cmpe146/lab/cmpe146package_lpc1758/yagarto/bin/../lib/gcc/arm-none-eabi/4.6.2/../../../../arm-none-eabi/lib/thumb/v7m\libstdc++.a(eh_exception.o)
 .debug_ranges  0x00000340       0x18 c:/users/montoya/documents/classes/cmpe146/lab/cmpe146package_lpc1758/yagarto/bin/../lib/gcc/arm-none-eabi/4.6.2/../../../../arm-none-eabi/lib/thumb/v7m\libstdc++.a(eh_globals.o)
 .debug_ranges  0x00000358       0x38 c:/users/montoya/documents/classes/cmpe146/lab/cmpe146package_lpc1758/yagarto/bin/../lib/gcc/arm-none-eabi/4.6.2/../../../../arm-none-eabi/lib/thumb/v7m\libstdc++.a(eh_terminate.o)
 .debug_ranges  0x00000390       0xc8 c:/users/montoya/documents/classes/cmpe146/lab/cmpe146package_lpc1758/yagarto/bin/../lib/gcc/arm-none-eabi/4.6.2/../../../../arm-none-eabi/lib/thumb/v7m\libstdc++.a(eh_throw.o)
 .debug_ranges  0x00000458      0x110 c:/users/montoya/documents/classes/cmpe146/lab/cmpe146package_lpc1758/yagarto/bin/../lib/gcc/arm-none-eabi/4.6.2/../../../../arm-none-eabi/lib/thumb/v7m\libstdc++.a(eh_arm.o)
 .debug_ranges  0x00000568       0x48 c:/users/montoya/documents/classes/cmpe146/lab/cmpe146package_lpc1758/yagarto/bin/../lib/gcc/arm-none-eabi/4.6.2/../../../../arm-none-eabi/lib/thumb/v7m\libstdc++.a(eh_aux_runtime.o)
 .debug_ranges  0x000005b0       0xb8 c:/users/montoya/documents/classes/cmpe146/lab/cmpe146package_lpc1758/yagarto/bin/../lib/gcc/arm-none-eabi/4.6.2/../../../../arm-none-eabi/lib/thumb/v7m\libstdc++.a(eh_call.o)
 .debug_ranges  0x00000668       0xb8 c:/users/montoya/documents/classes/cmpe146/lab/cmpe146package_lpc1758/yagarto/bin/../lib/gcc/arm-none-eabi/4.6.2/../../../../arm-none-eabi/lib/thumb/v7m\libstdc++.a(eh_catch.o)
 .debug_ranges  0x00000720      0x308 c:/users/montoya/documents/classes/cmpe146/lab/cmpe146package_lpc1758/yagarto/bin/../lib/gcc/arm-none-eabi/4.6.2/../../../../arm-none-eabi/lib/thumb/v7m\libstdc++.a(eh_personality.o)
 .debug_ranges  0x00000a28       0x30 c:/users/montoya/documents/classes/cmpe146/lab/cmpe146package_lpc1758/yagarto/bin/../lib/gcc/arm-none-eabi/4.6.2/../../../../arm-none-eabi/lib/thumb/v7m\libstdc++.a(fundamental_type_info.o)
 .debug_ranges  0x00000a58       0x40 c:/users/montoya/documents/classes/cmpe146/lab/cmpe146package_lpc1758/yagarto/bin/../lib/gcc/arm-none-eabi/4.6.2/../../../../arm-none-eabi/lib/thumb/v7m\libstdc++.a(pointer_type_info.o)
 .debug_ranges  0x00000a98       0x38 c:/users/montoya/documents/classes/cmpe146/lab/cmpe146package_lpc1758/yagarto/bin/../lib/gcc/arm-none-eabi/4.6.2/../../../../arm-none-eabi/lib/thumb/v7m\libstdc++.a(bad_cast.o)
 .debug_ranges  0x00000ad0       0x38 c:/users/montoya/documents/classes/cmpe146/lab/cmpe146package_lpc1758/yagarto/bin/../lib/gcc/arm-none-eabi/4.6.2/../../../../arm-none-eabi/lib/thumb/v7m\libstdc++.a(bad_typeid.o)
 .debug_ranges  0x00000b08       0x60 c:/users/montoya/documents/classes/cmpe146/lab/cmpe146package_lpc1758/yagarto/bin/../lib/gcc/arm-none-eabi/4.6.2/../../../../arm-none-eabi/lib/thumb/v7m\libstdc++.a(pbase_type_info.o)
 .debug_ranges  0x00000b68      0x140 c:/users/montoya/documents/classes/cmpe146/lab/cmpe146package_lpc1758/yagarto/bin/../lib/gcc/arm-none-eabi/4.6.2/thumb/v7m\libgcc.a(unwind-arm.o)
 .debug_ranges  0x00000ca8       0x30 c:/users/montoya/documents/classes/cmpe146/lab/cmpe146package_lpc1758/yagarto/bin/../lib/gcc/arm-none-eabi/4.6.2/thumb/v7m\libgcc.a(pr-support.o)
 .debug_ranges  0x00000cd8       0x40 c:/users/montoya/documents/classes/cmpe146/lab/cmpe146package_lpc1758/yagarto/bin/../lib/gcc/arm-none-eabi/4.6.2/../../../../arm-none-eabi/lib/thumb/v7m\libc.a(lib_a-mallocr.o)
 .debug_ranges  0x00000d18       0xd0 c:/users/montoya/documents/classes/cmpe146/lab/cmpe146package_lpc1758/yagarto/bin/../lib/gcc/arm-none-eabi/4.6.2/../../../../arm-none-eabi/lib/thumb/v7m\libc.a(lib_a-reallocr.o)
 .debug_ranges  0x00000de8       0x40 c:/users/montoya/documents/classes/cmpe146/lab/cmpe146package_lpc1758/yagarto/bin/../lib/gcc/arm-none-eabi/4.6.2/../../../../arm-none-eabi/lib/thumb/v7m\libc.a(lib_a-strcasecmp.o)
 .debug_ranges  0x00000e28       0x20 c:/users/montoya/documents/classes/cmpe146/lab/cmpe146package_lpc1758/yagarto/bin/../lib/gcc/arm-none-eabi/4.6.2/../../../../arm-none-eabi/lib/thumb/v7m\libc.a(lib_a-strcat.o)
 .debug_ranges  0x00000e48       0x58 c:/users/montoya/documents/classes/cmpe146/lab/cmpe146package_lpc1758/yagarto/bin/../lib/gcc/arm-none-eabi/4.6.2/../../../../arm-none-eabi/lib/thumb/v7m\libc.a(lib_a-strncasecmp.o)
 .debug_ranges  0x00000ea0       0xa8 c:/users/montoya/documents/classes/cmpe146/lab/cmpe146package_lpc1758/yagarto/bin/../lib/gcc/arm-none-eabi/4.6.2/../../../../arm-none-eabi/lib/thumb/v7m\libc.a(lib_a-strstr.o)
 .debug_ranges  0x00000f48       0x48 c:/users/montoya/documents/classes/cmpe146/lab/cmpe146package_lpc1758/yagarto/bin/../lib/gcc/arm-none-eabi/4.6.2/../../../../arm-none-eabi/lib/thumb/v7m\libc.a(lib_a-svfiprintf.o)
 .debug_ranges  0x00000f90       0x80 c:/users/montoya/documents/classes/cmpe146/lab/cmpe146package_lpc1758/yagarto/bin/../lib/gcc/arm-none-eabi/4.6.2/../../../../arm-none-eabi/lib/thumb/v7m\libc.a(lib_a-vfiprintf.o)
 .debug_ranges  0x00001010       0x68 c:/users/montoya/documents/classes/cmpe146/lab/cmpe146package_lpc1758/yagarto/bin/../lib/gcc/arm-none-eabi/4.6.2/../../../../arm-none-eabi/lib/thumb/v7m\libc.a(lib_a-fflush.o)
 .debug_ranges  0x00001078       0x30 c:/users/montoya/documents/classes/cmpe146/lab/cmpe146package_lpc1758/yagarto/bin/../lib/gcc/arm-none-eabi/4.6.2/../../../../arm-none-eabi/lib/thumb/v7m\libc.a(lib_a-fputwc.o)
 .debug_ranges  0x000010a8       0x98 c:/users/montoya/documents/classes/cmpe146/lab/cmpe146package_lpc1758/yagarto/bin/../lib/gcc/arm-none-eabi/4.6.2/../../../../arm-none-eabi/lib/thumb/v7m\libc.a(lib_a-svfiscanf.o)
 .debug_ranges  0x00001140      0x198 c:/users/montoya/documents/classes/cmpe146/lab/cmpe146package_lpc1758/yagarto/bin/../lib/gcc/arm-none-eabi/4.6.2/../../../../arm-none-eabi/lib/thumb/v7m\libc.a(lib_a-svfprintf.o)
 .debug_ranges  0x000012d8       0x40 c:/users/montoya/documents/classes/cmpe146/lab/cmpe146package_lpc1758/yagarto/bin/../lib/gcc/arm-none-eabi/4.6.2/../../../../arm-none-eabi/lib/thumb/v7m\libc.a(lib_a-mprec.o)
 .debug_ranges  0x00001318       0x18 c:/users/montoya/documents/classes/cmpe146/lab/cmpe146package_lpc1758/yagarto/bin/../lib/gcc/arm-none-eabi/4.6.2/../../../../arm-none-eabi/lib/thumb/v7m\libc.a(lib_a-callocr.o)

.debug_line     0x00000000     0xd967
 .debug_line    0x00000000      0x201 c:/users/montoya/documents/classes/cmpe146/lab/cmpe146package_lpc1758/yagarto/bin/../lib/gcc/arm-none-eabi/4.6.2/../../../../arm-none-eabi/lib/thumb/v7m\libstdc++.a(guard.o)
 .debug_line    0x00000201       0xe3 c:/users/montoya/documents/classes/cmpe146/lab/cmpe146package_lpc1758/yagarto/bin/../lib/gcc/arm-none-eabi/4.6.2/../../../../arm-none-eabi/lib/thumb/v7m\libstdc++.a(guard_error.o)
 .debug_line    0x000002e4       0xc2 c:/users/montoya/documents/classes/cmpe146/lab/cmpe146package_lpc1758/yagarto/bin/../lib/gcc/arm-none-eabi/4.6.2/../../../../arm-none-eabi/lib/thumb/v7m\libstdc++.a(pure.o)
 .debug_line    0x000003a6      0x186 c:/users/montoya/documents/classes/cmpe146/lab/cmpe146package_lpc1758/yagarto/bin/../lib/gcc/arm-none-eabi/4.6.2/../../../../arm-none-eabi/lib/thumb/v7m\libstdc++.a(si_class_type_info.o)
 .debug_line    0x0000052c      0x15a c:/users/montoya/documents/classes/cmpe146/lab/cmpe146package_lpc1758/yagarto/bin/../lib/gcc/arm-none-eabi/4.6.2/../../../../arm-none-eabi/lib/thumb/v7m\libstdc++.a(tinfo.o)
 .debug_line    0x00000686      0x1d6 c:/users/montoya/documents/classes/cmpe146/lab/cmpe146package_lpc1758/yagarto/bin/../lib/gcc/arm-none-eabi/4.6.2/../../../../arm-none-eabi/lib/thumb/v7m\libstdc++.a(class_type_info.o)
 .debug_line    0x0000085c      0x34f c:/users/montoya/documents/classes/cmpe146/lab/cmpe146package_lpc1758/yagarto/bin/../lib/gcc/arm-none-eabi/4.6.2/../../../../arm-none-eabi/lib/thumb/v7m\libstdc++.a(eh_alloc.o)
 .debug_line    0x00000bab      0x1d3 c:/users/montoya/documents/classes/cmpe146/lab/cmpe146package_lpc1758/yagarto/bin/../lib/gcc/arm-none-eabi/4.6.2/../../../../arm-none-eabi/lib/thumb/v7m\libstdc++.a(eh_exception.o)
 .debug_line    0x00000d7e      0x1d9 c:/users/montoya/documents/classes/cmpe146/lab/cmpe146package_lpc1758/yagarto/bin/../lib/gcc/arm-none-eabi/4.6.2/../../../../arm-none-eabi/lib/thumb/v7m\libstdc++.a(eh_globals.o)
 .debug_line    0x00000f57      0x213 c:/users/montoya/documents/classes/cmpe146/lab/cmpe146package_lpc1758/yagarto/bin/../lib/gcc/arm-none-eabi/4.6.2/../../../../arm-none-eabi/lib/thumb/v7m\libstdc++.a(eh_terminate.o)
 .debug_line    0x0000116a       0xbb c:/users/montoya/documents/classes/cmpe146/lab/cmpe146package_lpc1758/yagarto/bin/../lib/gcc/arm-none-eabi/4.6.2/../../../../arm-none-eabi/lib/thumb/v7m\libstdc++.a(eh_term_handler.o)
 .debug_line    0x00001225      0x226 c:/users/montoya/documents/classes/cmpe146/lab/cmpe146package_lpc1758/yagarto/bin/../lib/gcc/arm-none-eabi/4.6.2/../../../../arm-none-eabi/lib/thumb/v7m\libstdc++.a(eh_throw.o)
 .debug_line    0x0000144b       0xbb c:/users/montoya/documents/classes/cmpe146/lab/cmpe146package_lpc1758/yagarto/bin/../lib/gcc/arm-none-eabi/4.6.2/../../../../arm-none-eabi/lib/thumb/v7m\libstdc++.a(eh_unex_handler.o)
 .debug_line    0x00001506      0x224 c:/users/montoya/documents/classes/cmpe146/lab/cmpe146package_lpc1758/yagarto/bin/../lib/gcc/arm-none-eabi/4.6.2/../../../../arm-none-eabi/lib/thumb/v7m\libstdc++.a(eh_arm.o)
 .debug_line    0x0000172a      0x1ef c:/users/montoya/documents/classes/cmpe146/lab/cmpe146package_lpc1758/yagarto/bin/../lib/gcc/arm-none-eabi/4.6.2/../../../../arm-none-eabi/lib/thumb/v7m\libstdc++.a(eh_aux_runtime.o)
 .debug_line    0x00001919      0x27f c:/users/montoya/documents/classes/cmpe146/lab/cmpe146package_lpc1758/yagarto/bin/../lib/gcc/arm-none-eabi/4.6.2/../../../../arm-none-eabi/lib/thumb/v7m\libstdc++.a(eh_call.o)
 .debug_line    0x00001b98      0x280 c:/users/montoya/documents/classes/cmpe146/lab/cmpe146package_lpc1758/yagarto/bin/../lib/gcc/arm-none-eabi/4.6.2/../../../../arm-none-eabi/lib/thumb/v7m\libstdc++.a(eh_catch.o)
 .debug_line    0x00001e18      0x5b1 c:/users/montoya/documents/classes/cmpe146/lab/cmpe146package_lpc1758/yagarto/bin/../lib/gcc/arm-none-eabi/4.6.2/../../../../arm-none-eabi/lib/thumb/v7m\libstdc++.a(eh_personality.o)
 .debug_line    0x000023c9       0xf3 c:/users/montoya/documents/classes/cmpe146/lab/cmpe146package_lpc1758/yagarto/bin/../lib/gcc/arm-none-eabi/4.6.2/../../../../arm-none-eabi/lib/thumb/v7m\libstdc++.a(fundamental_type_info.o)
 .debug_line    0x000024bc      0x128 c:/users/montoya/documents/classes/cmpe146/lab/cmpe146package_lpc1758/yagarto/bin/../lib/gcc/arm-none-eabi/4.6.2/../../../../arm-none-eabi/lib/thumb/v7m\libstdc++.a(pointer_type_info.o)
 .debug_line    0x000025e4       0xe4 c:/users/montoya/documents/classes/cmpe146/lab/cmpe146package_lpc1758/yagarto/bin/../lib/gcc/arm-none-eabi/4.6.2/../../../../arm-none-eabi/lib/thumb/v7m\libstdc++.a(bad_cast.o)
 .debug_line    0x000026c8       0xe6 c:/users/montoya/documents/classes/cmpe146/lab/cmpe146package_lpc1758/yagarto/bin/../lib/gcc/arm-none-eabi/4.6.2/../../../../arm-none-eabi/lib/thumb/v7m\libstdc++.a(bad_typeid.o)
 .debug_line    0x000027ae      0x14f c:/users/montoya/documents/classes/cmpe146/lab/cmpe146package_lpc1758/yagarto/bin/../lib/gcc/arm-none-eabi/4.6.2/../../../../arm-none-eabi/lib/thumb/v7m\libstdc++.a(pbase_type_info.o)
 .debug_line    0x000028fd      0x20d c:/users/montoya/documents/classes/cmpe146/lab/cmpe146package_lpc1758/yagarto/bin/../lib/gcc/arm-none-eabi/4.6.2/thumb/v7m\libgcc.a(_arm_addsubdf3.o)
 .debug_line    0x00002b0a      0x229 c:/users/montoya/documents/classes/cmpe146/lab/cmpe146package_lpc1758/yagarto/bin/../lib/gcc/arm-none-eabi/4.6.2/thumb/v7m\libgcc.a(_arm_muldivdf3.o)
 .debug_line    0x00002d33      0x10f c:/users/montoya/documents/classes/cmpe146/lab/cmpe146package_lpc1758/yagarto/bin/../lib/gcc/arm-none-eabi/4.6.2/thumb/v7m\libgcc.a(_arm_cmpdf2.o)
 .debug_line    0x00002e42       0x87 c:/users/montoya/documents/classes/cmpe146/lab/cmpe146package_lpc1758/yagarto/bin/../lib/gcc/arm-none-eabi/4.6.2/thumb/v7m\libgcc.a(_arm_fixdfsi.o)
 .debug_line    0x00002ec9       0x83 c:/users/montoya/documents/classes/cmpe146/lab/cmpe146package_lpc1758/yagarto/bin/../lib/gcc/arm-none-eabi/4.6.2/thumb/v7m\libgcc.a(_arm_fixunsdfsi.o)
 .debug_line    0x00002f4c       0x9b c:/users/montoya/documents/classes/cmpe146/lab/cmpe146package_lpc1758/yagarto/bin/../lib/gcc/arm-none-eabi/4.6.2/thumb/v7m\libgcc.a(_arm_truncdfsf2.o)
 .debug_line    0x00002fe7      0x129 c:/users/montoya/documents/classes/cmpe146/lab/cmpe146package_lpc1758/yagarto/bin/../lib/gcc/arm-none-eabi/4.6.2/thumb/v7m\libgcc.a(_arm_addsubsf3.o)
 .debug_line    0x00003110      0x14a c:/users/montoya/documents/classes/cmpe146/lab/cmpe146package_lpc1758/yagarto/bin/../lib/gcc/arm-none-eabi/4.6.2/thumb/v7m\libgcc.a(_arm_muldivsf3.o)
 .debug_line    0x0000325a      0x103 c:/users/montoya/documents/classes/cmpe146/lab/cmpe146package_lpc1758/yagarto/bin/../lib/gcc/arm-none-eabi/4.6.2/thumb/v7m\libgcc.a(_arm_cmpsf2.o)
 .debug_line    0x0000335d       0x87 c:/users/montoya/documents/classes/cmpe146/lab/cmpe146package_lpc1758/yagarto/bin/../lib/gcc/arm-none-eabi/4.6.2/thumb/v7m\libgcc.a(_arm_fixsfsi.o)
 .debug_line    0x000033e4      0x4aa c:/users/montoya/documents/classes/cmpe146/lab/cmpe146package_lpc1758/yagarto/bin/../lib/gcc/arm-none-eabi/4.6.2/thumb/v7m\libgcc.a(unwind-arm.o)
 .debug_line    0x0000388e       0xbd c:/users/montoya/documents/classes/cmpe146/lab/cmpe146package_lpc1758/yagarto/bin/../lib/gcc/arm-none-eabi/4.6.2/thumb/v7m\libgcc.a(libunwind.o)
 .debug_line    0x0000394b      0x1d5 c:/users/montoya/documents/classes/cmpe146/lab/cmpe146package_lpc1758/yagarto/bin/../lib/gcc/arm-none-eabi/4.6.2/thumb/v7m\libgcc.a(pr-support.o)
 .debug_line    0x00003b20       0xb6 c:/users/montoya/documents/classes/cmpe146/lab/cmpe146package_lpc1758/yagarto/bin/../lib/gcc/arm-none-eabi/4.6.2/../../../../arm-none-eabi/lib/thumb/v7m\libc.a(lib_a-abort.o)
 .debug_line    0x00003bd6      0x182 c:/users/montoya/documents/classes/cmpe146/lab/cmpe146package_lpc1758/yagarto/bin/../lib/gcc/arm-none-eabi/4.6.2/../../../../arm-none-eabi/lib/thumb/v7m\libc.a(lib_a-assert.o)
 .debug_line    0x00003d58      0x173 c:/users/montoya/documents/classes/cmpe146/lab/cmpe146package_lpc1758/yagarto/bin/../lib/gcc/arm-none-eabi/4.6.2/../../../../arm-none-eabi/lib/thumb/v7m\libc.a(lib_a-atoi.o)
 .debug_line    0x00003ecb      0x196 c:/users/montoya/documents/classes/cmpe146/lab/cmpe146package_lpc1758/yagarto/bin/../lib/gcc/arm-none-eabi/4.6.2/../../../../arm-none-eabi/lib/thumb/v7m\libc.a(lib_a-fiprintf.o)
 .debug_line    0x00004061      0x116 c:/users/montoya/documents/classes/cmpe146/lab/cmpe146package_lpc1758/yagarto/bin/../lib/gcc/arm-none-eabi/4.6.2/../../../../arm-none-eabi/lib/thumb/v7m\libc.a(lib_a-impure.o)
 .debug_line    0x00004177       0xf0 c:/users/montoya/documents/classes/cmpe146/lab/cmpe146package_lpc1758/yagarto/bin/../lib/gcc/arm-none-eabi/4.6.2/../../../../arm-none-eabi/lib/thumb/v7m\libc.a(lib_a-init.o)
 .debug_line    0x00004267       0xb6 c:/users/montoya/documents/classes/cmpe146/lab/cmpe146package_lpc1758/yagarto/bin/../lib/gcc/arm-none-eabi/4.6.2/../../../../arm-none-eabi/lib/thumb/v7m\libc.a(lib_a-isalnum.o)
 .debug_line    0x0000431d       0xb6 c:/users/montoya/documents/classes/cmpe146/lab/cmpe146package_lpc1758/yagarto/bin/../lib/gcc/arm-none-eabi/4.6.2/../../../../arm-none-eabi/lib/thumb/v7m\libc.a(lib_a-isalpha.o)
 .debug_line    0x000043d3      0x179 c:/users/montoya/documents/classes/cmpe146/lab/cmpe146package_lpc1758/yagarto/bin/../lib/gcc/arm-none-eabi/4.6.2/../../../../arm-none-eabi/lib/thumb/v7m\libc.a(lib_a-malloc.o)
 .debug_line    0x0000454c      0x309 c:/users/montoya/documents/classes/cmpe146/lab/cmpe146package_lpc1758/yagarto/bin/../lib/gcc/arm-none-eabi/4.6.2/../../../../arm-none-eabi/lib/thumb/v7m\libc.a(lib_a-mallocr.o)
 .debug_line    0x00004855      0x147 c:/users/montoya/documents/classes/cmpe146/lab/cmpe146package_lpc1758/yagarto/bin/../lib/gcc/arm-none-eabi/4.6.2/../../../../arm-none-eabi/lib/thumb/v7m\libc.a(lib_a-memcmp.o)
 .debug_line    0x0000499c      0x175 c:/users/montoya/documents/classes/cmpe146/lab/cmpe146package_lpc1758/yagarto/bin/../lib/gcc/arm-none-eabi/4.6.2/../../../../arm-none-eabi/lib/thumb/v7m\libc.a(lib_a-memcpy.o)
 .debug_line    0x00004b11      0x19d c:/users/montoya/documents/classes/cmpe146/lab/cmpe146package_lpc1758/yagarto/bin/../lib/gcc/arm-none-eabi/4.6.2/../../../../arm-none-eabi/lib/thumb/v7m\libc.a(lib_a-memmove.o)
 .debug_line    0x00004cae      0x183 c:/users/montoya/documents/classes/cmpe146/lab/cmpe146package_lpc1758/yagarto/bin/../lib/gcc/arm-none-eabi/4.6.2/../../../../arm-none-eabi/lib/thumb/v7m\libc.a(lib_a-memset.o)
 .debug_line    0x00004e31      0x128 c:/users/montoya/documents/classes/cmpe146/lab/cmpe146package_lpc1758/yagarto/bin/../lib/gcc/arm-none-eabi/4.6.2/../../../../arm-none-eabi/lib/thumb/v7m\libc.a(lib_a-mlock.o)
 .debug_line    0x00004f59      0x192 c:/users/montoya/documents/classes/cmpe146/lab/cmpe146package_lpc1758/yagarto/bin/../lib/gcc/arm-none-eabi/4.6.2/../../../../arm-none-eabi/lib/thumb/v7m\libc.a(lib_a-mstats.o)
 .debug_line    0x000050eb      0x19b c:/users/montoya/documents/classes/cmpe146/lab/cmpe146package_lpc1758/yagarto/bin/../lib/gcc/arm-none-eabi/4.6.2/../../../../arm-none-eabi/lib/thumb/v7m\libc.a(lib_a-puts.o)
 .debug_line    0x00005286      0x175 c:/users/montoya/documents/classes/cmpe146/lab/cmpe146package_lpc1758/yagarto/bin/../lib/gcc/arm-none-eabi/4.6.2/../../../../arm-none-eabi/lib/thumb/v7m\libc.a(lib_a-realloc.o)
 .debug_line    0x000053fb      0x28d c:/users/montoya/documents/classes/cmpe146/lab/cmpe146package_lpc1758/yagarto/bin/../lib/gcc/arm-none-eabi/4.6.2/../../../../arm-none-eabi/lib/thumb/v7m\libc.a(lib_a-reallocr.o)
 .debug_line    0x00005688      0x177 c:/users/montoya/documents/classes/cmpe146/lab/cmpe146package_lpc1758/yagarto/bin/../lib/gcc/arm-none-eabi/4.6.2/../../../../arm-none-eabi/lib/thumb/v7m\libc.a(lib_a-sbrkr.o)
 .debug_line    0x000057ff      0x1d6 c:/users/montoya/documents/classes/cmpe146/lab/cmpe146package_lpc1758/yagarto/bin/../lib/gcc/arm-none-eabi/4.6.2/../../../../arm-none-eabi/lib/thumb/v7m\libc.a(lib_a-setvbuf.o)
 .debug_line    0x000059d5      0x20a c:/users/montoya/documents/classes/cmpe146/lab/cmpe146package_lpc1758/yagarto/bin/../lib/gcc/arm-none-eabi/4.6.2/../../../../arm-none-eabi/lib/thumb/v7m\libc.a(lib_a-signal.o)
 .debug_line    0x00005bdf      0x17f c:/users/montoya/documents/classes/cmpe146/lab/cmpe146package_lpc1758/yagarto/bin/../lib/gcc/arm-none-eabi/4.6.2/../../../../arm-none-eabi/lib/thumb/v7m\libc.a(lib_a-signalr.o)
 .debug_line    0x00005d5e      0x1ca c:/users/montoya/documents/classes/cmpe146/lab/cmpe146package_lpc1758/yagarto/bin/../lib/gcc/arm-none-eabi/4.6.2/../../../../arm-none-eabi/lib/thumb/v7m\libc.a(lib_a-siprintf.o)
 .debug_line    0x00005f28       0xd6 c:/users/montoya/documents/classes/cmpe146/lab/cmpe146package_lpc1758/yagarto/bin/../lib/gcc/arm-none-eabi/4.6.2/../../../../arm-none-eabi/lib/thumb/v7m\libc.a(lib_a-strcasecmp.o)
 .debug_line    0x00005ffe       0xf2 c:/users/montoya/documents/classes/cmpe146/lab/cmpe146package_lpc1758/yagarto/bin/../lib/gcc/arm-none-eabi/4.6.2/../../../../arm-none-eabi/lib/thumb/v7m\libc.a(lib_a-strcat.o)
 .debug_line    0x000060f0      0x113 c:/users/montoya/documents/classes/cmpe146/lab/cmpe146package_lpc1758/yagarto/bin/../lib/gcc/arm-none-eabi/4.6.2/../../../../arm-none-eabi/lib/thumb/v7m\libc.a(lib_a-strchr.o)
 .debug_line    0x00006203       0xca c:/users/montoya/documents/classes/cmpe146/lab/cmpe146package_lpc1758/yagarto/bin/../lib/gcc/arm-none-eabi/4.6.2/../../../../arm-none-eabi/lib/thumb/v7m\libc.a(lib_a-strcmp.o)
 .debug_line    0x000062cd       0xbe c:/users/montoya/documents/classes/cmpe146/lab/cmpe146package_lpc1758/yagarto/bin/../lib/gcc/arm-none-eabi/4.6.2/../../../../arm-none-eabi/lib/thumb/v7m\libc.a(lib_a-strcpy.o)
 .debug_line    0x0000638b      0x117 c:/users/montoya/documents/classes/cmpe146/lab/cmpe146package_lpc1758/yagarto/bin/../lib/gcc/arm-none-eabi/4.6.2/../../../../arm-none-eabi/lib/thumb/v7m\libc.a(lib_a-strlen.o)
 .debug_line    0x000064a2      0x131 c:/users/montoya/documents/classes/cmpe146/lab/cmpe146package_lpc1758/yagarto/bin/../lib/gcc/arm-none-eabi/4.6.2/../../../../arm-none-eabi/lib/thumb/v7m\libc.a(lib_a-strncasecmp.o)
 .debug_line    0x000065d3      0x186 c:/users/montoya/documents/classes/cmpe146/lab/cmpe146package_lpc1758/yagarto/bin/../lib/gcc/arm-none-eabi/4.6.2/../../../../arm-none-eabi/lib/thumb/v7m\libc.a(lib_a-strncmp.o)
 .debug_line    0x00006759      0x13d c:/users/montoya/documents/classes/cmpe146/lab/cmpe146package_lpc1758/yagarto/bin/../lib/gcc/arm-none-eabi/4.6.2/../../../../arm-none-eabi/lib/thumb/v7m\libc.a(lib_a-strncpy.o)
 .debug_line    0x00006896       0xe1 c:/users/montoya/documents/classes/cmpe146/lab/cmpe146package_lpc1758/yagarto/bin/../lib/gcc/arm-none-eabi/4.6.2/../../../../arm-none-eabi/lib/thumb/v7m\libc.a(lib_a-strpbrk.o)
 .debug_line    0x00006977       0xc2 c:/users/montoya/documents/classes/cmpe146/lab/cmpe146package_lpc1758/yagarto/bin/../lib/gcc/arm-none-eabi/4.6.2/../../../../arm-none-eabi/lib/thumb/v7m\libc.a(lib_a-strrchr.o)
 .debug_line    0x00006a39      0x359 c:/users/montoya/documents/classes/cmpe146/lab/cmpe146package_lpc1758/yagarto/bin/../lib/gcc/arm-none-eabi/4.6.2/../../../../arm-none-eabi/lib/thumb/v7m\libc.a(lib_a-strstr.o)
 .debug_line    0x00006d92      0x1fc c:/users/montoya/documents/classes/cmpe146/lab/cmpe146package_lpc1758/yagarto/bin/../lib/gcc/arm-none-eabi/4.6.2/../../../../arm-none-eabi/lib/thumb/v7m\libc.a(lib_a-strtol.o)
 .debug_line    0x00006f8e      0x607 c:/users/montoya/documents/classes/cmpe146/lab/cmpe146package_lpc1758/yagarto/bin/../lib/gcc/arm-none-eabi/4.6.2/../../../../arm-none-eabi/lib/thumb/v7m\libc.a(lib_a-svfiprintf.o)
 .debug_line    0x00007595      0x13b c:/users/montoya/documents/classes/cmpe146/lab/cmpe146package_lpc1758/yagarto/bin/../lib/gcc/arm-none-eabi/4.6.2/../../../../arm-none-eabi/lib/thumb/v7m\libc.a(lib_a-syswrite.o)
 .debug_line    0x000076d0       0xb8 c:/users/montoya/documents/classes/cmpe146/lab/cmpe146package_lpc1758/yagarto/bin/../lib/gcc/arm-none-eabi/4.6.2/../../../../arm-none-eabi/lib/thumb/v7m\libc.a(lib_a-tolower.o)
 .debug_line    0x00007788       0xb8 c:/users/montoya/documents/classes/cmpe146/lab/cmpe146package_lpc1758/yagarto/bin/../lib/gcc/arm-none-eabi/4.6.2/../../../../arm-none-eabi/lib/thumb/v7m\libc.a(lib_a-toupper.o)
 .debug_line    0x00007840      0x63d c:/users/montoya/documents/classes/cmpe146/lab/cmpe146package_lpc1758/yagarto/bin/../lib/gcc/arm-none-eabi/4.6.2/../../../../arm-none-eabi/lib/thumb/v7m\libc.a(lib_a-vfiprintf.o)
 .debug_line    0x00007e7d      0x194 c:/users/montoya/documents/classes/cmpe146/lab/cmpe146package_lpc1758/yagarto/bin/../lib/gcc/arm-none-eabi/4.6.2/../../../../arm-none-eabi/lib/thumb/v7m\libc.a(lib_a-viprintf.o)
 .debug_line    0x00008011      0x19c c:/users/montoya/documents/classes/cmpe146/lab/cmpe146package_lpc1758/yagarto/bin/../lib/gcc/arm-none-eabi/4.6.2/../../../../arm-none-eabi/lib/thumb/v7m\libc.a(lib_a-vsiprintf.o)
 .debug_line    0x000081ad      0x1a4 c:/users/montoya/documents/classes/cmpe146/lab/cmpe146package_lpc1758/yagarto/bin/../lib/gcc/arm-none-eabi/4.6.2/../../../../arm-none-eabi/lib/thumb/v7m\libc.a(lib_a-vsiscanf.o)
 .debug_line    0x00008351      0x1a9 c:/users/montoya/documents/classes/cmpe146/lab/cmpe146package_lpc1758/yagarto/bin/../lib/gcc/arm-none-eabi/4.6.2/../../../../arm-none-eabi/lib/thumb/v7m\libc.a(lib_a-vsniprintf.o)
 .debug_line    0x000084fa      0x1a8 c:/users/montoya/documents/classes/cmpe146/lab/cmpe146package_lpc1758/yagarto/bin/../lib/gcc/arm-none-eabi/4.6.2/../../../../arm-none-eabi/lib/thumb/v7m\libc.a(lib_a-vsnprintf.o)
 .debug_line    0x000086a2      0x1c8 c:/users/montoya/documents/classes/cmpe146/lab/cmpe146package_lpc1758/yagarto/bin/../lib/gcc/arm-none-eabi/4.6.2/../../../../arm-none-eabi/lib/thumb/v7m\libc.a(lib_a-wbuf.o)
 .debug_line    0x0000886a      0x17a c:/users/montoya/documents/classes/cmpe146/lab/cmpe146package_lpc1758/yagarto/bin/../lib/gcc/arm-none-eabi/4.6.2/../../../../arm-none-eabi/lib/thumb/v7m\libc.a(lib_a-writer.o)
 .debug_line    0x000089e4      0x1ac c:/users/montoya/documents/classes/cmpe146/lab/cmpe146package_lpc1758/yagarto/bin/../lib/gcc/arm-none-eabi/4.6.2/../../../../arm-none-eabi/lib/thumb/v7m\libc.a(lib_a-wsetup.o)
 .debug_line    0x00008b90       0x63 c:/users/montoya/documents/classes/cmpe146/lab/cmpe146package_lpc1758/yagarto/bin/../lib/gcc/arm-none-eabi/4.6.2/../../../../arm-none-eabi/lib/thumb/v7m\libc.a(lib_a-ctype_.o)
 .debug_line    0x00008bf3      0x20f c:/users/montoya/documents/classes/cmpe146/lab/cmpe146package_lpc1758/yagarto/bin/../lib/gcc/arm-none-eabi/4.6.2/../../../../arm-none-eabi/lib/thumb/v7m\libc.a(lib_a-fflush.o)
 .debug_line    0x00008e02      0x231 c:/users/montoya/documents/classes/cmpe146/lab/cmpe146package_lpc1758/yagarto/bin/../lib/gcc/arm-none-eabi/4.6.2/../../../../arm-none-eabi/lib/thumb/v7m\libc.a(lib_a-findfp.o)
 .debug_line    0x00009033      0x1b5 c:/users/montoya/documents/classes/cmpe146/lab/cmpe146package_lpc1758/yagarto/bin/../lib/gcc/arm-none-eabi/4.6.2/../../../../arm-none-eabi/lib/thumb/v7m\libc.a(lib_a-fputwc.o)
 .debug_line    0x000091e8      0x1ef c:/users/montoya/documents/classes/cmpe146/lab/cmpe146package_lpc1758/yagarto/bin/../lib/gcc/arm-none-eabi/4.6.2/../../../../arm-none-eabi/lib/thumb/v7m\libc.a(lib_a-freer.o)
 .debug_line    0x000093d7      0x29b c:/users/montoya/documents/classes/cmpe146/lab/cmpe146package_lpc1758/yagarto/bin/../lib/gcc/arm-none-eabi/4.6.2/../../../../arm-none-eabi/lib/thumb/v7m\libc.a(lib_a-fvwrite.o)
 .debug_line    0x00009672      0x196 c:/users/montoya/documents/classes/cmpe146/lab/cmpe146package_lpc1758/yagarto/bin/../lib/gcc/arm-none-eabi/4.6.2/../../../../arm-none-eabi/lib/thumb/v7m\libc.a(lib_a-fwalk.o)
 .debug_line    0x00009808      0x1aa c:/users/montoya/documents/classes/cmpe146/lab/cmpe146package_lpc1758/yagarto/bin/../lib/gcc/arm-none-eabi/4.6.2/../../../../arm-none-eabi/lib/thumb/v7m\libc.a(lib_a-locale.o)
 .debug_line    0x000099b2      0x1ed c:/users/montoya/documents/classes/cmpe146/lab/cmpe146package_lpc1758/yagarto/bin/../lib/gcc/arm-none-eabi/4.6.2/../../../../arm-none-eabi/lib/thumb/v7m\libc.a(lib_a-makebuf.o)
 .debug_line    0x00009b9f      0x180 c:/users/montoya/documents/classes/cmpe146/lab/cmpe146package_lpc1758/yagarto/bin/../lib/gcc/arm-none-eabi/4.6.2/../../../../arm-none-eabi/lib/thumb/v7m\libc.a(lib_a-mallinfor.o)
 .debug_line    0x00009d1f      0x13a c:/users/montoya/documents/classes/cmpe146/lab/cmpe146package_lpc1758/yagarto/bin/../lib/gcc/arm-none-eabi/4.6.2/../../../../arm-none-eabi/lib/thumb/v7m\libc.a(lib_a-malloptr.o)
 .debug_line    0x00009e59      0x186 c:/users/montoya/documents/classes/cmpe146/lab/cmpe146package_lpc1758/yagarto/bin/../lib/gcc/arm-none-eabi/4.6.2/../../../../arm-none-eabi/lib/thumb/v7m\libc.a(lib_a-mallstatsr.o)
 .debug_line    0x00009fdf      0x151 c:/users/montoya/documents/classes/cmpe146/lab/cmpe146package_lpc1758/yagarto/bin/../lib/gcc/arm-none-eabi/4.6.2/../../../../arm-none-eabi/lib/thumb/v7m\libc.a(lib_a-memchr.o)
 .debug_line    0x0000a130      0x16e c:/users/montoya/documents/classes/cmpe146/lab/cmpe146package_lpc1758/yagarto/bin/../lib/gcc/arm-none-eabi/4.6.2/../../../../arm-none-eabi/lib/thumb/v7m\libc.a(lib_a-reent.o)
 .debug_line    0x0000a29e      0x19f c:/users/montoya/documents/classes/cmpe146/lab/cmpe146package_lpc1758/yagarto/bin/../lib/gcc/arm-none-eabi/4.6.2/../../../../arm-none-eabi/lib/thumb/v7m\libc.a(lib_a-stdio.o)
 .debug_line    0x0000a43d      0x53f c:/users/montoya/documents/classes/cmpe146/lab/cmpe146package_lpc1758/yagarto/bin/../lib/gcc/arm-none-eabi/4.6.2/../../../../arm-none-eabi/lib/thumb/v7m\libc.a(lib_a-svfiscanf.o)
 .debug_line    0x0000a97c      0x921 c:/users/montoya/documents/classes/cmpe146/lab/cmpe146package_lpc1758/yagarto/bin/../lib/gcc/arm-none-eabi/4.6.2/../../../../arm-none-eabi/lib/thumb/v7m\libc.a(lib_a-svfprintf.o)
 .debug_line    0x0000b29d      0x1f4 c:/users/montoya/documents/classes/cmpe146/lab/cmpe146package_lpc1758/yagarto/bin/../lib/gcc/arm-none-eabi/4.6.2/../../../../arm-none-eabi/lib/thumb/v7m\libc.a(lib_a-ungetc.o)
 .debug_line    0x0000b491      0x19c c:/users/montoya/documents/classes/cmpe146/lab/cmpe146package_lpc1758/yagarto/bin/../lib/gcc/arm-none-eabi/4.6.2/../../../../arm-none-eabi/lib/thumb/v7m\libc.a(lib_a-wcrtomb.o)
 .debug_line    0x0000b62d      0x19e c:/users/montoya/documents/classes/cmpe146/lab/cmpe146package_lpc1758/yagarto/bin/../lib/gcc/arm-none-eabi/4.6.2/../../../../arm-none-eabi/lib/thumb/v7m\libc.a(lib_a-wctomb_r.o)
 .debug_line    0x0000b7cb      0x178 c:/users/montoya/documents/classes/cmpe146/lab/cmpe146package_lpc1758/yagarto/bin/../lib/gcc/arm-none-eabi/4.6.2/../../../../arm-none-eabi/lib/thumb/v7m\libc.a(lib_a-closer.o)
 .debug_line    0x0000b943      0x770 c:/users/montoya/documents/classes/cmpe146/lab/cmpe146package_lpc1758/yagarto/bin/../lib/gcc/arm-none-eabi/4.6.2/../../../../arm-none-eabi/lib/thumb/v7m\libc.a(lib_a-dtoa.o)
 .debug_line    0x0000c0b3      0x1b6 c:/users/montoya/documents/classes/cmpe146/lab/cmpe146package_lpc1758/yagarto/bin/../lib/gcc/arm-none-eabi/4.6.2/../../../../arm-none-eabi/lib/thumb/v7m\libc.a(lib_a-fclose.o)
 .debug_line    0x0000c269      0x18e c:/users/montoya/documents/classes/cmpe146/lab/cmpe146package_lpc1758/yagarto/bin/../lib/gcc/arm-none-eabi/4.6.2/../../../../arm-none-eabi/lib/thumb/v7m\libc.a(lib_a-fstatr.o)
 .debug_line    0x0000c3f7      0x179 c:/users/montoya/documents/classes/cmpe146/lab/cmpe146package_lpc1758/yagarto/bin/../lib/gcc/arm-none-eabi/4.6.2/../../../../arm-none-eabi/lib/thumb/v7m\libc.a(lib_a-isattyr.o)
 .debug_line    0x0000c570      0x11e c:/users/montoya/documents/classes/cmpe146/lab/cmpe146package_lpc1758/yagarto/bin/../lib/gcc/arm-none-eabi/4.6.2/../../../../arm-none-eabi/lib/thumb/v7m\libc.a(lib_a-iswspace.o)
 .debug_line    0x0000c68e      0x17a c:/users/montoya/documents/classes/cmpe146/lab/cmpe146package_lpc1758/yagarto/bin/../lib/gcc/arm-none-eabi/4.6.2/../../../../arm-none-eabi/lib/thumb/v7m\libc.a(lib_a-lseekr.o)
 .debug_line    0x0000c808      0x19c c:/users/montoya/documents/classes/cmpe146/lab/cmpe146package_lpc1758/yagarto/bin/../lib/gcc/arm-none-eabi/4.6.2/../../../../arm-none-eabi/lib/thumb/v7m\libc.a(lib_a-mbrtowc.o)
 .debug_line    0x0000c9a4      0x19e c:/users/montoya/documents/classes/cmpe146/lab/cmpe146package_lpc1758/yagarto/bin/../lib/gcc/arm-none-eabi/4.6.2/../../../../arm-none-eabi/lib/thumb/v7m\libc.a(lib_a-mbtowc_r.o)
 .debug_line    0x0000cb42      0x61f c:/users/montoya/documents/classes/cmpe146/lab/cmpe146package_lpc1758/yagarto/bin/../lib/gcc/arm-none-eabi/4.6.2/../../../../arm-none-eabi/lib/thumb/v7m\libc.a(lib_a-mprec.o)
 .debug_line    0x0000d161      0x179 c:/users/montoya/documents/classes/cmpe146/lab/cmpe146package_lpc1758/yagarto/bin/../lib/gcc/arm-none-eabi/4.6.2/../../../../arm-none-eabi/lib/thumb/v7m\libc.a(lib_a-readr.o)
 .debug_line    0x0000d2da      0x140 c:/users/montoya/documents/classes/cmpe146/lab/cmpe146package_lpc1758/yagarto/bin/../lib/gcc/arm-none-eabi/4.6.2/../../../../arm-none-eabi/lib/thumb/v7m\libc.a(lib_a-s_fpclassify.o)
 .debug_line    0x0000d41a       0xfc c:/users/montoya/documents/classes/cmpe146/lab/cmpe146package_lpc1758/yagarto/bin/../lib/gcc/arm-none-eabi/4.6.2/../../../../arm-none-eabi/lib/thumb/v7m\libc.a(lib_a-sccl.o)
 .debug_line    0x0000d516      0x1fa c:/users/montoya/documents/classes/cmpe146/lab/cmpe146package_lpc1758/yagarto/bin/../lib/gcc/arm-none-eabi/4.6.2/../../../../arm-none-eabi/lib/thumb/v7m\libc.a(lib_a-strtoul.o)
 .debug_line    0x0000d710      0x154 c:/users/montoya/documents/classes/cmpe146/lab/cmpe146package_lpc1758/yagarto/bin/../lib/gcc/arm-none-eabi/4.6.2/../../../../arm-none-eabi/lib/thumb/v7m\libc.a(lib_a-callocr.o)
 .debug_line    0x0000d864       0x93 c:/users/montoya/documents/classes/cmpe146/lab/cmpe146package_lpc1758/yagarto/bin/../lib/gcc/arm-none-eabi/4.6.2/thumb/v7m\libgcc.a(_udivsi3.o)
 .debug_line    0x0000d8f7       0x70 c:/users/montoya/documents/classes/cmpe146/lab/cmpe146package_lpc1758/yagarto/bin/../lib/gcc/arm-none-eabi/4.6.2/thumb/v7m\libgcc.a(_dvmd_tls.o)

.debug_str      0x00000000     0x54a6
 .debug_str     0x00000000      0x26d c:/users/montoya/documents/classes/cmpe146/lab/cmpe146package_lpc1758/yagarto/bin/../lib/gcc/arm-none-eabi/4.6.2/../../../../arm-none-eabi/lib/thumb/v7m\libstdc++.a(guard.o)
                                0x317 (size before relaxing)
 .debug_str     0x0000026d       0x58 c:/users/montoya/documents/classes/cmpe146/lab/cmpe146package_lpc1758/yagarto/bin/../lib/gcc/arm-none-eabi/4.6.2/../../../../arm-none-eabi/lib/thumb/v7m\libstdc++.a(guard_error.o)
                                0x116 (size before relaxing)
 .debug_str     0x000002c5       0x4e c:/users/montoya/documents/classes/cmpe146/lab/cmpe146package_lpc1758/yagarto/bin/../lib/gcc/arm-none-eabi/4.6.2/../../../../arm-none-eabi/lib/thumb/v7m\libstdc++.a(pure.o)
                                0x147 (size before relaxing)
 .debug_str     0x00000313      0x491 c:/users/montoya/documents/classes/cmpe146/lab/cmpe146package_lpc1758/yagarto/bin/../lib/gcc/arm-none-eabi/4.6.2/../../../../arm-none-eabi/lib/thumb/v7m\libstdc++.a(si_class_type_info.o)
                                0x579 (size before relaxing)
 .debug_str     0x000007a4      0x1ec c:/users/montoya/documents/classes/cmpe146/lab/cmpe146package_lpc1758/yagarto/bin/../lib/gcc/arm-none-eabi/4.6.2/../../../../arm-none-eabi/lib/thumb/v7m\libstdc++.a(tinfo.o)
                                0x33b (size before relaxing)
 .debug_str     0x00000990      0x27b c:/users/montoya/documents/classes/cmpe146/lab/cmpe146package_lpc1758/yagarto/bin/../lib/gcc/arm-none-eabi/4.6.2/../../../../arm-none-eabi/lib/thumb/v7m\libstdc++.a(class_type_info.o)
                                0x5eb (size before relaxing)
 .debug_str     0x00000c0b      0x570 c:/users/montoya/documents/classes/cmpe146/lab/cmpe146package_lpc1758/yagarto/bin/../lib/gcc/arm-none-eabi/4.6.2/../../../../arm-none-eabi/lib/thumb/v7m\libstdc++.a(eh_alloc.o)
                                0x887 (size before relaxing)
 .debug_str     0x0000117b      0x16b c:/users/montoya/documents/classes/cmpe146/lab/cmpe146package_lpc1758/yagarto/bin/../lib/gcc/arm-none-eabi/4.6.2/../../../../arm-none-eabi/lib/thumb/v7m\libstdc++.a(eh_exception.o)
                                0x256 (size before relaxing)
 .debug_str     0x000012e6       0x6a c:/users/montoya/documents/classes/cmpe146/lab/cmpe146package_lpc1758/yagarto/bin/../lib/gcc/arm-none-eabi/4.6.2/../../../../arm-none-eabi/lib/thumb/v7m\libstdc++.a(eh_globals.o)
                                0x4d1 (size before relaxing)
 .debug_str     0x00001350      0x167 c:/users/montoya/documents/classes/cmpe146/lab/cmpe146package_lpc1758/yagarto/bin/../lib/gcc/arm-none-eabi/4.6.2/../../../../arm-none-eabi/lib/thumb/v7m\libstdc++.a(eh_terminate.o)
                                0x357 (size before relaxing)
 .debug_str     0x000014b7       0x46 c:/users/montoya/documents/classes/cmpe146/lab/cmpe146package_lpc1758/yagarto/bin/../lib/gcc/arm-none-eabi/4.6.2/../../../../arm-none-eabi/lib/thumb/v7m\libstdc++.a(eh_term_handler.o)
                                0x162 (size before relaxing)
 .debug_str     0x000014fd      0x144 c:/users/montoya/documents/classes/cmpe146/lab/cmpe146package_lpc1758/yagarto/bin/../lib/gcc/arm-none-eabi/4.6.2/../../../../arm-none-eabi/lib/thumb/v7m\libstdc++.a(eh_throw.o)
                                0x551 (size before relaxing)
 .debug_str     0x00001641       0x46 c:/users/montoya/documents/classes/cmpe146/lab/cmpe146package_lpc1758/yagarto/bin/../lib/gcc/arm-none-eabi/4.6.2/../../../../arm-none-eabi/lib/thumb/v7m\libstdc++.a(eh_unex_handler.o)
                                0x165 (size before relaxing)
 .debug_str     0x00001687      0x1fb c:/users/montoya/documents/classes/cmpe146/lab/cmpe146package_lpc1758/yagarto/bin/../lib/gcc/arm-none-eabi/4.6.2/../../../../arm-none-eabi/lib/thumb/v7m\libstdc++.a(eh_arm.o)
                                0x641 (size before relaxing)
 .debug_str     0x00001882       0x65 c:/users/montoya/documents/classes/cmpe146/lab/cmpe146package_lpc1758/yagarto/bin/../lib/gcc/arm-none-eabi/4.6.2/../../../../arm-none-eabi/lib/thumb/v7m\libstdc++.a(eh_aux_runtime.o)
                                0x231 (size before relaxing)
 .debug_str     0x000018e7      0x14c c:/users/montoya/documents/classes/cmpe146/lab/cmpe146package_lpc1758/yagarto/bin/../lib/gcc/arm-none-eabi/4.6.2/../../../../arm-none-eabi/lib/thumb/v7m\libstdc++.a(eh_call.o)
                                0x6ed (size before relaxing)
 .debug_str     0x00001a33       0xd7 c:/users/montoya/documents/classes/cmpe146/lab/cmpe146package_lpc1758/yagarto/bin/../lib/gcc/arm-none-eabi/4.6.2/../../../../arm-none-eabi/lib/thumb/v7m\libstdc++.a(eh_catch.o)
                                0x58b (size before relaxing)
 .debug_str     0x00001b0a      0x4da c:/users/montoya/documents/classes/cmpe146/lab/cmpe146package_lpc1758/yagarto/bin/../lib/gcc/arm-none-eabi/4.6.2/../../../../arm-none-eabi/lib/thumb/v7m\libstdc++.a(eh_personality.o)
                                0xa77 (size before relaxing)
 .debug_str     0x00001fe4       0x65 c:/users/montoya/documents/classes/cmpe146/lab/cmpe146package_lpc1758/yagarto/bin/../lib/gcc/arm-none-eabi/4.6.2/../../../../arm-none-eabi/lib/thumb/v7m\libstdc++.a(fundamental_type_info.o)
                                0x1b1 (size before relaxing)
 .debug_str     0x00002049      0x145 c:/users/montoya/documents/classes/cmpe146/lab/cmpe146package_lpc1758/yagarto/bin/../lib/gcc/arm-none-eabi/4.6.2/../../../../arm-none-eabi/lib/thumb/v7m\libstdc++.a(pointer_type_info.o)
                                0x2bc (size before relaxing)
 .debug_str     0x0000218e       0x60 c:/users/montoya/documents/classes/cmpe146/lab/cmpe146package_lpc1758/yagarto/bin/../lib/gcc/arm-none-eabi/4.6.2/../../../../arm-none-eabi/lib/thumb/v7m\libstdc++.a(bad_cast.o)
                                 0xec (size before relaxing)
 .debug_str     0x000021ee       0x67 c:/users/montoya/documents/classes/cmpe146/lab/cmpe146package_lpc1758/yagarto/bin/../lib/gcc/arm-none-eabi/4.6.2/../../../../arm-none-eabi/lib/thumb/v7m\libstdc++.a(bad_typeid.o)
                                 0xf5 (size before relaxing)
 .debug_str     0x00002255      0x138 c:/users/montoya/documents/classes/cmpe146/lab/cmpe146package_lpc1758/yagarto/bin/../lib/gcc/arm-none-eabi/4.6.2/../../../../arm-none-eabi/lib/thumb/v7m\libstdc++.a(pbase_type_info.o)
                                0x32e (size before relaxing)
 .debug_str     0x0000238d      0x4ff c:/users/montoya/documents/classes/cmpe146/lab/cmpe146package_lpc1758/yagarto/bin/../lib/gcc/arm-none-eabi/4.6.2/thumb/v7m\libgcc.a(unwind-arm.o)
                                0x930 (size before relaxing)
 .debug_str     0x0000288c       0xfc c:/users/montoya/documents/classes/cmpe146/lab/cmpe146package_lpc1758/yagarto/bin/../lib/gcc/arm-none-eabi/4.6.2/thumb/v7m\libgcc.a(pr-support.o)
                                0x467 (size before relaxing)
 .debug_str     0x00002988       0x8f c:/users/montoya/documents/classes/cmpe146/lab/cmpe146package_lpc1758/yagarto/bin/../lib/gcc/arm-none-eabi/4.6.2/../../../../arm-none-eabi/lib/thumb/v7m\libc.a(lib_a-abort.o)
                                0x12a (size before relaxing)
 .debug_str     0x00002a17      0x3c5 c:/users/montoya/documents/classes/cmpe146/lab/cmpe146package_lpc1758/yagarto/bin/../lib/gcc/arm-none-eabi/4.6.2/../../../../arm-none-eabi/lib/thumb/v7m\libc.a(lib_a-assert.o)
                                0x511 (size before relaxing)
 .debug_str     0x00002ddc       0x45 c:/users/montoya/documents/classes/cmpe146/lab/cmpe146package_lpc1758/yagarto/bin/../lib/gcc/arm-none-eabi/4.6.2/../../../../arm-none-eabi/lib/thumb/v7m\libc.a(lib_a-atoi.o)
                                0x4df (size before relaxing)
 .debug_str     0x00002e21       0xba c:/users/montoya/documents/classes/cmpe146/lab/cmpe146package_lpc1758/yagarto/bin/../lib/gcc/arm-none-eabi/4.6.2/../../../../arm-none-eabi/lib/thumb/v7m\libc.a(lib_a-fiprintf.o)
                                0x520 (size before relaxing)
 .debug_str     0x00002edb       0xad c:/users/montoya/documents/classes/cmpe146/lab/cmpe146package_lpc1758/yagarto/bin/../lib/gcc/arm-none-eabi/4.6.2/../../../../arm-none-eabi/lib/thumb/v7m\libc.a(lib_a-impure.o)
                                0x4fd (size before relaxing)
 .debug_str     0x00002f88       0xea c:/users/montoya/documents/classes/cmpe146/lab/cmpe146package_lpc1758/yagarto/bin/../lib/gcc/arm-none-eabi/4.6.2/../../../../arm-none-eabi/lib/thumb/v7m\libc.a(lib_a-init.o)
                                0x18c (size before relaxing)
 .debug_str     0x00003072       0xa5 c:/users/montoya/documents/classes/cmpe146/lab/cmpe146package_lpc1758/yagarto/bin/../lib/gcc/arm-none-eabi/4.6.2/../../../../arm-none-eabi/lib/thumb/v7m\libc.a(lib_a-isalnum.o)
                                 0xb6 (size before relaxing)
 .debug_str     0x00003117       0x47 c:/users/montoya/documents/classes/cmpe146/lab/cmpe146package_lpc1758/yagarto/bin/../lib/gcc/arm-none-eabi/4.6.2/../../../../arm-none-eabi/lib/thumb/v7m\libc.a(lib_a-isalpha.o)
                                 0xb6 (size before relaxing)
 .debug_str     0x0000315e       0x4b c:/users/montoya/documents/classes/cmpe146/lab/cmpe146package_lpc1758/yagarto/bin/../lib/gcc/arm-none-eabi/4.6.2/../../../../arm-none-eabi/lib/thumb/v7m\libc.a(lib_a-malloc.o)
                                0x4ff (size before relaxing)
 .debug_str     0x000031a9      0x20c c:/users/montoya/documents/classes/cmpe146/lab/cmpe146package_lpc1758/yagarto/bin/../lib/gcc/arm-none-eabi/4.6.2/../../../../arm-none-eabi/lib/thumb/v7m\libc.a(lib_a-mallocr.o)
                                0x6d4 (size before relaxing)
 .debug_str     0x000033b5       0x97 c:/users/montoya/documents/classes/cmpe146/lab/cmpe146package_lpc1758/yagarto/bin/../lib/gcc/arm-none-eabi/4.6.2/../../../../arm-none-eabi/lib/thumb/v7m\libc.a(lib_a-memcmp.o)
                                0x133 (size before relaxing)
 .debug_str     0x0000344c       0x6d c:/users/montoya/documents/classes/cmpe146/lab/cmpe146package_lpc1758/yagarto/bin/../lib/gcc/arm-none-eabi/4.6.2/../../../../arm-none-eabi/lib/thumb/v7m\libc.a(lib_a-memcpy.o)
                                0x15a (size before relaxing)
 .debug_str     0x000034b9       0x5a c:/users/montoya/documents/classes/cmpe146/lab/cmpe146package_lpc1758/yagarto/bin/../lib/gcc/arm-none-eabi/4.6.2/../../../../arm-none-eabi/lib/thumb/v7m\libc.a(lib_a-memmove.o)
                                0x166 (size before relaxing)
 .debug_str     0x00003513       0x53 c:/users/montoya/documents/classes/cmpe146/lab/cmpe146package_lpc1758/yagarto/bin/../lib/gcc/arm-none-eabi/4.6.2/../../../../arm-none-eabi/lib/thumb/v7m\libc.a(lib_a-memset.o)
                                0x147 (size before relaxing)
 .debug_str     0x00003566       0x71 c:/users/montoya/documents/classes/cmpe146/lab/cmpe146package_lpc1758/yagarto/bin/../lib/gcc/arm-none-eabi/4.6.2/../../../../arm-none-eabi/lib/thumb/v7m\libc.a(lib_a-mlock.o)
                                0x506 (size before relaxing)
 .debug_str     0x000035d7       0x65 c:/users/montoya/documents/classes/cmpe146/lab/cmpe146package_lpc1758/yagarto/bin/../lib/gcc/arm-none-eabi/4.6.2/../../../../arm-none-eabi/lib/thumb/v7m\libc.a(lib_a-mstats.o)
                                0x55c (size before relaxing)
 .debug_str     0x0000363c       0x85 c:/users/montoya/documents/classes/cmpe146/lab/cmpe146package_lpc1758/yagarto/bin/../lib/gcc/arm-none-eabi/4.6.2/../../../../arm-none-eabi/lib/thumb/v7m\libc.a(lib_a-puts.o)
                                0x52c (size before relaxing)
 .debug_str     0x000036c1       0x48 c:/users/montoya/documents/classes/cmpe146/lab/cmpe146package_lpc1758/yagarto/bin/../lib/gcc/arm-none-eabi/4.6.2/../../../../arm-none-eabi/lib/thumb/v7m\libc.a(lib_a-realloc.o)
                                0x4f7 (size before relaxing)
 .debug_str     0x00003709       0x5c c:/users/montoya/documents/classes/cmpe146/lab/cmpe146package_lpc1758/yagarto/bin/../lib/gcc/arm-none-eabi/4.6.2/../../../../arm-none-eabi/lib/thumb/v7m\libc.a(lib_a-reallocr.o)
                                0x5a6 (size before relaxing)
 .debug_str     0x00003765       0x50 c:/users/montoya/documents/classes/cmpe146/lab/cmpe146package_lpc1758/yagarto/bin/../lib/gcc/arm-none-eabi/4.6.2/../../../../arm-none-eabi/lib/thumb/v7m\libc.a(lib_a-sbrkr.o)
                                0x4f4 (size before relaxing)
 .debug_str     0x000037b5       0x47 c:/users/montoya/documents/classes/cmpe146/lab/cmpe146package_lpc1758/yagarto/bin/../lib/gcc/arm-none-eabi/4.6.2/../../../../arm-none-eabi/lib/thumb/v7m\libc.a(lib_a-setvbuf.o)
                                0x4fd (size before relaxing)
 .debug_str     0x000037fc       0xea c:/users/montoya/documents/classes/cmpe146/lab/cmpe146package_lpc1758/yagarto/bin/../lib/gcc/arm-none-eabi/4.6.2/../../../../arm-none-eabi/lib/thumb/v7m\libc.a(lib_a-signal.o)
                                0x550 (size before relaxing)
 .debug_str     0x000038e6       0x5f c:/users/montoya/documents/classes/cmpe146/lab/cmpe146package_lpc1758/yagarto/bin/../lib/gcc/arm-none-eabi/4.6.2/../../../../arm-none-eabi/lib/thumb/v7m\libc.a(lib_a-signalr.o)
                                0x4f9 (size before relaxing)
 .debug_str     0x00003945       0x4c c:/users/montoya/documents/classes/cmpe146/lab/cmpe146package_lpc1758/yagarto/bin/../lib/gcc/arm-none-eabi/4.6.2/../../../../arm-none-eabi/lib/thumb/v7m\libc.a(lib_a-siprintf.o)
                                0x520 (size before relaxing)
 .debug_str     0x00003991       0x58 c:/users/montoya/documents/classes/cmpe146/lab/cmpe146package_lpc1758/yagarto/bin/../lib/gcc/arm-none-eabi/4.6.2/../../../../arm-none-eabi/lib/thumb/v7m\libc.a(lib_a-strcasecmp.o)
                                0x14c (size before relaxing)
 .debug_str     0x000039e9       0x51 c:/users/montoya/documents/classes/cmpe146/lab/cmpe146package_lpc1758/yagarto/bin/../lib/gcc/arm-none-eabi/4.6.2/../../../../arm-none-eabi/lib/thumb/v7m\libc.a(lib_a-strcat.o)
                                0x137 (size before relaxing)
 .debug_str     0x00003a3a       0x46 c:/users/montoya/documents/classes/cmpe146/lab/cmpe146package_lpc1758/yagarto/bin/../lib/gcc/arm-none-eabi/4.6.2/../../../../arm-none-eabi/lib/thumb/v7m\libc.a(lib_a-strchr.o)
                                0x13e (size before relaxing)
 .debug_str     0x00003a80       0xb5 c:/users/montoya/documents/classes/cmpe146/lab/cmpe146package_lpc1758/yagarto/bin/../lib/gcc/arm-none-eabi/4.6.2/../../../../arm-none-eabi/lib/thumb/v7m\libc.a(lib_a-strcmp.o)
                                0x14a (size before relaxing)
 .debug_str     0x00003b35       0x4e c:/users/montoya/documents/classes/cmpe146/lab/cmpe146package_lpc1758/yagarto/bin/../lib/gcc/arm-none-eabi/4.6.2/../../../../arm-none-eabi/lib/thumb/v7m\libc.a(lib_a-strcpy.o)
                                0x139 (size before relaxing)
 .debug_str     0x00003b83       0x4e c:/users/montoya/documents/classes/cmpe146/lab/cmpe146package_lpc1758/yagarto/bin/../lib/gcc/arm-none-eabi/4.6.2/../../../../arm-none-eabi/lib/thumb/v7m\libc.a(lib_a-strlen.o)
                                0x140 (size before relaxing)
 .debug_str     0x00003bd1       0x50 c:/users/montoya/documents/classes/cmpe146/lab/cmpe146package_lpc1758/yagarto/bin/../lib/gcc/arm-none-eabi/4.6.2/../../../../arm-none-eabi/lib/thumb/v7m\libc.a(lib_a-strncasecmp.o)
                                0x155 (size before relaxing)
 .debug_str     0x00003c21       0x48 c:/users/montoya/documents/classes/cmpe146/lab/cmpe146package_lpc1758/yagarto/bin/../lib/gcc/arm-none-eabi/4.6.2/../../../../arm-none-eabi/lib/thumb/v7m\libc.a(lib_a-strncmp.o)
                                0x135 (size before relaxing)
 .debug_str     0x00003c69       0x48 c:/users/montoya/documents/classes/cmpe146/lab/cmpe146package_lpc1758/yagarto/bin/../lib/gcc/arm-none-eabi/4.6.2/../../../../arm-none-eabi/lib/thumb/v7m\libc.a(lib_a-strncpy.o)
                                0x15d (size before relaxing)
 .debug_str     0x00003cb1       0x48 c:/users/montoya/documents/classes/cmpe146/lab/cmpe146package_lpc1758/yagarto/bin/../lib/gcc/arm-none-eabi/4.6.2/../../../../arm-none-eabi/lib/thumb/v7m\libc.a(lib_a-strpbrk.o)
                                0x12e (size before relaxing)
 .debug_str     0x00003cf9       0x48 c:/users/montoya/documents/classes/cmpe146/lab/cmpe146package_lpc1758/yagarto/bin/../lib/gcc/arm-none-eabi/4.6.2/../../../../arm-none-eabi/lib/thumb/v7m\libc.a(lib_a-strrchr.o)
                                0x133 (size before relaxing)
 .debug_str     0x00003d41       0xec c:/users/montoya/documents/classes/cmpe146/lab/cmpe146package_lpc1758/yagarto/bin/../lib/gcc/arm-none-eabi/4.6.2/../../../../arm-none-eabi/lib/thumb/v7m\libc.a(lib_a-strstr.o)
                                0x1ed (size before relaxing)
 .debug_str     0x00003e2d       0x63 c:/users/montoya/documents/classes/cmpe146/lab/cmpe146package_lpc1758/yagarto/bin/../lib/gcc/arm-none-eabi/4.6.2/../../../../arm-none-eabi/lib/thumb/v7m\libc.a(lib_a-strtol.o)
                                0x523 (size before relaxing)
 .debug_str     0x00003e90       0xf9 c:/users/montoya/documents/classes/cmpe146/lab/cmpe146package_lpc1758/yagarto/bin/../lib/gcc/arm-none-eabi/4.6.2/../../../../arm-none-eabi/lib/thumb/v7m\libc.a(lib_a-svfiprintf.o)
                                0x63b (size before relaxing)
 .debug_str     0x00003f89       0x96 c:/users/montoya/documents/classes/cmpe146/lab/cmpe146package_lpc1758/yagarto/bin/../lib/gcc/arm-none-eabi/4.6.2/../../../../arm-none-eabi/lib/thumb/v7m\libc.a(lib_a-syswrite.o)
                                0x4f3 (size before relaxing)
 .debug_str     0x0000401f       0x47 c:/users/montoya/documents/classes/cmpe146/lab/cmpe146package_lpc1758/yagarto/bin/../lib/gcc/arm-none-eabi/4.6.2/../../../../arm-none-eabi/lib/thumb/v7m\libc.a(lib_a-tolower.o)
                                 0xb6 (size before relaxing)
 .debug_str     0x00004066       0x47 c:/users/montoya/documents/classes/cmpe146/lab/cmpe146package_lpc1758/yagarto/bin/../lib/gcc/arm-none-eabi/4.6.2/../../../../arm-none-eabi/lib/thumb/v7m\libc.a(lib_a-toupper.o)
                                 0xb6 (size before relaxing)
 .debug_str     0x000040ad       0x32 c:/users/montoya/documents/classes/cmpe146/lab/cmpe146package_lpc1758/yagarto/bin/../lib/gcc/arm-none-eabi/4.6.2/../../../../arm-none-eabi/lib/thumb/v7m\libc.a(lib_a-vfiprintf.o)
                                0x664 (size before relaxing)
 .debug_str     0x000040df       0x55 c:/users/montoya/documents/classes/cmpe146/lab/cmpe146package_lpc1758/yagarto/bin/../lib/gcc/arm-none-eabi/4.6.2/../../../../arm-none-eabi/lib/thumb/v7m\libc.a(lib_a-viprintf.o)
                                0x51b (size before relaxing)
 .debug_str     0x00004134       0x58 c:/users/montoya/documents/classes/cmpe146/lab/cmpe146package_lpc1758/yagarto/bin/../lib/gcc/arm-none-eabi/4.6.2/../../../../arm-none-eabi/lib/thumb/v7m\libc.a(lib_a-vsiprintf.o)
                                0x531 (size before relaxing)
 .debug_str     0x0000418c       0x55 c:/users/montoya/documents/classes/cmpe146/lab/cmpe146package_lpc1758/yagarto/bin/../lib/gcc/arm-none-eabi/4.6.2/../../../../arm-none-eabi/lib/thumb/v7m\libc.a(lib_a-vsiscanf.o)
                                0x520 (size before relaxing)
 .debug_str     0x000041e1       0x5b c:/users/montoya/documents/classes/cmpe146/lab/cmpe146package_lpc1758/yagarto/bin/../lib/gcc/arm-none-eabi/4.6.2/../../../../arm-none-eabi/lib/thumb/v7m\libc.a(lib_a-vsniprintf.o)
                                0x540 (size before relaxing)
 .debug_str     0x0000423c       0x65 c:/users/montoya/documents/classes/cmpe146/lab/cmpe146package_lpc1758/yagarto/bin/../lib/gcc/arm-none-eabi/4.6.2/../../../../arm-none-eabi/lib/thumb/v7m\libc.a(lib_a-vsnprintf.o)
                                0x53c (size before relaxing)
 .debug_str     0x000042a1       0x4e c:/users/montoya/documents/classes/cmpe146/lab/cmpe146package_lpc1758/yagarto/bin/../lib/gcc/arm-none-eabi/4.6.2/../../../../arm-none-eabi/lib/thumb/v7m\libc.a(lib_a-wbuf.o)
                                0x4f3 (size before relaxing)
 .debug_str     0x000042ef       0x50 c:/users/montoya/documents/classes/cmpe146/lab/cmpe146package_lpc1758/yagarto/bin/../lib/gcc/arm-none-eabi/4.6.2/../../../../arm-none-eabi/lib/thumb/v7m\libc.a(lib_a-writer.o)
                                0x4f1 (size before relaxing)
 .debug_str     0x0000433f       0x4a c:/users/montoya/documents/classes/cmpe146/lab/cmpe146package_lpc1758/yagarto/bin/../lib/gcc/arm-none-eabi/4.6.2/../../../../arm-none-eabi/lib/thumb/v7m\libc.a(lib_a-wsetup.o)
                                0x4ef (size before relaxing)
 .debug_str     0x00004389       0x46 c:/users/montoya/documents/classes/cmpe146/lab/cmpe146package_lpc1758/yagarto/bin/../lib/gcc/arm-none-eabi/4.6.2/../../../../arm-none-eabi/lib/thumb/v7m\libc.a(lib_a-ctype_.o)
                                 0xc2 (size before relaxing)
 .debug_str     0x000043cf       0x60 c:/users/montoya/documents/classes/cmpe146/lab/cmpe146package_lpc1758/yagarto/bin/../lib/gcc/arm-none-eabi/4.6.2/../../../../arm-none-eabi/lib/thumb/v7m\libc.a(lib_a-fflush.o)
                                0x51f (size before relaxing)
 .debug_str     0x0000442f      0x106 c:/users/montoya/documents/classes/cmpe146/lab/cmpe146package_lpc1758/yagarto/bin/../lib/gcc/arm-none-eabi/4.6.2/../../../../arm-none-eabi/lib/thumb/v7m\libc.a(lib_a-findfp.o)
                                0x5d7 (size before relaxing)
 .debug_str     0x00004535       0x51 c:/users/montoya/documents/classes/cmpe146/lab/cmpe146package_lpc1758/yagarto/bin/../lib/gcc/arm-none-eabi/4.6.2/../../../../arm-none-eabi/lib/thumb/v7m\libc.a(lib_a-fputwc.o)
                                0x50c (size before relaxing)
 .debug_str     0x00004586       0x3c c:/users/montoya/documents/classes/cmpe146/lab/cmpe146package_lpc1758/yagarto/bin/../lib/gcc/arm-none-eabi/4.6.2/../../../../arm-none-eabi/lib/thumb/v7m\libc.a(lib_a-freer.o)
                                0x626 (size before relaxing)
 .debug_str     0x000045c2       0x5b c:/users/montoya/documents/classes/cmpe146/lab/cmpe146package_lpc1758/yagarto/bin/../lib/gcc/arm-none-eabi/4.6.2/../../../../arm-none-eabi/lib/thumb/v7m\libc.a(lib_a-fvwrite.o)
                                0x546 (size before relaxing)
 .debug_str     0x0000461d       0x62 c:/users/montoya/documents/classes/cmpe146/lab/cmpe146package_lpc1758/yagarto/bin/../lib/gcc/arm-none-eabi/4.6.2/../../../../arm-none-eabi/lib/thumb/v7m\libc.a(lib_a-fwalk.o)
                                0x518 (size before relaxing)
 .debug_str     0x0000467f      0x26b c:/users/montoya/documents/classes/cmpe146/lab/cmpe146package_lpc1758/yagarto/bin/../lib/gcc/arm-none-eabi/4.6.2/../../../../arm-none-eabi/lib/thumb/v7m\libc.a(lib_a-locale.o)
                                0x753 (size before relaxing)
 .debug_str     0x000048ea      0x127 c:/users/montoya/documents/classes/cmpe146/lab/cmpe146package_lpc1758/yagarto/bin/../lib/gcc/arm-none-eabi/4.6.2/../../../../arm-none-eabi/lib/thumb/v7m\libc.a(lib_a-makebuf.o)
                                0x5e9 (size before relaxing)
 .debug_str     0x00004a11       0x2c c:/users/montoya/documents/classes/cmpe146/lab/cmpe146package_lpc1758/yagarto/bin/../lib/gcc/arm-none-eabi/4.6.2/../../../../arm-none-eabi/lib/thumb/v7m\libc.a(lib_a-mallinfor.o)
                                0x5c3 (size before relaxing)
 .debug_str     0x00004a3d       0x18 c:/users/montoya/documents/classes/cmpe146/lab/cmpe146package_lpc1758/yagarto/bin/../lib/gcc/arm-none-eabi/4.6.2/../../../../arm-none-eabi/lib/thumb/v7m\libc.a(lib_a-malloptr.o)
                                0x526 (size before relaxing)
 .debug_str     0x00004a55       0x44 c:/users/montoya/documents/classes/cmpe146/lab/cmpe146package_lpc1758/yagarto/bin/../lib/gcc/arm-none-eabi/4.6.2/../../../../arm-none-eabi/lib/thumb/v7m\libc.a(lib_a-mallstatsr.o)
                                0x5af (size before relaxing)
 .debug_str     0x00004a99       0x4b c:/users/montoya/documents/classes/cmpe146/lab/cmpe146package_lpc1758/yagarto/bin/../lib/gcc/arm-none-eabi/4.6.2/../../../../arm-none-eabi/lib/thumb/v7m\libc.a(lib_a-memchr.o)
                                0x14d (size before relaxing)
 .debug_str     0x00004ae4       0x77 c:/users/montoya/documents/classes/cmpe146/lab/cmpe146package_lpc1758/yagarto/bin/../lib/gcc/arm-none-eabi/4.6.2/../../../../arm-none-eabi/lib/thumb/v7m\libc.a(lib_a-reent.o)
                                0x522 (size before relaxing)
 .debug_str     0x00004b5b       0x71 c:/users/montoya/documents/classes/cmpe146/lab/cmpe146package_lpc1758/yagarto/bin/../lib/gcc/arm-none-eabi/4.6.2/../../../../arm-none-eabi/lib/thumb/v7m\libc.a(lib_a-stdio.o)
                                0x524 (size before relaxing)
 .debug_str     0x00004bcc       0xef c:/users/montoya/documents/classes/cmpe146/lab/cmpe146package_lpc1758/yagarto/bin/../lib/gcc/arm-none-eabi/4.6.2/../../../../arm-none-eabi/lib/thumb/v7m\libc.a(lib_a-svfiscanf.o)
                                0x61d (size before relaxing)
 .debug_str     0x00004cbb       0x82 c:/users/montoya/documents/classes/cmpe146/lab/cmpe146package_lpc1758/yagarto/bin/../lib/gcc/arm-none-eabi/4.6.2/../../../../arm-none-eabi/lib/thumb/v7m\libc.a(lib_a-svfprintf.o)
                                0x6c8 (size before relaxing)
 .debug_str     0x00004d3d       0x59 c:/users/montoya/documents/classes/cmpe146/lab/cmpe146package_lpc1758/yagarto/bin/../lib/gcc/arm-none-eabi/4.6.2/../../../../arm-none-eabi/lib/thumb/v7m\libc.a(lib_a-ungetc.o)
                                0x50a (size before relaxing)
 .debug_str     0x00004d96       0x63 c:/users/montoya/documents/classes/cmpe146/lab/cmpe146package_lpc1758/yagarto/bin/../lib/gcc/arm-none-eabi/4.6.2/../../../../arm-none-eabi/lib/thumb/v7m\libc.a(lib_a-wcrtomb.o)
                                0x51d (size before relaxing)
 .debug_str     0x00004df9       0x61 c:/users/montoya/documents/classes/cmpe146/lab/cmpe146package_lpc1758/yagarto/bin/../lib/gcc/arm-none-eabi/4.6.2/../../../../arm-none-eabi/lib/thumb/v7m\libc.a(lib_a-wctomb_r.o)
                                0x52c (size before relaxing)
 .debug_str     0x00004e5a       0x47 c:/users/montoya/documents/classes/cmpe146/lab/cmpe146package_lpc1758/yagarto/bin/../lib/gcc/arm-none-eabi/4.6.2/../../../../arm-none-eabi/lib/thumb/v7m\libc.a(lib_a-closer.o)
                                0x4e1 (size before relaxing)
 .debug_str     0x00004ea1      0x106 c:/users/montoya/documents/classes/cmpe146/lab/cmpe146package_lpc1758/yagarto/bin/../lib/gcc/arm-none-eabi/4.6.2/../../../../arm-none-eabi/lib/thumb/v7m\libc.a(lib_a-dtoa.o)
                                0x5e4 (size before relaxing)
 .debug_str     0x00004fa7       0x4f c:/users/montoya/documents/classes/cmpe146/lab/cmpe146package_lpc1758/yagarto/bin/../lib/gcc/arm-none-eabi/4.6.2/../../../../arm-none-eabi/lib/thumb/v7m\libc.a(lib_a-fclose.o)
                                0x4f9 (size before relaxing)
 .debug_str     0x00004ff6       0x54 c:/users/montoya/documents/classes/cmpe146/lab/cmpe146package_lpc1758/yagarto/bin/../lib/gcc/arm-none-eabi/4.6.2/../../../../arm-none-eabi/lib/thumb/v7m\libc.a(lib_a-fstatr.o)
                                0x5db (size before relaxing)
 .debug_str     0x0000504a       0x51 c:/users/montoya/documents/classes/cmpe146/lab/cmpe146package_lpc1758/yagarto/bin/../lib/gcc/arm-none-eabi/4.6.2/../../../../arm-none-eabi/lib/thumb/v7m\libc.a(lib_a-isattyr.o)
                                0x4eb (size before relaxing)
 .debug_str     0x0000509b       0x49 c:/users/montoya/documents/classes/cmpe146/lab/cmpe146package_lpc1758/yagarto/bin/../lib/gcc/arm-none-eabi/4.6.2/../../../../arm-none-eabi/lib/thumb/v7m\libc.a(lib_a-iswspace.o)
                                0x143 (size before relaxing)
 .debug_str     0x000050e4       0x4e c:/users/montoya/documents/classes/cmpe146/lab/cmpe146package_lpc1758/yagarto/bin/../lib/gcc/arm-none-eabi/4.6.2/../../../../arm-none-eabi/lib/thumb/v7m\libc.a(lib_a-lseekr.o)
                                0x4f6 (size before relaxing)
 .debug_str     0x00005132       0x5c c:/users/montoya/documents/classes/cmpe146/lab/cmpe146package_lpc1758/yagarto/bin/../lib/gcc/arm-none-eabi/4.6.2/../../../../arm-none-eabi/lib/thumb/v7m\libc.a(lib_a-mbrtowc.o)
                                0x51d (size before relaxing)
 .debug_str     0x0000518e       0x5a c:/users/montoya/documents/classes/cmpe146/lab/cmpe146package_lpc1758/yagarto/bin/../lib/gcc/arm-none-eabi/4.6.2/../../../../arm-none-eabi/lib/thumb/v7m\libc.a(lib_a-mbtowc_r.o)
                                0x525 (size before relaxing)
 .debug_str     0x000051e8       0xfc c:/users/montoya/documents/classes/cmpe146/lab/cmpe146package_lpc1758/yagarto/bin/../lib/gcc/arm-none-eabi/4.6.2/../../../../arm-none-eabi/lib/thumb/v7m\libc.a(lib_a-mprec.o)
                                0x5f1 (size before relaxing)
 .debug_str     0x000052e4       0x45 c:/users/montoya/documents/classes/cmpe146/lab/cmpe146package_lpc1758/yagarto/bin/../lib/gcc/arm-none-eabi/4.6.2/../../../../arm-none-eabi/lib/thumb/v7m\libc.a(lib_a-readr.o)
                                0x4ef (size before relaxing)
 .debug_str     0x00005329       0xc6 c:/users/montoya/documents/classes/cmpe146/lab/cmpe146package_lpc1758/yagarto/bin/../lib/gcc/arm-none-eabi/4.6.2/../../../../arm-none-eabi/lib/thumb/v7m\libc.a(lib_a-s_fpclassify.o)
                                0x185 (size before relaxing)
 .debug_str     0x000053ef       0x53 c:/users/montoya/documents/classes/cmpe146/lab/cmpe146package_lpc1758/yagarto/bin/../lib/gcc/arm-none-eabi/4.6.2/../../../../arm-none-eabi/lib/thumb/v7m\libc.a(lib_a-sccl.o)
                                0x138 (size before relaxing)
 .debug_str     0x00005442       0x4b c:/users/montoya/documents/classes/cmpe146/lab/cmpe146package_lpc1758/yagarto/bin/../lib/gcc/arm-none-eabi/4.6.2/../../../../arm-none-eabi/lib/thumb/v7m\libc.a(lib_a-strtoul.o)
                                0x526 (size before relaxing)
 .debug_str     0x0000548d       0x19 c:/users/montoya/documents/classes/cmpe146/lab/cmpe146package_lpc1758/yagarto/bin/../lib/gcc/arm-none-eabi/4.6.2/../../../../arm-none-eabi/lib/thumb/v7m\libc.a(lib_a-callocr.o)
                                0x525 (size before relaxing)

.debug_frame    0x00000000     0x23d0
 .debug_frame   0x00000000       0x48 c:/users/montoya/documents/classes/cmpe146/lab/cmpe146package_lpc1758/yagarto/bin/../lib/gcc/arm-none-eabi/4.6.2/../../../../arm-none-eabi/lib/thumb/v7m\libstdc++.a(guard.o)
 .debug_frame   0x00000048       0x40 c:/users/montoya/documents/classes/cmpe146/lab/cmpe146package_lpc1758/yagarto/bin/../lib/gcc/arm-none-eabi/4.6.2/../../../../arm-none-eabi/lib/thumb/v7m\libstdc++.a(guard_error.o)
 .debug_frame   0x00000088       0x28 c:/users/montoya/documents/classes/cmpe146/lab/cmpe146package_lpc1758/yagarto/bin/../lib/gcc/arm-none-eabi/4.6.2/../../../../arm-none-eabi/lib/thumb/v7m\libstdc++.a(pure.o)
 .debug_frame   0x000000b0       0xa8 c:/users/montoya/documents/classes/cmpe146/lab/cmpe146package_lpc1758/yagarto/bin/../lib/gcc/arm-none-eabi/4.6.2/../../../../arm-none-eabi/lib/thumb/v7m\libstdc++.a(si_class_type_info.o)
 .debug_frame   0x00000158       0x90 c:/users/montoya/documents/classes/cmpe146/lab/cmpe146package_lpc1758/yagarto/bin/../lib/gcc/arm-none-eabi/4.6.2/../../../../arm-none-eabi/lib/thumb/v7m\libstdc++.a(tinfo.o)
 .debug_frame   0x000001e8       0xcc c:/users/montoya/documents/classes/cmpe146/lab/cmpe146package_lpc1758/yagarto/bin/../lib/gcc/arm-none-eabi/4.6.2/../../../../arm-none-eabi/lib/thumb/v7m\libstdc++.a(class_type_info.o)
 .debug_frame   0x000002b4       0x6c c:/users/montoya/documents/classes/cmpe146/lab/cmpe146package_lpc1758/yagarto/bin/../lib/gcc/arm-none-eabi/4.6.2/../../../../arm-none-eabi/lib/thumb/v7m\libstdc++.a(eh_alloc.o)
 .debug_frame   0x00000320       0xd0 c:/users/montoya/documents/classes/cmpe146/lab/cmpe146package_lpc1758/yagarto/bin/../lib/gcc/arm-none-eabi/4.6.2/../../../../arm-none-eabi/lib/thumb/v7m\libstdc++.a(eh_exception.o)
 .debug_frame   0x000003f0       0x30 c:/users/montoya/documents/classes/cmpe146/lab/cmpe146package_lpc1758/yagarto/bin/../lib/gcc/arm-none-eabi/4.6.2/../../../../arm-none-eabi/lib/thumb/v7m\libstdc++.a(eh_globals.o)
 .debug_frame   0x00000420       0x90 c:/users/montoya/documents/classes/cmpe146/lab/cmpe146package_lpc1758/yagarto/bin/../lib/gcc/arm-none-eabi/4.6.2/../../../../arm-none-eabi/lib/thumb/v7m\libstdc++.a(eh_terminate.o)
 .debug_frame   0x000004b0       0x60 c:/users/montoya/documents/classes/cmpe146/lab/cmpe146package_lpc1758/yagarto/bin/../lib/gcc/arm-none-eabi/4.6.2/../../../../arm-none-eabi/lib/thumb/v7m\libstdc++.a(eh_throw.o)
 .debug_frame   0x00000510       0x60 c:/users/montoya/documents/classes/cmpe146/lab/cmpe146package_lpc1758/yagarto/bin/../lib/gcc/arm-none-eabi/4.6.2/../../../../arm-none-eabi/lib/thumb/v7m\libstdc++.a(eh_arm.o)
 .debug_frame   0x00000570       0x40 c:/users/montoya/documents/classes/cmpe146/lab/cmpe146package_lpc1758/yagarto/bin/../lib/gcc/arm-none-eabi/4.6.2/../../../../arm-none-eabi/lib/thumb/v7m\libstdc++.a(eh_aux_runtime.o)
 .debug_frame   0x000005b0       0x50 c:/users/montoya/documents/classes/cmpe146/lab/cmpe146package_lpc1758/yagarto/bin/../lib/gcc/arm-none-eabi/4.6.2/../../../../arm-none-eabi/lib/thumb/v7m\libstdc++.a(eh_call.o)
 .debug_frame   0x00000600       0x6c c:/users/montoya/documents/classes/cmpe146/lab/cmpe146package_lpc1758/yagarto/bin/../lib/gcc/arm-none-eabi/4.6.2/../../../../arm-none-eabi/lib/thumb/v7m\libstdc++.a(eh_catch.o)
 .debug_frame   0x0000066c       0xac c:/users/montoya/documents/classes/cmpe146/lab/cmpe146package_lpc1758/yagarto/bin/../lib/gcc/arm-none-eabi/4.6.2/../../../../arm-none-eabi/lib/thumb/v7m\libstdc++.a(eh_personality.o)
 .debug_frame   0x00000718       0x40 c:/users/montoya/documents/classes/cmpe146/lab/cmpe146package_lpc1758/yagarto/bin/../lib/gcc/arm-none-eabi/4.6.2/../../../../arm-none-eabi/lib/thumb/v7m\libstdc++.a(fundamental_type_info.o)
 .debug_frame   0x00000758       0x6c c:/users/montoya/documents/classes/cmpe146/lab/cmpe146package_lpc1758/yagarto/bin/../lib/gcc/arm-none-eabi/4.6.2/../../../../arm-none-eabi/lib/thumb/v7m\libstdc++.a(pointer_type_info.o)
 .debug_frame   0x000007c4       0x50 c:/users/montoya/documents/classes/cmpe146/lab/cmpe146package_lpc1758/yagarto/bin/../lib/gcc/arm-none-eabi/4.6.2/../../../../arm-none-eabi/lib/thumb/v7m\libstdc++.a(bad_cast.o)
 .debug_frame   0x00000814       0x50 c:/users/montoya/documents/classes/cmpe146/lab/cmpe146package_lpc1758/yagarto/bin/../lib/gcc/arm-none-eabi/4.6.2/../../../../arm-none-eabi/lib/thumb/v7m\libstdc++.a(bad_typeid.o)
 .debug_frame   0x00000864       0x78 c:/users/montoya/documents/classes/cmpe146/lab/cmpe146package_lpc1758/yagarto/bin/../lib/gcc/arm-none-eabi/4.6.2/../../../../arm-none-eabi/lib/thumb/v7m\libstdc++.a(pbase_type_info.o)
 .debug_frame   0x000008dc      0x268 c:/users/montoya/documents/classes/cmpe146/lab/cmpe146package_lpc1758/yagarto/bin/../lib/gcc/arm-none-eabi/4.6.2/thumb/v7m\libgcc.a(unwind-arm.o)
 .debug_frame   0x00000b44       0xec c:/users/montoya/documents/classes/cmpe146/lab/cmpe146package_lpc1758/yagarto/bin/../lib/gcc/arm-none-eabi/4.6.2/thumb/v7m\libgcc.a(pr-support.o)
 .debug_frame   0x00000c30       0x28 c:/users/montoya/documents/classes/cmpe146/lab/cmpe146package_lpc1758/yagarto/bin/../lib/gcc/arm-none-eabi/4.6.2/../../../../arm-none-eabi/lib/thumb/v7m\libc.a(lib_a-abort.o)
 .debug_frame   0x00000c58       0x40 c:/users/montoya/documents/classes/cmpe146/lab/cmpe146package_lpc1758/yagarto/bin/../lib/gcc/arm-none-eabi/4.6.2/../../../../arm-none-eabi/lib/thumb/v7m\libc.a(lib_a-assert.o)
 .debug_frame   0x00000c98       0x30 c:/users/montoya/documents/classes/cmpe146/lab/cmpe146package_lpc1758/yagarto/bin/../lib/gcc/arm-none-eabi/4.6.2/../../../../arm-none-eabi/lib/thumb/v7m\libc.a(lib_a-atoi.o)
 .debug_frame   0x00000cc8       0x58 c:/users/montoya/documents/classes/cmpe146/lab/cmpe146package_lpc1758/yagarto/bin/../lib/gcc/arm-none-eabi/4.6.2/../../../../arm-none-eabi/lib/thumb/v7m\libc.a(lib_a-fiprintf.o)
 .debug_frame   0x00000d20       0x2c c:/users/montoya/documents/classes/cmpe146/lab/cmpe146package_lpc1758/yagarto/bin/../lib/gcc/arm-none-eabi/4.6.2/../../../../arm-none-eabi/lib/thumb/v7m\libc.a(lib_a-init.o)
 .debug_frame   0x00000d4c       0x20 c:/users/montoya/documents/classes/cmpe146/lab/cmpe146package_lpc1758/yagarto/bin/../lib/gcc/arm-none-eabi/4.6.2/../../../../arm-none-eabi/lib/thumb/v7m\libc.a(lib_a-isalnum.o)
 .debug_frame   0x00000d6c       0x20 c:/users/montoya/documents/classes/cmpe146/lab/cmpe146package_lpc1758/yagarto/bin/../lib/gcc/arm-none-eabi/4.6.2/../../../../arm-none-eabi/lib/thumb/v7m\libc.a(lib_a-isalpha.o)
 .debug_frame   0x00000d8c       0x30 c:/users/montoya/documents/classes/cmpe146/lab/cmpe146package_lpc1758/yagarto/bin/../lib/gcc/arm-none-eabi/4.6.2/../../../../arm-none-eabi/lib/thumb/v7m\libc.a(lib_a-malloc.o)
 .debug_frame   0x00000dbc       0x38 c:/users/montoya/documents/classes/cmpe146/lab/cmpe146package_lpc1758/yagarto/bin/../lib/gcc/arm-none-eabi/4.6.2/../../../../arm-none-eabi/lib/thumb/v7m\libc.a(lib_a-mallocr.o)
 .debug_frame   0x00000df4       0x2c c:/users/montoya/documents/classes/cmpe146/lab/cmpe146package_lpc1758/yagarto/bin/../lib/gcc/arm-none-eabi/4.6.2/../../../../arm-none-eabi/lib/thumb/v7m\libc.a(lib_a-memcmp.o)
 .debug_frame   0x00000e20       0x2c c:/users/montoya/documents/classes/cmpe146/lab/cmpe146package_lpc1758/yagarto/bin/../lib/gcc/arm-none-eabi/4.6.2/../../../../arm-none-eabi/lib/thumb/v7m\libc.a(lib_a-memcpy.o)
 .debug_frame   0x00000e4c       0x2c c:/users/montoya/documents/classes/cmpe146/lab/cmpe146package_lpc1758/yagarto/bin/../lib/gcc/arm-none-eabi/4.6.2/../../../../arm-none-eabi/lib/thumb/v7m\libc.a(lib_a-memmove.o)
 .debug_frame   0x00000e78       0x2c c:/users/montoya/documents/classes/cmpe146/lab/cmpe146package_lpc1758/yagarto/bin/../lib/gcc/arm-none-eabi/4.6.2/../../../../arm-none-eabi/lib/thumb/v7m\libc.a(lib_a-memset.o)
 .debug_frame   0x00000ea4       0x30 c:/users/montoya/documents/classes/cmpe146/lab/cmpe146package_lpc1758/yagarto/bin/../lib/gcc/arm-none-eabi/4.6.2/../../../../arm-none-eabi/lib/thumb/v7m\libc.a(lib_a-mlock.o)
 .debug_frame   0x00000ed4       0x70 c:/users/montoya/documents/classes/cmpe146/lab/cmpe146package_lpc1758/yagarto/bin/../lib/gcc/arm-none-eabi/4.6.2/../../../../arm-none-eabi/lib/thumb/v7m\libc.a(lib_a-mstats.o)
 .debug_frame   0x00000f44       0x3c c:/users/montoya/documents/classes/cmpe146/lab/cmpe146package_lpc1758/yagarto/bin/../lib/gcc/arm-none-eabi/4.6.2/../../../../arm-none-eabi/lib/thumb/v7m\libc.a(lib_a-puts.o)
 .debug_frame   0x00000f80       0x20 c:/users/montoya/documents/classes/cmpe146/lab/cmpe146package_lpc1758/yagarto/bin/../lib/gcc/arm-none-eabi/4.6.2/../../../../arm-none-eabi/lib/thumb/v7m\libc.a(lib_a-realloc.o)
 .debug_frame   0x00000fa0       0x38 c:/users/montoya/documents/classes/cmpe146/lab/cmpe146package_lpc1758/yagarto/bin/../lib/gcc/arm-none-eabi/4.6.2/../../../../arm-none-eabi/lib/thumb/v7m\libc.a(lib_a-reallocr.o)
 .debug_frame   0x00000fd8       0x2c c:/users/montoya/documents/classes/cmpe146/lab/cmpe146package_lpc1758/yagarto/bin/../lib/gcc/arm-none-eabi/4.6.2/../../../../arm-none-eabi/lib/thumb/v7m\libc.a(lib_a-sbrkr.o)
 .debug_frame   0x00001004       0x34 c:/users/montoya/documents/classes/cmpe146/lab/cmpe146package_lpc1758/yagarto/bin/../lib/gcc/arm-none-eabi/4.6.2/../../../../arm-none-eabi/lib/thumb/v7m\libc.a(lib_a-setvbuf.o)
 .debug_frame   0x00001038       0xc0 c:/users/montoya/documents/classes/cmpe146/lab/cmpe146package_lpc1758/yagarto/bin/../lib/gcc/arm-none-eabi/4.6.2/../../../../arm-none-eabi/lib/thumb/v7m\libc.a(lib_a-signal.o)
 .debug_frame   0x000010f8       0x3c c:/users/montoya/documents/classes/cmpe146/lab/cmpe146package_lpc1758/yagarto/bin/../lib/gcc/arm-none-eabi/4.6.2/../../../../arm-none-eabi/lib/thumb/v7m\libc.a(lib_a-signalr.o)
 .debug_frame   0x00001134       0x64 c:/users/montoya/documents/classes/cmpe146/lab/cmpe146package_lpc1758/yagarto/bin/../lib/gcc/arm-none-eabi/4.6.2/../../../../arm-none-eabi/lib/thumb/v7m\libc.a(lib_a-siprintf.o)
 .debug_frame   0x00001198       0x2c c:/users/montoya/documents/classes/cmpe146/lab/cmpe146package_lpc1758/yagarto/bin/../lib/gcc/arm-none-eabi/4.6.2/../../../../arm-none-eabi/lib/thumb/v7m\libc.a(lib_a-strcasecmp.o)
 .debug_frame   0x000011c4       0x2c c:/users/montoya/documents/classes/cmpe146/lab/cmpe146package_lpc1758/yagarto/bin/../lib/gcc/arm-none-eabi/4.6.2/../../../../arm-none-eabi/lib/thumb/v7m\libc.a(lib_a-strcat.o)
 .debug_frame   0x000011f0       0x2c c:/users/montoya/documents/classes/cmpe146/lab/cmpe146package_lpc1758/yagarto/bin/../lib/gcc/arm-none-eabi/4.6.2/../../../../arm-none-eabi/lib/thumb/v7m\libc.a(lib_a-strchr.o)
 .debug_frame   0x0000121c       0x30 c:/users/montoya/documents/classes/cmpe146/lab/cmpe146package_lpc1758/yagarto/bin/../lib/gcc/arm-none-eabi/4.6.2/../../../../arm-none-eabi/lib/thumb/v7m\libc.a(lib_a-strcmp.o)
 .debug_frame   0x0000124c       0x20 c:/users/montoya/documents/classes/cmpe146/lab/cmpe146package_lpc1758/yagarto/bin/../lib/gcc/arm-none-eabi/4.6.2/../../../../arm-none-eabi/lib/thumb/v7m\libc.a(lib_a-strcpy.o)
 .debug_frame   0x0000126c       0x20 c:/users/montoya/documents/classes/cmpe146/lab/cmpe146package_lpc1758/yagarto/bin/../lib/gcc/arm-none-eabi/4.6.2/../../../../arm-none-eabi/lib/thumb/v7m\libc.a(lib_a-strlen.o)
 .debug_frame   0x0000128c       0x2c c:/users/montoya/documents/classes/cmpe146/lab/cmpe146package_lpc1758/yagarto/bin/../lib/gcc/arm-none-eabi/4.6.2/../../../../arm-none-eabi/lib/thumb/v7m\libc.a(lib_a-strncasecmp.o)
 .debug_frame   0x000012b8       0x30 c:/users/montoya/documents/classes/cmpe146/lab/cmpe146package_lpc1758/yagarto/bin/../lib/gcc/arm-none-eabi/4.6.2/../../../../arm-none-eabi/lib/thumb/v7m\libc.a(lib_a-strncmp.o)
 .debug_frame   0x000012e8       0x2c c:/users/montoya/documents/classes/cmpe146/lab/cmpe146package_lpc1758/yagarto/bin/../lib/gcc/arm-none-eabi/4.6.2/../../../../arm-none-eabi/lib/thumb/v7m\libc.a(lib_a-strncpy.o)
 .debug_frame   0x00001314       0x2c c:/users/montoya/documents/classes/cmpe146/lab/cmpe146package_lpc1758/yagarto/bin/../lib/gcc/arm-none-eabi/4.6.2/../../../../arm-none-eabi/lib/thumb/v7m\libc.a(lib_a-strpbrk.o)
 .debug_frame   0x00001340       0x2c c:/users/montoya/documents/classes/cmpe146/lab/cmpe146package_lpc1758/yagarto/bin/../lib/gcc/arm-none-eabi/4.6.2/../../../../arm-none-eabi/lib/thumb/v7m\libc.a(lib_a-strrchr.o)
 .debug_frame   0x0000136c       0x8c c:/users/montoya/documents/classes/cmpe146/lab/cmpe146package_lpc1758/yagarto/bin/../lib/gcc/arm-none-eabi/4.6.2/../../../../arm-none-eabi/lib/thumb/v7m\libc.a(lib_a-strstr.o)
 .debug_frame   0x000013f8       0x50 c:/users/montoya/documents/classes/cmpe146/lab/cmpe146package_lpc1758/yagarto/bin/../lib/gcc/arm-none-eabi/4.6.2/../../../../arm-none-eabi/lib/thumb/v7m\libc.a(lib_a-strtol.o)
 .debug_frame   0x00001448       0x64 c:/users/montoya/documents/classes/cmpe146/lab/cmpe146package_lpc1758/yagarto/bin/../lib/gcc/arm-none-eabi/4.6.2/../../../../arm-none-eabi/lib/thumb/v7m\libc.a(lib_a-svfiprintf.o)
 .debug_frame   0x000014ac       0x28 c:/users/montoya/documents/classes/cmpe146/lab/cmpe146package_lpc1758/yagarto/bin/../lib/gcc/arm-none-eabi/4.6.2/../../../../arm-none-eabi/lib/thumb/v7m\libc.a(lib_a-syswrite.o)
 .debug_frame   0x000014d4       0x20 c:/users/montoya/documents/classes/cmpe146/lab/cmpe146package_lpc1758/yagarto/bin/../lib/gcc/arm-none-eabi/4.6.2/../../../../arm-none-eabi/lib/thumb/v7m\libc.a(lib_a-tolower.o)
 .debug_frame   0x000014f4       0x20 c:/users/montoya/documents/classes/cmpe146/lab/cmpe146package_lpc1758/yagarto/bin/../lib/gcc/arm-none-eabi/4.6.2/../../../../arm-none-eabi/lib/thumb/v7m\libc.a(lib_a-toupper.o)
 .debug_frame   0x00001514       0x7c c:/users/montoya/documents/classes/cmpe146/lab/cmpe146package_lpc1758/yagarto/bin/../lib/gcc/arm-none-eabi/4.6.2/../../../../arm-none-eabi/lib/thumb/v7m\libc.a(lib_a-vfiprintf.o)
 .debug_frame   0x00001590       0x40 c:/users/montoya/documents/classes/cmpe146/lab/cmpe146package_lpc1758/yagarto/bin/../lib/gcc/arm-none-eabi/4.6.2/../../../../arm-none-eabi/lib/thumb/v7m\libc.a(lib_a-viprintf.o)
 .debug_frame   0x000015d0       0x48 c:/users/montoya/documents/classes/cmpe146/lab/cmpe146package_lpc1758/yagarto/bin/../lib/gcc/arm-none-eabi/4.6.2/../../../../arm-none-eabi/lib/thumb/v7m\libc.a(lib_a-vsiprintf.o)
 .debug_frame   0x00001618       0x4c c:/users/montoya/documents/classes/cmpe146/lab/cmpe146package_lpc1758/yagarto/bin/../lib/gcc/arm-none-eabi/4.6.2/../../../../arm-none-eabi/lib/thumb/v7m\libc.a(lib_a-vsiscanf.o)
 .debug_frame   0x00001664       0x50 c:/users/montoya/documents/classes/cmpe146/lab/cmpe146package_lpc1758/yagarto/bin/../lib/gcc/arm-none-eabi/4.6.2/../../../../arm-none-eabi/lib/thumb/v7m\libc.a(lib_a-vsniprintf.o)
 .debug_frame   0x000016b4       0x50 c:/users/montoya/documents/classes/cmpe146/lab/cmpe146package_lpc1758/yagarto/bin/../lib/gcc/arm-none-eabi/4.6.2/../../../../arm-none-eabi/lib/thumb/v7m\libc.a(lib_a-vsnprintf.o)
 .debug_frame   0x00001704       0x3c c:/users/montoya/documents/classes/cmpe146/lab/cmpe146package_lpc1758/yagarto/bin/../lib/gcc/arm-none-eabi/4.6.2/../../../../arm-none-eabi/lib/thumb/v7m\libc.a(lib_a-wbuf.o)
 .debug_frame   0x00001740       0x2c c:/users/montoya/documents/classes/cmpe146/lab/cmpe146package_lpc1758/yagarto/bin/../lib/gcc/arm-none-eabi/4.6.2/../../../../arm-none-eabi/lib/thumb/v7m\libc.a(lib_a-writer.o)
 .debug_frame   0x0000176c       0x2c c:/users/montoya/documents/classes/cmpe146/lab/cmpe146package_lpc1758/yagarto/bin/../lib/gcc/arm-none-eabi/4.6.2/../../../../arm-none-eabi/lib/thumb/v7m\libc.a(lib_a-wsetup.o)
 .debug_frame   0x00001798       0x40 c:/users/montoya/documents/classes/cmpe146/lab/cmpe146package_lpc1758/yagarto/bin/../lib/gcc/arm-none-eabi/4.6.2/../../../../arm-none-eabi/lib/thumb/v7m\libc.a(lib_a-fflush.o)
 .debug_frame   0x000017d8      0x120 c:/users/montoya/documents/classes/cmpe146/lab/cmpe146package_lpc1758/yagarto/bin/../lib/gcc/arm-none-eabi/4.6.2/../../../../arm-none-eabi/lib/thumb/v7m\libc.a(lib_a-findfp.o)
 .debug_frame   0x000018f8       0x50 c:/users/montoya/documents/classes/cmpe146/lab/cmpe146package_lpc1758/yagarto/bin/../lib/gcc/arm-none-eabi/4.6.2/../../../../arm-none-eabi/lib/thumb/v7m\libc.a(lib_a-fputwc.o)
 .debug_frame   0x00001948       0x50 c:/users/montoya/documents/classes/cmpe146/lab/cmpe146package_lpc1758/yagarto/bin/../lib/gcc/arm-none-eabi/4.6.2/../../../../arm-none-eabi/lib/thumb/v7m\libc.a(lib_a-freer.o)
 .debug_frame   0x00001998       0x38 c:/users/montoya/documents/classes/cmpe146/lab/cmpe146package_lpc1758/yagarto/bin/../lib/gcc/arm-none-eabi/4.6.2/../../../../arm-none-eabi/lib/thumb/v7m\libc.a(lib_a-fvwrite.o)
 .debug_frame   0x000019d0       0x54 c:/users/montoya/documents/classes/cmpe146/lab/cmpe146package_lpc1758/yagarto/bin/../lib/gcc/arm-none-eabi/4.6.2/../../../../arm-none-eabi/lib/thumb/v7m\libc.a(lib_a-fwalk.o)
 .debug_frame   0x00001a24       0x98 c:/users/montoya/documents/classes/cmpe146/lab/cmpe146package_lpc1758/yagarto/bin/../lib/gcc/arm-none-eabi/4.6.2/../../../../arm-none-eabi/lib/thumb/v7m\libc.a(lib_a-locale.o)
 .debug_frame   0x00001abc       0x30 c:/users/montoya/documents/classes/cmpe146/lab/cmpe146package_lpc1758/yagarto/bin/../lib/gcc/arm-none-eabi/4.6.2/../../../../arm-none-eabi/lib/thumb/v7m\libc.a(lib_a-makebuf.o)
 .debug_frame   0x00001aec       0x4c c:/users/montoya/documents/classes/cmpe146/lab/cmpe146package_lpc1758/yagarto/bin/../lib/gcc/arm-none-eabi/4.6.2/../../../../arm-none-eabi/lib/thumb/v7m\libc.a(lib_a-mallinfor.o)
 .debug_frame   0x00001b38       0x2c c:/users/montoya/documents/classes/cmpe146/lab/cmpe146package_lpc1758/yagarto/bin/../lib/gcc/arm-none-eabi/4.6.2/../../../../arm-none-eabi/lib/thumb/v7m\libc.a(lib_a-malloptr.o)
 .debug_frame   0x00001b64       0x30 c:/users/montoya/documents/classes/cmpe146/lab/cmpe146package_lpc1758/yagarto/bin/../lib/gcc/arm-none-eabi/4.6.2/../../../../arm-none-eabi/lib/thumb/v7m\libc.a(lib_a-mallstatsr.o)
 .debug_frame   0x00001b94       0x2c c:/users/montoya/documents/classes/cmpe146/lab/cmpe146package_lpc1758/yagarto/bin/../lib/gcc/arm-none-eabi/4.6.2/../../../../arm-none-eabi/lib/thumb/v7m\libc.a(lib_a-memchr.o)
 .debug_frame   0x00001bc0       0x68 c:/users/montoya/documents/classes/cmpe146/lab/cmpe146package_lpc1758/yagarto/bin/../lib/gcc/arm-none-eabi/4.6.2/../../../../arm-none-eabi/lib/thumb/v7m\libc.a(lib_a-reent.o)
 .debug_frame   0x00001c28       0x80 c:/users/montoya/documents/classes/cmpe146/lab/cmpe146package_lpc1758/yagarto/bin/../lib/gcc/arm-none-eabi/4.6.2/../../../../arm-none-eabi/lib/thumb/v7m\libc.a(lib_a-stdio.o)
 .debug_frame   0x00001ca8       0x98 c:/users/montoya/documents/classes/cmpe146/lab/cmpe146package_lpc1758/yagarto/bin/../lib/gcc/arm-none-eabi/4.6.2/../../../../arm-none-eabi/lib/thumb/v7m\libc.a(lib_a-svfiscanf.o)
 .debug_frame   0x00001d40       0x3c c:/users/montoya/documents/classes/cmpe146/lab/cmpe146package_lpc1758/yagarto/bin/../lib/gcc/arm-none-eabi/4.6.2/../../../../arm-none-eabi/lib/thumb/v7m\libc.a(lib_a-svfprintf.o)
 .debug_frame   0x00001d7c       0x5c c:/users/montoya/documents/classes/cmpe146/lab/cmpe146package_lpc1758/yagarto/bin/../lib/gcc/arm-none-eabi/4.6.2/../../../../arm-none-eabi/lib/thumb/v7m\libc.a(lib_a-ungetc.o)
 .debug_frame   0x00001dd8       0x58 c:/users/montoya/documents/classes/cmpe146/lab/cmpe146package_lpc1758/yagarto/bin/../lib/gcc/arm-none-eabi/4.6.2/../../../../arm-none-eabi/lib/thumb/v7m\libc.a(lib_a-wcrtomb.o)
 .debug_frame   0x00001e30       0x44 c:/users/montoya/documents/classes/cmpe146/lab/cmpe146package_lpc1758/yagarto/bin/../lib/gcc/arm-none-eabi/4.6.2/../../../../arm-none-eabi/lib/thumb/v7m\libc.a(lib_a-wctomb_r.o)
 .debug_frame   0x00001e74       0x2c c:/users/montoya/documents/classes/cmpe146/lab/cmpe146package_lpc1758/yagarto/bin/../lib/gcc/arm-none-eabi/4.6.2/../../../../arm-none-eabi/lib/thumb/v7m\libc.a(lib_a-closer.o)
 .debug_frame   0x00001ea0       0x64 c:/users/montoya/documents/classes/cmpe146/lab/cmpe146package_lpc1758/yagarto/bin/../lib/gcc/arm-none-eabi/4.6.2/../../../../arm-none-eabi/lib/thumb/v7m\libc.a(lib_a-dtoa.o)
 .debug_frame   0x00001f04       0x3c c:/users/montoya/documents/classes/cmpe146/lab/cmpe146package_lpc1758/yagarto/bin/../lib/gcc/arm-none-eabi/4.6.2/../../../../arm-none-eabi/lib/thumb/v7m\libc.a(lib_a-fclose.o)
 .debug_frame   0x00001f40       0x2c c:/users/montoya/documents/classes/cmpe146/lab/cmpe146package_lpc1758/yagarto/bin/../lib/gcc/arm-none-eabi/4.6.2/../../../../arm-none-eabi/lib/thumb/v7m\libc.a(lib_a-fstatr.o)
 .debug_frame   0x00001f6c       0x2c c:/users/montoya/documents/classes/cmpe146/lab/cmpe146package_lpc1758/yagarto/bin/../lib/gcc/arm-none-eabi/4.6.2/../../../../arm-none-eabi/lib/thumb/v7m\libc.a(lib_a-isattyr.o)
 .debug_frame   0x00001f98       0x20 c:/users/montoya/documents/classes/cmpe146/lab/cmpe146package_lpc1758/yagarto/bin/../lib/gcc/arm-none-eabi/4.6.2/../../../../arm-none-eabi/lib/thumb/v7m\libc.a(lib_a-iswspace.o)
 .debug_frame   0x00001fb8       0x2c c:/users/montoya/documents/classes/cmpe146/lab/cmpe146package_lpc1758/yagarto/bin/../lib/gcc/arm-none-eabi/4.6.2/../../../../arm-none-eabi/lib/thumb/v7m\libc.a(lib_a-lseekr.o)
 .debug_frame   0x00001fe4       0x5c c:/users/montoya/documents/classes/cmpe146/lab/cmpe146package_lpc1758/yagarto/bin/../lib/gcc/arm-none-eabi/4.6.2/../../../../arm-none-eabi/lib/thumb/v7m\libc.a(lib_a-mbrtowc.o)
 .debug_frame   0x00002040       0x48 c:/users/montoya/documents/classes/cmpe146/lab/cmpe146package_lpc1758/yagarto/bin/../lib/gcc/arm-none-eabi/4.6.2/../../../../arm-none-eabi/lib/thumb/v7m\libc.a(lib_a-mbtowc_r.o)
 .debug_frame   0x00002088      0x230 c:/users/montoya/documents/classes/cmpe146/lab/cmpe146package_lpc1758/yagarto/bin/../lib/gcc/arm-none-eabi/4.6.2/../../../../arm-none-eabi/lib/thumb/v7m\libc.a(lib_a-mprec.o)
 .debug_frame   0x000022b8       0x2c c:/users/montoya/documents/classes/cmpe146/lab/cmpe146package_lpc1758/yagarto/bin/../lib/gcc/arm-none-eabi/4.6.2/../../../../arm-none-eabi/lib/thumb/v7m\libc.a(lib_a-readr.o)
 .debug_frame   0x000022e4       0x28 c:/users/montoya/documents/classes/cmpe146/lab/cmpe146package_lpc1758/yagarto/bin/../lib/gcc/arm-none-eabi/4.6.2/../../../../arm-none-eabi/lib/thumb/v7m\libc.a(lib_a-s_fpclassify.o)
 .debug_frame   0x0000230c       0x2c c:/users/montoya/documents/classes/cmpe146/lab/cmpe146package_lpc1758/yagarto/bin/../lib/gcc/arm-none-eabi/4.6.2/../../../../arm-none-eabi/lib/thumb/v7m\libc.a(lib_a-sccl.o)
 .debug_frame   0x00002338       0x50 c:/users/montoya/documents/classes/cmpe146/lab/cmpe146package_lpc1758/yagarto/bin/../lib/gcc/arm-none-eabi/4.6.2/../../../../arm-none-eabi/lib/thumb/v7m\libc.a(lib_a-strtoul.o)
 .debug_frame   0x00002388       0x28 c:/users/montoya/documents/classes/cmpe146/lab/cmpe146package_lpc1758/yagarto/bin/../lib/gcc/arm-none-eabi/4.6.2/../../../../arm-none-eabi/lib/thumb/v7m\libc.a(lib_a-callocr.o)
 .debug_frame   0x000023b0       0x20 c:/users/montoya/documents/classes/cmpe146/lab/cmpe146package_lpc1758/yagarto/bin/../lib/gcc/arm-none-eabi/4.6.2/thumb/v7m\libgcc.a(_udivsi3.o)
