   1              		.syntax unified
   2              		.cpu cortex-m3
   3              		.fpu softvfp
   4              		.eabi_attribute 20, 1
   5              		.eabi_attribute 21, 1
   6              		.eabi_attribute 23, 3
   7              		.eabi_attribute 24, 1
   8              		.eabi_attribute 25, 1
   9              		.eabi_attribute 26, 1
  10              		.eabi_attribute 30, 4
  11              		.eabi_attribute 18, 4
  12              		.thumb
  13              		.file	"i2c2.cpp"
  14              		.text
  15              		.align	1
  16              		.global	_ZN4I2C24initEj
  17              		.thumb
  18              		.thumb_func
  20              	_ZN4I2C24initEj:
  21              		@ args = 0, pretend = 0, frame = 0
  22              		@ frame_needed = 0, uses_anonymous_args = 0
  23 0000 70B5     		push	{r4, r5, r6, lr}
  24 0002 194B     		ldr	r3, .L3
  25 0004 0446     		mov	r4, r0
  26 0006 5E69     		ldr	r6, [r3, #20]
  27 0008 184B     		ldr	r3, .L3+4
  28 000a 06F44066 		and	r6, r6, #3072
  29 000e 1A6C     		ldr	r2, [r3, #64]
  30 0010 0D46     		mov	r5, r1
  31 0012 22F47002 		bic	r2, r2, #15728640
  32 0016 1A64     		str	r2, [r3, #64]
  33 0018 1A6C     		ldr	r2, [r3, #64]
  34 001a 42F42002 		orr	r2, r2, #10485760
  35 001e 1A64     		str	r2, [r3, #64]
  36 0020 9A6E     		ldr	r2, [r3, #104]
  37 0022 42F44062 		orr	r2, r2, #3072
  38 0026 9A66     		str	r2, [r3, #104]
  39 0028 1A68     		ldr	r2, [r3, #0]
  40 002a 22F47002 		bic	r2, r2, #15728640
  41 002e 1A60     		str	r2, [r3, #0]
  42 0030 1A68     		ldr	r2, [r3, #0]
  43 0032 42F42002 		orr	r2, r2, #10485760
  44 0036 1A60     		str	r2, [r3, #0]
  45 0038 03F55023 		add	r3, r3, #851968
  46 003c D3F8AC21 		ldr	r2, [r3, #428]
  47 0040 22F44012 		bic	r2, r2, #3145728
  48 0044 C3F8AC21 		str	r2, [r3, #428]
  49 0048 FFF7FEFF 		bl	getCpuClock
  50 004c B6F5406F 		cmp	r6, #3072
  51 0050 06D1     		bne	.L2
  52 0052 8108     		lsrs	r1, r0, #2
  53 0054 2A46     		mov	r2, r5
  54 0056 2046     		mov	r0, r4
  55 0058 BDE87040 		pop	{r4, r5, r6, lr}
  56 005c FFF7FEBF 		b	_ZN8I2C_Base4initEjj
  57              	.L2:
  58 0060 0123     		movs	r3, #1
  59 0062 2374     		strb	r3, [r4, #16]
  60 0064 0020     		movs	r0, #0
  61 0066 70BD     		pop	{r4, r5, r6, pc}
  62              	.L4:
  63              		.align	2
  64              	.L3:
  65 0068 00C00920 		.word	537509888
  66 006c 00C00240 		.word	1073922048
  68              		.align	1
  69              		.global	_ZN4I2C2C2Ev
  70              		.thumb
  71              		.thumb_func
  73              	_ZN4I2C2C2Ev:
  74              		@ args = 0, pretend = 0, frame = 0
  75              		@ frame_needed = 0, uses_anonymous_args = 0
  76 0070 10B5     		push	{r4, lr}
  77 0072 0349     		ldr	r1, .L8
  78 0074 0446     		mov	r4, r0
  79 0076 FFF7FEFF 		bl	_ZN8I2C_BaseC2EP15LPC_I2C_TypeDef
  80 007a 2046     		mov	r0, r4
  81 007c 10BD     		pop	{r4, pc}
  82              	.L9:
  83 007e 00BF     		.align	2
  84              	.L8:
  85 0080 00000A40 		.word	1074397184
  87              		.align	1
  88              		.global	I2C2_IRQHandler
  89              		.thumb
  90              		.thumb_func
  92              	I2C2_IRQHandler:
  93              		@ args = 0, pretend = 0, frame = 0
  94              		@ frame_needed = 0, uses_anonymous_args = 0
  95 0084 38B5     		push	{r3, r4, r5, lr}
  96 0086 074C     		ldr	r4, .L12
  97 0088 2368     		ldr	r3, [r4, #0]
  98 008a 33B9     		cbnz	r3, .L11
  99 008c 1C20     		movs	r0, #28
 100 008e FFF7FEFF 		bl	_Znwj
 101 0092 0546     		mov	r5, r0
 102 0094 FFF7FEFF 		bl	_ZN4I2C2C1Ev
 103 0098 2560     		str	r5, [r4, #0]
 104              	.L11:
 105 009a 2068     		ldr	r0, [r4, #0]
 106 009c BDE83840 		pop	{r3, r4, r5, lr}
 107 00a0 FFF7FEBF 		b	_ZN8I2C_Base15handleInterruptEv
 108              	.L13:
 109              		.align	2
 110              	.L12:
 111 00a4 00000000 		.word	_ZN17SingletonTemplateI4I2C2E19mpSingletonInstanceE
 113              		.weak	_ZN17SingletonTemplateI4I2C2E19mpSingletonInstanceE
 114              		.section	.bss._ZN17SingletonTemplateI4I2C2E19mpSingletonInstanceE,"awG",%nobits,_ZN17SingletonTemp
 115              		.align	2
 118              	_ZN17SingletonTemplateI4I2C2E19mpSingletonInstanceE:
 119 0000 00000000 		.space	4
 120              		.global	_ZN4I2C2C1Ev
 121              		.thumb_set _ZN4I2C2C1Ev,_ZN4I2C2C2Ev
 122              		.ident	"GCC: (GNU) 4.6.2"