   1              		.syntax unified
   2              		.cpu cortex-m3
   3              		.fpu softvfp
   4              		.eabi_attribute 20, 1
   5              		.eabi_attribute 21, 1
   6              		.eabi_attribute 23, 3
   7              		.eabi_attribute 24, 1
   8              		.eabi_attribute 25, 1
   9              		.eabi_attribute 26, 1
  10              		.eabi_attribute 30, 4
  11              		.eabi_attribute 18, 4
  12              		.thumb
  13              		.file	"uart2.cpp"
  14              		.section	.text._ZN9UartIfaceD2Ev,"axG",%progbits,_ZN9UartIfaceD5Ev,comdat
  15              		.align	1
  16              		.weak	_ZN9UartIfaceD2Ev
  17              		.thumb
  18              		.thumb_func
  20              	_ZN9UartIfaceD2Ev:
  21              		@ args = 0, pretend = 0, frame = 0
  22              		@ frame_needed = 0, uses_anonymous_args = 0
  23              		@ link register save eliminated.
  24 0000 014B     		ldr	r3, .L3
  25 0002 0360     		str	r3, [r0, #0]
  26 0004 7047     		bx	lr
  27              	.L4:
  28 0006 00BF     		.align	2
  29              	.L3:
  30 0008 08000000 		.word	_ZTV9UartIface+8
  32              		.section	.text._ZN5Uart2D2Ev,"axG",%progbits,_ZN5Uart2D5Ev,comdat
  33              		.align	1
  34              		.weak	_ZN5Uart2D2Ev
  35              		.thumb
  36              		.thumb_func
  38              	_ZN5Uart2D2Ev:
  39              		@ args = 0, pretend = 0, frame = 0
  40              		@ frame_needed = 0, uses_anonymous_args = 0
  41              		@ link register save eliminated.
  42 0000 014B     		ldr	r3, .L9
  43 0002 0360     		str	r3, [r0, #0]
  44 0004 7047     		bx	lr
  45              	.L10:
  46 0006 00BF     		.align	2
  47              	.L9:
  48 0008 08000000 		.word	_ZTV9UartIface+8
  50              		.section	.text._ZN9UartIfaceD0Ev,"axG",%progbits,_ZN9UartIfaceD5Ev,comdat
  51              		.align	1
  52              		.weak	_ZN9UartIfaceD0Ev
  53              		.thumb
  54              		.thumb_func
  56              	_ZN9UartIfaceD0Ev:
  57              		@ args = 0, pretend = 0, frame = 0
  58              		@ frame_needed = 0, uses_anonymous_args = 0
  59 0000 034B     		ldr	r3, .L14
  60 0002 10B5     		push	{r4, lr}
  61 0004 0446     		mov	r4, r0
  62 0006 0360     		str	r3, [r0, #0]
  63 0008 FFF7FEFF 		bl	_ZdlPv
  64 000c 2046     		mov	r0, r4
  65 000e 10BD     		pop	{r4, pc}
  66              	.L15:
  67              		.align	2
  68              	.L14:
  69 0010 08000000 		.word	_ZTV9UartIface+8
  71              		.section	.text._ZN5Uart2D0Ev,"axG",%progbits,_ZN5Uart2D5Ev,comdat
  72              		.align	1
  73              		.weak	_ZN5Uart2D0Ev
  74              		.thumb
  75              		.thumb_func
  77              	_ZN5Uart2D0Ev:
  78              		@ args = 0, pretend = 0, frame = 0
  79              		@ frame_needed = 0, uses_anonymous_args = 0
  80 0000 034B     		ldr	r3, .L21
  81 0002 10B5     		push	{r4, lr}
  82 0004 0446     		mov	r4, r0
  83 0006 0360     		str	r3, [r0, #0]
  84 0008 FFF7FEFF 		bl	_ZdlPv
  85 000c 2046     		mov	r0, r4
  86 000e 10BD     		pop	{r4, pc}
  87              	.L22:
  88              		.align	2
  89              	.L21:
  90 0010 08000000 		.word	_ZTV9UartIface+8
  92              		.text
  93              		.align	1
  94              		.global	_ZN5Uart24initEjii
  95              		.thumb
  96              		.thumb_func
  98              	_ZN5Uart24initEjii:
  99              		@ args = 0, pretend = 0, frame = 0
 100              		@ frame_needed = 0, uses_anonymous_args = 0
 101 0000 F7B5     		push	{r0, r1, r2, r4, r5, r6, r7, lr}
 102 0002 1F46     		mov	r7, r3
 103 0004 114B     		ldr	r3, .L24
 104 0006 1446     		mov	r4, r2
 105 0008 1A69     		ldr	r2, [r3, #16]
 106 000a 0D46     		mov	r5, r1
 107 000c 22F47022 		bic	r2, r2, #983040
 108 0010 1A61     		str	r2, [r3, #16]
 109 0012 1A69     		ldr	r2, [r3, #16]
 110 0014 0646     		mov	r6, r0
 111 0016 42F42022 		orr	r2, r2, #655360
 112 001a 1A61     		str	r2, [r3, #16]
 113 001c 03F55023 		add	r3, r3, #851968
 114 0020 D3F8AC21 		ldr	r2, [r3, #428]
 115 0024 22F44032 		bic	r2, r2, #196608
 116 0028 C3F8AC21 		str	r2, [r3, #428]
 117 002c D3F8AC21 		ldr	r2, [r3, #428]
 118 0030 42F48032 		orr	r2, r2, #65536
 119 0034 C3F8AC21 		str	r2, [r3, #428]
 120 0038 FFF7FEFF 		bl	getCpuClock
 121 003c 2A46     		mov	r2, r5
 122 003e 0146     		mov	r1, r0
 123 0040 2346     		mov	r3, r4
 124 0042 3046     		mov	r0, r6
 125 0044 0097     		str	r7, [sp, #0]
 126 0046 FFF7FEFF 		bl	_ZN9UART_Base4initEjjii
 127 004a FEBD     		pop	{r1, r2, r3, r4, r5, r6, r7, pc}
 128              	.L25:
 129              		.align	2
 130              	.L24:
 131 004c 00C00240 		.word	1073922048
 133              		.align	1
 134              		.global	_ZN5Uart2C2Ev
 135              		.thumb
 136              		.thumb_func
 138              	_ZN5Uart2C2Ev:
 139              		@ args = 0, pretend = 0, frame = 0
 140              		@ frame_needed = 0, uses_anonymous_args = 0
 141 0050 10B5     		push	{r4, lr}
 142 0052 0449     		ldr	r1, .L29
 143 0054 0446     		mov	r4, r0
 144 0056 FFF7FEFF 		bl	_ZN9UART_BaseC2EPj
 145 005a 034B     		ldr	r3, .L29+4
 146 005c 2046     		mov	r0, r4
 147 005e 2360     		str	r3, [r4, #0]
 148 0060 10BD     		pop	{r4, pc}
 149              	.L30:
 150 0062 00BF     		.align	2
 151              	.L29:
 152 0064 00800940 		.word	1074364416
 153 0068 08000000 		.word	_ZTV5Uart2+8
 155              		.align	1
 156              		.global	UART2_IRQHandler
 157              		.thumb
 158              		.thumb_func
 160              	UART2_IRQHandler:
 161              		@ args = 0, pretend = 0, frame = 0
 162              		@ frame_needed = 0, uses_anonymous_args = 0
 163 006c 38B5     		push	{r3, r4, r5, lr}
 164 006e 074C     		ldr	r4, .L33
 165 0070 2368     		ldr	r3, [r4, #0]
 166 0072 33B9     		cbnz	r3, .L32
 167 0074 2420     		movs	r0, #36
 168 0076 FFF7FEFF 		bl	_Znwj
 169 007a 0546     		mov	r5, r0
 170 007c FFF7FEFF 		bl	_ZN5Uart2C1Ev
 171 0080 2560     		str	r5, [r4, #0]
 172              	.L32:
 173 0082 2068     		ldr	r0, [r4, #0]
 174 0084 BDE83840 		pop	{r3, r4, r5, lr}
 175 0088 FFF7FEBF 		b	_ZN9UART_Base15handleInterruptEv
 176              	.L34:
 177              		.align	2
 178              	.L33:
 179 008c 00000000 		.word	_ZN17SingletonTemplateI5Uart2E19mpSingletonInstanceE
 181              		.weak	_ZN17SingletonTemplateI5Uart2E19mpSingletonInstanceE
 182              		.section	.bss._ZN17SingletonTemplateI5Uart2E19mpSingletonInstanceE,"awG",%nobits,_ZN17SingletonTem
 183              		.align	2
 186              	_ZN17SingletonTemplateI5Uart2E19mpSingletonInstanceE:
 187 0000 00000000 		.space	4
 188              		.weak	_ZTV5Uart2
 189              		.section	.rodata._ZTV5Uart2,"aG",%progbits,_ZTV5Uart2,comdat
 190              		.align	3
 193              	_ZTV5Uart2:
 194 0000 00000000 		.word	0
 195 0004 00000000 		.word	0
 196 0008 00000000 		.word	_ZNK9UART_Base7getCharEPcj
 197 000c 00000000 		.word	_ZN9UART_Base7putCharEcj
 198 0010 00000000 		.word	_ZN5Uart2D1Ev
 199 0014 00000000 		.word	_ZN5Uart2D0Ev
 200              		.weak	_ZTV9UartIface
 201              		.section	.rodata._ZTV9UartIface,"aG",%progbits,_ZTV9UartIface,comdat
 202              		.align	3
 205              	_ZTV9UartIface:
 206 0000 00000000 		.word	0
 207 0004 00000000 		.word	0
 208 0008 00000000 		.word	__cxa_pure_virtual
 209 000c 00000000 		.word	__cxa_pure_virtual
 210 0010 00000000 		.word	_ZN9UartIfaceD1Ev
 211 0014 00000000 		.word	_ZN9UartIfaceD0Ev
 212              		.weak	_ZN9UartIfaceD1Ev
 213              		.thumb_set _ZN9UartIfaceD1Ev,_ZN9UartIfaceD2Ev
 214              		.weak	_ZN5Uart2D1Ev
 215              		.thumb_set _ZN5Uart2D1Ev,_ZN5Uart2D2Ev
 216              		.global	_ZN5Uart2C1Ev
 217              		.thumb_set _ZN5Uart2C1Ev,_ZN5Uart2C2Ev
 218              		.ident	"GCC: (GNU) 4.6.2"